; Listing generated by Microsoft (R) Optimizing Compiler Version 19.23.28106.4 

include listing.inc

INCLUDELIB MSVCRTD
INCLUDELIB OLDNAMES

msvcjmc	SEGMENT
__0A074437_vcruntime_new@h DB 01H
__09340588_corecrt_math@h DB 01H
__24E9E95F_stdlib@h DB 01H
__86D65F0C_cstdlib DB 01H
__F66CEB67_corecrt_stdio_config@h DB 01H
__101834BA_corecrt_wstdio@h DB 01H
__AD6A91B7_stdio@h DB 01H
__367CC694_corecrt_memcpy_s@h DB 01H
__5467428D_corecrt_wconio@h DB 01H
__4442441F_corecrt_wio@h DB 01H
__DC9673E3_corecrt_wstring@h DB 01H
__45F4AF76_corecrt_wtime@h DB 01H
__186FF47F_stat@h DB 01H
__534C724A_wchar@h DB 01H
__231D85A1_cstddef DB 01H
__843B0F21_limits DB 01H
__FFC6471F_type_traits DB 01H
__B0C4CEA9_malloc@h DB 01H
__69245D52_vcruntime_exception@h DB 01H
__536DB091_exception DB 01H
__35D7DDB3_corecrt_memory@h DB 01H
__A29A7DFB_string@h DB 01H
__86E03ACD_xutility DB 01H
__DB4EB944_xmemory DB 01H
__CC282F90_tuple DB 01H
__C9317CBB_xpolymorphic_allocator@h DB 01H
__3FA3F145_SDL_stdinc@h DB 01H
__1662896C_SDL_endian@h DB 01H
__E3097871_SDL_rect@h DB 01H
__BB5134BF_Snake@hpp DB 01H
__6A0B36D1_cmath DB 01H
__AF9D3FD8_xstring DB 01H
__DA238ACC_stdexcept DB 01H
__65AE1ACD_xcall_once@h DB 01H
__DAF308ED_system_error DB 01H
__36900320_vcruntime_typeinfo@h DB 01H
__F63FC9D4_typeinfo DB 01H
__389503AF_memory DB 01H
__14D054A0_xfacet DB 01H
__7242C389_ctype@h DB 01H
__E9B62A1C_xlocinfo DB 01H
__70A34BE9_xlocale DB 01H
__D0535D0F_xiosbase DB 01H
__EE242DFE_xlocnum DB 01H
__D17CECDD_ios DB 01H
__18E694A5_Controller@cpp DB 01H
__0063A417_istream DB 01H
__63B3912D_ostream DB 01H
__D8833270_streambuf DB 01H
__C9967FC1_vector DB 01H
__48D2DAA7_iosfwd DB 01H
__B1DBDA87_utility DB 01H
__46C44D95_xstddef DB 01H
__59613C47_xatomic@h DB 01H
msvcjmc	ENDS
PUBLIC	?__empty_global_delete@@YAXPEAX@Z		; __empty_global_delete
PUBLIC	?__empty_global_delete@@YAXPEAX_K@Z		; __empty_global_delete
PUBLIC	?__empty_global_delete@@YAXPEAXW4align_val_t@std@@@Z ; __empty_global_delete
PUBLIC	?__empty_global_delete@@YAXPEAX_KW4align_val_t@std@@@Z ; __empty_global_delete
PUBLIC	?HandleInput@Controller@controller@ui_layer@@QEBAXAEA_NAEAVSnake@@@Z ; ui_layer::controller::Controller::HandleInput
PUBLIC	?ChangeDirection@Controller@controller@ui_layer@@AEBAXAEAVSnake@@W4Direction@4@1@Z ; ui_layer::controller::Controller::ChangeDirection
PUBLIC	__JustMyCode_Default
EXTRN	SDL_PollEvent:PROC
EXTRN	_RTC_CheckStackVars:PROC
EXTRN	_RTC_InitBase:PROC
EXTRN	_RTC_Shutdown:PROC
EXTRN	__CheckForDebuggerJustMyCode:PROC
EXTRN	__CxxFrameHandler4:PROC
EXTRN	__GSHandlerCheck:PROC
EXTRN	__security_check_cookie:PROC
EXTRN	__security_cookie:QWORD
;	COMDAT pdata
pdata	SEGMENT
$pdata$?__empty_global_delete@@YAXPEAX@Z DD imagerel $LN3
	DD	imagerel $LN3+65
	DD	imagerel $unwind$?__empty_global_delete@@YAXPEAX@Z
pdata	ENDS
;	COMDAT pdata
pdata	SEGMENT
$pdata$?__empty_global_delete@@YAXPEAX_K@Z DD imagerel $LN3
	DD	imagerel $LN3+70
	DD	imagerel $unwind$?__empty_global_delete@@YAXPEAX_K@Z
pdata	ENDS
;	COMDAT pdata
pdata	SEGMENT
$pdata$?__empty_global_delete@@YAXPEAXW4align_val_t@std@@@Z DD imagerel $LN3
	DD	imagerel $LN3+70
	DD	imagerel $unwind$?__empty_global_delete@@YAXPEAXW4align_val_t@std@@@Z
pdata	ENDS
;	COMDAT pdata
pdata	SEGMENT
$pdata$?__empty_global_delete@@YAXPEAX_KW4align_val_t@std@@@Z DD imagerel $LN3
	DD	imagerel $LN3+75
	DD	imagerel $unwind$?__empty_global_delete@@YAXPEAX_KW4align_val_t@std@@@Z
pdata	ENDS
;	COMDAT pdata
pdata	SEGMENT
$pdata$?HandleInput@Controller@controller@ui_layer@@QEBAXAEA_NAEAVSnake@@@Z DD imagerel $LN14
	DD	imagerel $LN14+368
	DD	imagerel $unwind$?HandleInput@Controller@controller@ui_layer@@QEBAXAEA_NAEAVSnake@@@Z
pdata	ENDS
;	COMDAT pdata
pdata	SEGMENT
$pdata$?ChangeDirection@Controller@controller@ui_layer@@AEBAXAEAVSnake@@W4Direction@4@1@Z DD imagerel $LN5
	DD	imagerel $LN5+126
	DD	imagerel $unwind$?ChangeDirection@Controller@controller@ui_layer@@AEBAXAEAVSnake@@W4Direction@4@1@Z
pdata	ENDS
;	COMDAT rtc$TMZ
rtc$TMZ	SEGMENT
_RTC_Shutdown.rtc$TMZ DQ FLAT:_RTC_Shutdown
rtc$TMZ	ENDS
;	COMDAT rtc$IMZ
rtc$IMZ	SEGMENT
_RTC_InitBase.rtc$IMZ DQ FLAT:_RTC_InitBase
rtc$IMZ	ENDS
;	COMDAT xdata
xdata	SEGMENT
$unwind$?ChangeDirection@Controller@controller@ui_layer@@AEBAXAEAVSnake@@W4Direction@4@1@Z DD 025053901H
	DD	011d2322H
	DD	07016001dH
	DD	05015H
xdata	ENDS
;	COMDAT xdata
xdata	SEGMENT
$unwind$?HandleInput@Controller@controller@ui_layer@@QEBAXAEA_NAEAVSnake@@@Z DD 025054519H
	DD	0118231dH
	DD	070110027H
	DD	05010H
	DD	imagerel __GSHandlerCheck
	DD	0128H
xdata	ENDS
;	COMDAT CONST
CONST	SEGMENT
?HandleInput@Controller@controller@ui_layer@@QEBAXAEA_NAEAVSnake@@@Z$rtcName$0 DB 065H ; ui_layer::controller::Controller::HandleInput
	DB	00H
	ORG $+14
?HandleInput@Controller@controller@ui_layer@@QEBAXAEA_NAEAVSnake@@@Z$rtcVarDesc DD 028H ; ui_layer::controller::Controller::HandleInput
	DD	038H
	DQ	FLAT:?HandleInput@Controller@controller@ui_layer@@QEBAXAEA_NAEAVSnake@@@Z$rtcName$0
	ORG $+48
?HandleInput@Controller@controller@ui_layer@@QEBAXAEA_NAEAVSnake@@@Z$rtcFrameData DD 01H ; ui_layer::controller::Controller::HandleInput
	DD	00H
	DQ	FLAT:?HandleInput@Controller@controller@ui_layer@@QEBAXAEA_NAEAVSnake@@@Z$rtcVarDesc
CONST	ENDS
;	COMDAT xdata
xdata	SEGMENT
$ip2state$?__empty_global_delete@@YAXPEAX_KW4align_val_t@std@@@Z DB 02H
	DB	00H
	DB	00H
xdata	ENDS
;	COMDAT xdata
xdata	SEGMENT
$cppxdata$?__empty_global_delete@@YAXPEAX_KW4align_val_t@std@@@Z DB 060H
	DD	imagerel $ip2state$?__empty_global_delete@@YAXPEAX_KW4align_val_t@std@@@Z
xdata	ENDS
;	COMDAT xdata
xdata	SEGMENT
$unwind$?__empty_global_delete@@YAXPEAX_KW4align_val_t@std@@@Z DD 025053419H
	DD	0118231dH
	DD	07011001dH
	DD	05010H
	DD	imagerel __CxxFrameHandler4
	DD	imagerel $cppxdata$?__empty_global_delete@@YAXPEAX_KW4align_val_t@std@@@Z
xdata	ENDS
;	COMDAT xdata
xdata	SEGMENT
$ip2state$?__empty_global_delete@@YAXPEAXW4align_val_t@std@@@Z DB 02H
	DB	00H
	DB	00H
xdata	ENDS
;	COMDAT xdata
xdata	SEGMENT
$cppxdata$?__empty_global_delete@@YAXPEAXW4align_val_t@std@@@Z DB 060H
	DD	imagerel $ip2state$?__empty_global_delete@@YAXPEAXW4align_val_t@std@@@Z
xdata	ENDS
;	COMDAT xdata
xdata	SEGMENT
$unwind$?__empty_global_delete@@YAXPEAXW4align_val_t@std@@@Z DD 025052f19H
	DD	01132318H
	DD	0700c001dH
	DD	0500bH
	DD	imagerel __CxxFrameHandler4
	DD	imagerel $cppxdata$?__empty_global_delete@@YAXPEAXW4align_val_t@std@@@Z
xdata	ENDS
;	COMDAT xdata
xdata	SEGMENT
$ip2state$?__empty_global_delete@@YAXPEAX_K@Z DB 02H
	DB	00H
	DB	00H
xdata	ENDS
;	COMDAT xdata
xdata	SEGMENT
$cppxdata$?__empty_global_delete@@YAXPEAX_K@Z DB 060H
	DD	imagerel $ip2state$?__empty_global_delete@@YAXPEAX_K@Z
xdata	ENDS
;	COMDAT xdata
xdata	SEGMENT
$unwind$?__empty_global_delete@@YAXPEAX_K@Z DD 025052f19H
	DD	01132318H
	DD	0700c001dH
	DD	0500bH
	DD	imagerel __CxxFrameHandler4
	DD	imagerel $cppxdata$?__empty_global_delete@@YAXPEAX_K@Z
xdata	ENDS
;	COMDAT xdata
xdata	SEGMENT
$ip2state$?__empty_global_delete@@YAXPEAX@Z DB 02H
	DB	00H
	DB	00H
xdata	ENDS
;	COMDAT xdata
xdata	SEGMENT
$cppxdata$?__empty_global_delete@@YAXPEAX@Z DB 060H
	DD	imagerel $ip2state$?__empty_global_delete@@YAXPEAX@Z
xdata	ENDS
;	COMDAT xdata
xdata	SEGMENT
$unwind$?__empty_global_delete@@YAXPEAX@Z DD 025052a19H
	DD	010e2313H
	DD	07007001dH
	DD	05006H
	DD	imagerel __CxxFrameHandler4
	DD	imagerel $cppxdata$?__empty_global_delete@@YAXPEAX@Z
xdata	ENDS
; Function compile flags: /Odt
;	COMDAT __JustMyCode_Default
_TEXT	SEGMENT
__JustMyCode_Default PROC				; COMDAT
	ret	0
__JustMyCode_Default ENDP
_TEXT	ENDS
; Function compile flags: /Odtp /RTCsu /ZI
; File C:\Users\CSUFTitan\Downloads\snakeGame-master (1)\snakeGame-master\SourceCode\ui_layer\controller\Controller.cpp
;	COMDAT ?ChangeDirection@Controller@controller@ui_layer@@AEBAXAEAVSnake@@W4Direction@4@1@Z
_TEXT	SEGMENT
this$ = 224
snake$ = 232
input$ = 240
opposite$ = 248
?ChangeDirection@Controller@controller@ui_layer@@AEBAXAEAVSnake@@W4Direction@4@1@Z PROC ; ui_layer::controller::Controller::ChangeDirection, COMDAT

; 18   :                                  Snake::Direction opposite) const {

$LN5:
	mov	DWORD PTR [rsp+32], r9d
	mov	DWORD PTR [rsp+24], r8d
	mov	QWORD PTR [rsp+16], rdx
	mov	QWORD PTR [rsp+8], rcx
	push	rbp
	push	rdi
	sub	rsp, 232				; 000000e8H
	lea	rbp, QWORD PTR [rsp+32]
	mov	rdi, rsp
	mov	ecx, 58					; 0000003aH
	mov	eax, -858993460				; ccccccccH
	rep stosd
	mov	rcx, QWORD PTR [rsp+264]
	lea	rcx, OFFSET FLAT:__18E694A5_Controller@cpp
	call	__CheckForDebuggerJustMyCode

; 19   :  	 if (snake.direction != opposite || snake.size == 1) snake.direction = input;

	mov	rax, QWORD PTR snake$[rbp]
	mov	ecx, DWORD PTR opposite$[rbp]
	cmp	DWORD PTR [rax+8], ecx
	jne	SHORT $LN3@ChangeDire
	mov	rax, QWORD PTR snake$[rbp]
	cmp	DWORD PTR [rax+16], 1
	jne	SHORT $LN2@ChangeDire
$LN3@ChangeDire:
	mov	rax, QWORD PTR snake$[rbp]
	mov	ecx, DWORD PTR input$[rbp]
	mov	DWORD PTR [rax+8], ecx
$LN2@ChangeDire:

; 20   :  		 return;
; 21   : 	}

	lea	rsp, QWORD PTR [rbp+200]
	pop	rdi
	pop	rbp
	ret	0
?ChangeDirection@Controller@controller@ui_layer@@AEBAXAEAVSnake@@W4Direction@4@1@Z ENDP ; ui_layer::controller::Controller::ChangeDirection
_TEXT	ENDS
; Function compile flags: /Odtp /RTCsu /ZI
; File C:\Users\CSUFTitan\Downloads\snakeGame-master (1)\snakeGame-master\SourceCode\ui_layer\controller\Controller.cpp
;	COMDAT ?HandleInput@Controller@controller@ui_layer@@QEBAXAEA_NAEAVSnake@@@Z
_TEXT	SEGMENT
e$ = 8
tv69 = 260
__$ArrayPad$ = 264
this$ = 304
running$ = 312
snake$ = 320
?HandleInput@Controller@controller@ui_layer@@QEBAXAEA_NAEAVSnake@@@Z PROC ; ui_layer::controller::Controller::HandleInput, COMDAT

; 23   : 	void Controller::HandleInput(bool &running, Snake &snake) const {

$LN14:
	mov	QWORD PTR [rsp+24], r8
	mov	QWORD PTR [rsp+16], rdx
	mov	QWORD PTR [rsp+8], rcx
	push	rbp
	push	rdi
	sub	rsp, 312				; 00000138H
	lea	rbp, QWORD PTR [rsp+32]
	mov	rdi, rsp
	mov	ecx, 78					; 0000004eH
	mov	eax, -858993460				; ccccccccH
	rep stosd
	mov	rcx, QWORD PTR [rsp+344]
	mov	rax, QWORD PTR __security_cookie
	xor	rax, rbp
	mov	QWORD PTR __$ArrayPad$[rbp], rax
	lea	rcx, OFFSET FLAT:__18E694A5_Controller@cpp
	call	__CheckForDebuggerJustMyCode
$LN2@HandleInpu:

; 24   :   	SDL_Event e;
; 25   :   	while (SDL_PollEvent(&e)) {

	lea	rcx, QWORD PTR e$[rbp]
	call	SDL_PollEvent
	test	eax, eax
	je	$LN3@HandleInpu

; 26   :     	if (e.type == SDL_QUIT) {

	cmp	DWORD PTR e$[rbp], 256			; 00000100H
	jne	SHORT $LN6@HandleInpu

; 27   :       	running = false;

	mov	rax, QWORD PTR running$[rbp]
	mov	BYTE PTR [rax], 0
	jmp	$LN7@HandleInpu
$LN6@HandleInpu:

; 28   :     	} else if (e.type == SDL_KEYDOWN) {

	cmp	DWORD PTR e$[rbp], 768			; 00000300H
	jne	$LN8@HandleInpu

; 29   :       switch (e.key.keysym.sym) {

	mov	eax, DWORD PTR e$[rbp+20]
	mov	DWORD PTR tv69[rbp], eax
	cmp	DWORD PTR tv69[rbp], 1073741903		; 4000004fH
	je	$LN12@HandleInpu
	cmp	DWORD PTR tv69[rbp], 1073741904		; 40000050H
	je	SHORT $LN11@HandleInpu
	cmp	DWORD PTR tv69[rbp], 1073741905		; 40000051H
	je	SHORT $LN10@HandleInpu
	cmp	DWORD PTR tv69[rbp], 1073741906		; 40000052H
	je	SHORT $LN9@HandleInpu
	jmp	SHORT $LN4@HandleInpu
$LN9@HandleInpu:

; 30   :         case SDLK_UP:
; 31   :           ChangeDirection(snake, Snake::Direction::kUp,

	mov	r9d, 1
	xor	r8d, r8d
	mov	rdx, QWORD PTR snake$[rbp]
	mov	rcx, QWORD PTR this$[rbp]
	call	?ChangeDirection@Controller@controller@ui_layer@@AEBAXAEAVSnake@@W4Direction@4@1@Z ; ui_layer::controller::Controller::ChangeDirection

; 32   :                           Snake::Direction::kDown);
; 33   :           break;

	jmp	SHORT $LN4@HandleInpu
$LN10@HandleInpu:

; 34   : 
; 35   :         case SDLK_DOWN:
; 36   :           ChangeDirection(snake, Snake::Direction::kDown,

	xor	r9d, r9d
	mov	r8d, 1
	mov	rdx, QWORD PTR snake$[rbp]
	mov	rcx, QWORD PTR this$[rbp]
	call	?ChangeDirection@Controller@controller@ui_layer@@AEBAXAEAVSnake@@W4Direction@4@1@Z ; ui_layer::controller::Controller::ChangeDirection

; 37   :                           Snake::Direction::kUp);
; 38   :           break;

	jmp	SHORT $LN4@HandleInpu
$LN11@HandleInpu:

; 39   : 
; 40   :         case SDLK_LEFT:
; 41   :           ChangeDirection(snake, Snake::Direction::kLeft,

	mov	r9d, 3
	mov	r8d, 2
	mov	rdx, QWORD PTR snake$[rbp]
	mov	rcx, QWORD PTR this$[rbp]
	call	?ChangeDirection@Controller@controller@ui_layer@@AEBAXAEAVSnake@@W4Direction@4@1@Z ; ui_layer::controller::Controller::ChangeDirection

; 42   :                           Snake::Direction::kRight);
; 43   :           break;

	jmp	SHORT $LN4@HandleInpu
$LN12@HandleInpu:

; 44   : 
; 45   :         case SDLK_RIGHT:
; 46   :           ChangeDirection(snake, Snake::Direction::kRight,

	mov	r9d, 2
	mov	r8d, 3
	mov	rdx, QWORD PTR snake$[rbp]
	mov	rcx, QWORD PTR this$[rbp]
	call	?ChangeDirection@Controller@controller@ui_layer@@AEBAXAEAVSnake@@W4Direction@4@1@Z ; ui_layer::controller::Controller::ChangeDirection
$LN4@HandleInpu:
$LN8@HandleInpu:
$LN7@HandleInpu:

; 47   :                           Snake::Direction::kLeft);
; 48   :           break;
; 49   :       }
; 50   :     }
; 51   :   }

	jmp	$LN2@HandleInpu
$LN3@HandleInpu:

; 52   : }

	lea	rcx, QWORD PTR [rbp-32]
	lea	rdx, OFFSET FLAT:?HandleInput@Controller@controller@ui_layer@@QEBAXAEA_NAEAVSnake@@@Z$rtcFrameData
	call	_RTC_CheckStackVars
	mov	rcx, QWORD PTR __$ArrayPad$[rbp]
	xor	rcx, rbp
	call	__security_check_cookie
	lea	rsp, QWORD PTR [rbp+280]
	pop	rdi
	pop	rbp
	ret	0
?HandleInput@Controller@controller@ui_layer@@QEBAXAEA_NAEAVSnake@@@Z ENDP ; ui_layer::controller::Controller::HandleInput
_TEXT	ENDS
; Function compile flags: /Odtp /RTCsu /ZI
; File C:\Users\CSUFTitan\Downloads\snakeGame-master (1)\snakeGame-master\SourceCode\ui_layer\controller\Controller.cpp
;	COMDAT ?__empty_global_delete@@YAXPEAX_KW4align_val_t@std@@@Z
_TEXT	SEGMENT
__formal$ = 224
__formal$ = 232
__formal$ = 240
?__empty_global_delete@@YAXPEAX_KW4align_val_t@std@@@Z PROC ; __empty_global_delete, COMDAT

$LN3:
	mov	QWORD PTR [rsp+24], r8
	mov	QWORD PTR [rsp+16], rdx
	mov	QWORD PTR [rsp+8], rcx
	push	rbp
	push	rdi
	sub	rsp, 232				; 000000e8H
	lea	rbp, QWORD PTR [rsp+32]
	mov	rdi, rsp
	mov	ecx, 58					; 0000003aH
	mov	eax, -858993460				; ccccccccH
	rep stosd
	mov	rcx, QWORD PTR [rsp+264]
	lea	rcx, OFFSET FLAT:__18E694A5_Controller@cpp
	call	__CheckForDebuggerJustMyCode
	npad	1
	lea	rsp, QWORD PTR [rbp+200]
	pop	rdi
	pop	rbp
	ret	0
?__empty_global_delete@@YAXPEAX_KW4align_val_t@std@@@Z ENDP ; __empty_global_delete
_TEXT	ENDS
; Function compile flags: /Odtp /RTCsu /ZI
; File C:\Users\CSUFTitan\Downloads\snakeGame-master (1)\snakeGame-master\SourceCode\ui_layer\controller\Controller.cpp
;	COMDAT ?__empty_global_delete@@YAXPEAXW4align_val_t@std@@@Z
_TEXT	SEGMENT
__formal$ = 224
__formal$ = 232
?__empty_global_delete@@YAXPEAXW4align_val_t@std@@@Z PROC ; __empty_global_delete, COMDAT

$LN3:
	mov	QWORD PTR [rsp+16], rdx
	mov	QWORD PTR [rsp+8], rcx
	push	rbp
	push	rdi
	sub	rsp, 232				; 000000e8H
	lea	rbp, QWORD PTR [rsp+32]
	mov	rdi, rsp
	mov	ecx, 58					; 0000003aH
	mov	eax, -858993460				; ccccccccH
	rep stosd
	mov	rcx, QWORD PTR [rsp+264]
	lea	rcx, OFFSET FLAT:__18E694A5_Controller@cpp
	call	__CheckForDebuggerJustMyCode
	npad	1
	lea	rsp, QWORD PTR [rbp+200]
	pop	rdi
	pop	rbp
	ret	0
?__empty_global_delete@@YAXPEAXW4align_val_t@std@@@Z ENDP ; __empty_global_delete
_TEXT	ENDS
; Function compile flags: /Odtp /RTCsu /ZI
; File C:\Users\CSUFTitan\Downloads\snakeGame-master (1)\snakeGame-master\SourceCode\ui_layer\controller\Controller.cpp
;	COMDAT ?__empty_global_delete@@YAXPEAX_K@Z
_TEXT	SEGMENT
__formal$ = 224
__formal$ = 232
?__empty_global_delete@@YAXPEAX_K@Z PROC		; __empty_global_delete, COMDAT

$LN3:
	mov	QWORD PTR [rsp+16], rdx
	mov	QWORD PTR [rsp+8], rcx
	push	rbp
	push	rdi
	sub	rsp, 232				; 000000e8H
	lea	rbp, QWORD PTR [rsp+32]
	mov	rdi, rsp
	mov	ecx, 58					; 0000003aH
	mov	eax, -858993460				; ccccccccH
	rep stosd
	mov	rcx, QWORD PTR [rsp+264]
	lea	rcx, OFFSET FLAT:__18E694A5_Controller@cpp
	call	__CheckForDebuggerJustMyCode
	npad	1
	lea	rsp, QWORD PTR [rbp+200]
	pop	rdi
	pop	rbp
	ret	0
?__empty_global_delete@@YAXPEAX_K@Z ENDP		; __empty_global_delete
_TEXT	ENDS
; Function compile flags: /Odtp /RTCsu /ZI
; File C:\Users\CSUFTitan\Downloads\snakeGame-master (1)\snakeGame-master\SourceCode\ui_layer\controller\Controller.cpp
;	COMDAT ?__empty_global_delete@@YAXPEAX@Z
_TEXT	SEGMENT
__formal$ = 224
?__empty_global_delete@@YAXPEAX@Z PROC			; __empty_global_delete, COMDAT

$LN3:
	mov	QWORD PTR [rsp+8], rcx
	push	rbp
	push	rdi
	sub	rsp, 232				; 000000e8H
	lea	rbp, QWORD PTR [rsp+32]
	mov	rdi, rsp
	mov	ecx, 58					; 0000003aH
	mov	eax, -858993460				; ccccccccH
	rep stosd
	mov	rcx, QWORD PTR [rsp+264]
	lea	rcx, OFFSET FLAT:__18E694A5_Controller@cpp
	call	__CheckForDebuggerJustMyCode
	npad	1
	lea	rsp, QWORD PTR [rbp+200]
	pop	rdi
	pop	rbp
	ret	0
?__empty_global_delete@@YAXPEAX@Z ENDP			; __empty_global_delete
_TEXT	ENDS
END
