 ConsoleApplication-x64-Debug

 Timestamp is 5dc0978e (Mon Nov  4 13:26:38 2019)

 Preferred load address is 0000000140000000

 Start         Length     Name                   Class
 0001:00000000 00017bfdH .textbss                DATA
 0002:00000000 00004820H .text                   CODE
 0002:00004820 000010c0H .text$di                CODE
 0002:000058e0 0002e5b0H .text$mn                CODE
 0002:00033e90 00001020H .text$mn$00             CODE
 0002:00034eb0 00003540H .text$x                 CODE
 0002:000383f0 0000101aH .text$yd                CODE
 0003:00000000 00000110H .CRT$XCA                DATA
 0003:00000110 00000110H .CRT$XCAA               DATA
 0003:00000220 00000110H .CRT$XCL                DATA
 0003:00000330 00000120H .CRT$XCU                DATA
 0003:00000450 00000110H .CRT$XCZ                DATA
 0003:00000560 00000110H .CRT$XIA                DATA
 0003:00000670 00000110H .CRT$XIAA               DATA
 0003:00000780 00000110H .CRT$XIAC               DATA
 0003:00000890 00000110H .CRT$XIZ                DATA
 0003:000009a0 00000110H .CRT$XPA                DATA
 0003:00000ab0 00000110H .CRT$XPZ                DATA
 0003:00000bc0 00000110H .CRT$XTA                DATA
 0003:00000cd0 00000110H .CRT$XTZ                DATA
 0003:00000de0 00008f10H .rdata                  DATA
 0003:00009cf0 00001234H .rdata$r                DATA
 0003:0000af24 000001fcH .rdata$zzzdbg           DATA
 0003:0000b120 00000110H .rtc$IAA                DATA
 0003:0000b230 000001a0H .rtc$IMZ                DATA
 0003:0000b3d0 00000110H .rtc$IZZ                DATA
 0003:0000b4e0 00000110H .rtc$TAA                DATA
 0003:0000b5f0 000001a0H .rtc$TMZ                DATA
 0003:0000b790 00000110H .rtc$TZZ                DATA
 0003:0000b8a0 00006830H .xdata                  DATA
 0003:000120d0 00000274H .xdata$x                DATA
 0003:00012344 00000000H .edata                  DATA
 0004:00000000 000001d0H .data                   DATA
 0004:000001d0 00000a20H .data$r                 DATA
 0004:00000bf0 00000828H .bss                    DATA
 0005:00000000 00004d04H .pdata                  DATA
 0006:00000000 00000b28H .idata$5                DATA
 0006:00000b28 0000008cH .idata$2                DATA
 0006:00000bb4 00000014H .idata$3                DATA
 0006:00000bc8 00000b28H .idata$4                DATA
 0006:000016f0 0000251cH .idata$6                DATA
 0007:00000000 000003afH .msvcjmc                DATA
 0008:00000000 0000011bH .00cfg                  DATA
 0009:00000000 00000170H .rsrc$01                DATA
 0009:00000170 000002ccH .rsrc$02                DATA

  Address         Publics by Value              Rva+Base               Lib:Object

 0000:00000000       __guard_fids_table         0000000000000000     <absolute>
 0000:00000000       ___safe_se_handler_count   0000000000000000     <absolute>
 0000:00000000       __AbsoluteZero             0000000000000000     <absolute>
 0000:00000000       __hybrid_auxiliary_iat     0000000000000000     <absolute>
 0000:00000000       __guard_longjmp_table      0000000000000000     <absolute>
 0000:00000000       __enclave_config           0000000000000000     <absolute>
 0000:00000000       __volatile_metadata        0000000000000000     <absolute>
 0000:00000000       __guard_iat_count          0000000000000000     <absolute>
 0000:00000000       __guard_longjmp_count      0000000000000000     <absolute>
 0000:00000000       __dynamic_value_reloc_table 0000000000000000     <absolute>
 0000:00000000       __guard_iat_table          0000000000000000     <absolute>
 0000:00000000       ___safe_se_handler_table   0000000000000000     <absolute>
 0000:00000000       __hybrid_code_map          0000000000000000     <absolute>
 0000:00000000       __guard_fids_count         0000000000000000     <absolute>
 0000:00000000       __hybrid_code_map_count    0000000000000000     <absolute>
 0000:00000100       __guard_flags              0000000000000100     <absolute>
 0000:00000000       __ImageBase                0000000140000000     <linker-defined>
 0001:00000000       __enc$textbss$begin        0000000140001000     <linker-defined>
 0001:00017bfd       __enc$textbss$end          0000000140018bfd     <linker-defined>
 0002:00002ce0       main                       000000014001bce0 f   SDL2main:SDL_windows_main.obj
 0002:00002cf0       wmain                      000000014001bcf0 f   SDL2main:SDL_windows_main.obj
 0002:00002dd0       WinMain                    000000014001bdd0 f   SDL2main:SDL_windows_main.obj
 0002:000058e0       ??$?0$$V@?$_Compressed_pair@V?$allocator@USDL_Point@@@std@@V?$_Vector_val@U?$_Simple_types@USDL_Point@@@std@@@2@$00@std@@QEAA@U_Zero_then_variadic_args_t@1@@Z 000000014001e8e0 f i Game.obj
 0002:00005960       ??$?0USDL_Point@@@?$allocator@U_Container_proxy@std@@@std@@QEAA@AEBV?$allocator@USDL_Point@@@1@@Z 000000014001e960 f i Game.obj
 0002:000059c0       ??$?0V?$allocator@USDL_Point@@@std@@$$V@?$_Compressed_pair@V?$allocator@USDL_Point@@@std@@V?$_Vector_val@U?$_Simple_types@USDL_Point@@@std@@@2@$00@std@@QEAA@U_One_then_variadic_args_t@1@$$QEAV?$allocator@USDL_Point@@@1@@Z 000000014001e9c0 f i Game.obj
 0002:00005a50       ??$?RV?$mersenne_twister_engine@I$0CA@$0CHA@$0BIN@$0BP@$0JJAILANP@$0L@$0PPPPPPPP@$06$0JNCMFGIA@$0P@$0OPMGAAAA@$0BC@$0GMAHIJGF@@std@@@?$uniform_int@H@std@@QEBAHAEAV?$mersenne_twister_engine@I$0CA@$0CHA@$0BIN@$0BP@$0JJAILANP@$0L@$0PPPPPPPP@$06$0JNCMFGIA@$0P@$0OPMGAAAA@$0BC@$0GMAHIJGF@@1@@Z 000000014001ea50 f i Game.obj
 0002:00005ae0       ??$_Alloc_proxy@V?$allocator@U_Container_proxy@std@@@std@@@_Container_base12@std@@QEAAX$$QEAV?$allocator@U_Container_proxy@std@@@1@@Z 000000014001eae0 f i Game.obj
 0002:00005bb0       ??$_Allocate@$0BA@U_Default_allocate_traits@std@@$0A@@std@@YAPEAX_K@Z 000000014001ebb0 f i Game.obj
 0002:00005c50       ??$_Allocate_manually_vector_aligned@U_Default_allocate_traits@std@@@std@@YAPEAX_K@Z 000000014001ec50 f i Game.obj
 0002:00005dd0       ??$_Construct_in_place@U_Container_proxy@std@@PEAU_Container_base12@2@@std@@YAXAEAU_Container_proxy@0@$$QEAPEAU_Container_base12@0@@Z 000000014001edd0 f i Game.obj
 0002:00005e90       ??$_Copy_memmove@PEAUSDL_Point@@PEAU1@@std@@YAPEAUSDL_Point@@PEAU1@00@Z 000000014001ee90 f i Game.obj
 0002:00005f60       ??$_Deallocate@$0BA@$0A@@std@@YAXPEAX_K@Z 000000014001ef60 f i Game.obj
 0002:00006000       ??$_Deallocate_plain@V?$allocator@U_Container_proxy@std@@@std@@@std@@YAXAEAV?$allocator@U_Container_proxy@std@@@0@QEAU_Container_proxy@0@@Z 000000014001f000 f i Game.obj
 0002:00006080       ??$_Delete_plain_internal@V?$allocator@U_Container_proxy@std@@@std@@@std@@YAXAEAV?$allocator@U_Container_proxy@std@@@0@QEAU_Container_proxy@0@@Z 000000014001f080 f i Game.obj
 0002:000060f0       ??$_Destroy_range@V?$allocator@USDL_Point@@@std@@@std@@YAXPEAUSDL_Point@@QEAU1@AEAV?$allocator@USDL_Point@@@0@@Z 000000014001f0f0 f i Game.obj
 0002:00006150       ??$_Eval@V?$mersenne_twister_engine@I$0CA@$0CHA@$0BIN@$0BP@$0JJAILANP@$0L@$0PPPPPPPP@$06$0JNCMFGIA@$0P@$0OPMGAAAA@$0BC@$0GMAHIJGF@@std@@@?$uniform_int@H@std@@AEBAHAEAV?$mersenne_twister_engine@I$0CA@$0CHA@$0BIN@$0BP@$0JJAILANP@$0L@$0PPPPPPPP@$06$0JNCMFGIA@$0P@$0OPMGAAAA@$0BC@$0GMAHIJGF@@1@HH@Z 000000014001f150 f i Game.obj
 0002:00006290       ??$_Get_size_of_n@$07@std@@YA_K_K@Z 000000014001f290 f i Game.obj
 0002:00006330       ??$_Get_size_of_n@$0BA@@std@@YA_K_K@Z 000000014001f330 f i Game.obj
 0002:000063c0       ??$_Get_unwrapped@USDL_Point@@@std@@YAPEAUSDL_Point@@QEAU1@@Z 000000014001f3c0 f i Game.obj
 0002:00006420       ??$_Ucopy@PEAUSDL_Point@@@?$vector@USDL_Point@@V?$allocator@USDL_Point@@@std@@@std@@AEAAPEAUSDL_Point@@PEAU2@00@Z 000000014001f420 f i Game.obj
 0002:000064c0       ??$_Unfancy@USDL_Point@@@std@@YAPEAUSDL_Point@@PEAU1@@Z 000000014001f4c0 f i Game.obj
 0002:00006520       ??$_Unfancy@U_Container_proxy@std@@@std@@YAPEAU_Container_proxy@0@PEAU10@@Z 000000014001f520 f i Game.obj
 0002:00006580       ??$_Uninitialized_copy@PEAUSDL_Point@@V?$allocator@USDL_Point@@@std@@@std@@YAPEAUSDL_Point@@QEAU1@0PEAU1@AEAV?$allocator@USDL_Point@@@0@@Z 000000014001f580 f i Game.obj
 0002:00006670       ??$addressof@U_Container_base12@std@@@std@@YAPEAU_Container_base12@0@AEAU10@@Z 000000014001f670 f i Game.obj
 0002:000066d0       ??$addressof@U_Container_proxy@std@@@std@@YAPEAU_Container_proxy@0@AEAU10@@Z 000000014001f6d0 f i Game.obj
 0002:00006730       ??$exchange@PEAU_Container_proxy@std@@$$T@std@@YAPEAU_Container_proxy@0@AEAPEAU10@$$QEA$$T@Z 000000014001f730 f i Game.obj
 0002:000067c0       ??$forward@PEAU_Container_base12@std@@@std@@YA$$QEAPEAU_Container_base12@0@AEAPEAU10@@Z 000000014001f7c0 f i Game.obj
 0002:00006820       ??$forward@V?$allocator@USDL_Point@@@std@@@std@@YA$$QEAV?$allocator@USDL_Point@@@0@AEAV10@@Z 000000014001f820 f i Game.obj
 0002:00006880       ??0?$_Container_proxy_ptr12@V?$allocator@U_Container_proxy@std@@@std@@@std@@QEAA@AEAV?$allocator@U_Container_proxy@std@@@1@AEAU_Container_base12@1@@Z 000000014001f880 f i Game.obj
 0002:00006980       ??0?$_Rng_from_urng@IV?$mersenne_twister_engine@I$0CA@$0CHA@$0BIN@$0BP@$0JJAILANP@$0L@$0PPPPPPPP@$06$0JNCMFGIA@$0P@$0OPMGAAAA@$0BC@$0GMAHIJGF@@std@@@std@@QEAA@AEAV?$mersenne_twister_engine@I$0CA@$0CHA@$0BIN@$0BP@$0JJAILANP@$0L@$0PPPPPPPP@$06$0JNCMFGIA@$0P@$0OPMGAAAA@$0BC@$0GMAHIJGF@@1@@Z 000000014001f980 f i Game.obj
 0002:00006a90       ??0?$_Vector_val@U?$_Simple_types@USDL_Point@@@std@@@std@@QEAA@XZ 000000014001fa90 f i Game.obj
 0002:00006b30       ??0?$allocator@USDL_Point@@@std@@QEAA@XZ 000000014001fb30 f i Game.obj
 0002:00006b90       ??0?$mersenne_twister@I$0CA@$0CHA@$0BIN@$0BP@$0JJAILANP@$0L@$06$0JNCMFGIA@$0P@$0OPMGAAAA@$0BC@@std@@QEAA@III@Z 000000014001fb90 f i Game.obj
 0002:00006c40       ??0?$mersenne_twister_engine@I$0CA@$0CHA@$0BIN@$0BP@$0JJAILANP@$0L@$0PPPPPPPP@$06$0JNCMFGIA@$0P@$0OPMGAAAA@$0BC@$0GMAHIJGF@@std@@QEAA@I@Z 000000014001fc40 f i Game.obj
 0002:00006cd0       ??0?$uniform_int@H@std@@QEAA@HH@Z 000000014001fcd0 f i Game.obj
 0002:00006d70       ??0?$uniform_int_distribution@H@std@@QEAA@HH@Z 000000014001fd70 f i Game.obj
 0002:00006e00       ??0?$vector@USDL_Point@@V?$allocator@USDL_Point@@@std@@@std@@QEAA@AEBV01@@Z 000000014001fe00 f i Game.obj
 0002:00007060       ??0?$vector@USDL_Point@@V?$allocator@USDL_Point@@@std@@@std@@QEAA@XZ 0000000140020060 f i Game.obj
 0002:00007130       ??0Game@@QEAA@_K0@Z        0000000140020130 f   Game.obj
 0002:000072b0       ??0Snake@@QEAA@AEBV0@@Z    00000001400202b0 f i Game.obj
 0002:00007430       ??0Snake@@QEAA@HH@Z        0000000140020430 f i Game.obj
 0002:00007570       ??0_Container_base12@std@@QEAA@XZ 0000000140020570 f i Game.obj
 0002:000075e0       ??0_Container_proxy@std@@QEAA@PEAU_Container_base12@1@@Z 00000001400205e0 f i Game.obj
 0002:00007670       ??0bad_alloc@std@@AEAA@QEBD@Z 0000000140020670 f i Game.obj
 0002:00007710       ??0bad_alloc@std@@QEAA@AEBV01@@Z 0000000140020710 f i Game.obj
 0002:00007790       ??0bad_array_new_length@std@@QEAA@AEBV01@@Z 0000000140020790 f i Game.obj
 0002:00007810       ??0bad_array_new_length@std@@QEAA@XZ 0000000140020810 f i Game.obj
 0002:000078a0       ??0exception@std@@QEAA@AEBV01@@Z 00000001400208a0 f i Game.obj
 0002:00007960       ??0exception@std@@QEAA@QEBDH@Z 0000000140020960 f i Game.obj
 0002:00007a10       ??0param_type@?$uniform_int@H@std@@QEAA@HH@Z 0000000140020a10 f i Game.obj
 0002:00007aa0       ??0random_device@std@@QEAA@XZ 0000000140020aa0 f i Game.obj
 0002:00007b00       ??1?$_Container_proxy_ptr12@V?$allocator@U_Container_proxy@std@@@std@@@std@@QEAA@XZ 0000000140020b00 f i Game.obj
 0002:00007b90       ??1?$_Tidy_guard@V?$vector@USDL_Point@@V?$allocator@USDL_Point@@@std@@@std@@@std@@QEAA@XZ 0000000140020b90 f i Game.obj
 0002:00007c10       ??1?$vector@USDL_Point@@V?$allocator@USDL_Point@@@std@@@std@@QEAA@XZ 0000000140020c10 f i Game.obj
 0002:00007d20       ??1Snake@@QEAA@XZ          0000000140020d20 f i Game.obj
 0002:00007d80       ??1bad_alloc@std@@UEAA@XZ  0000000140020d80 f i Game.obj
 0002:00007dd0       ??1bad_array_new_length@std@@UEAA@XZ 0000000140020dd0 f i Game.obj
 0002:00007e20       ??1exception@std@@UEAA@XZ  0000000140020e20 f i Game.obj
 0002:00007ea0       ??2@YAPEAX_KPEAX@Z         0000000140020ea0 f i Game.obj
 0002:00007f00       ??R?$_Rng_from_urng@IV?$mersenne_twister_engine@I$0CA@$0CHA@$0BIN@$0BP@$0JJAILANP@$0L@$0PPPPPPPP@$06$0JNCMFGIA@$0P@$0OPMGAAAA@$0BC@$0GMAHIJGF@@std@@@std@@QEAAII@Z 0000000140020f00 f i Game.obj
 0002:00008070       ??R?$mersenne_twister@I$0CA@$0CHA@$0BIN@$0BP@$0JJAILANP@$0L@$06$0JNCMFGIA@$0P@$0OPMGAAAA@$0BC@@std@@QEAAIXZ 0000000140021070 f i Game.obj
 0002:000081c0       ??Rrandom_device@std@@QEAAIXZ 00000001400211c0 f i Game.obj
 0002:00008220       ??_Gbad_alloc@std@@UEAAPEAXI@Z 0000000140021220 f i Game.obj
 0002:00008220       ??_Ebad_alloc@std@@UEAAPEAXI@Z 0000000140021220 f i Game.obj
 0002:000082b0       ??_Ebad_array_new_length@std@@UEAAPEAXI@Z 00000001400212b0 f i Game.obj
 0002:000082b0       ??_Gbad_array_new_length@std@@UEAAPEAXI@Z 00000001400212b0 f i Game.obj
 0002:00008340       ??_Eexception@std@@UEAAPEAXI@Z 0000000140021340 f i Game.obj
 0002:00008340       ??_Gexception@std@@UEAAPEAXI@Z 0000000140021340 f i Game.obj
 0002:000083d0       ?GetScore@Game@@QEBAHXZ    00000001400213d0 f   Game.obj
 0002:00008430       ?GetSize@Game@@QEBAHXZ     0000000140021430 f   Game.obj
 0002:00008490       ?PlaceFood@Game@@AEAAXXZ   0000000140021490 f   Game.obj
 0002:000085d0       ?Run@Game@@QEAAXAEBQEAVController@controller@ui_layer@@AEAVPlayZone@@_K@Z 00000001400215d0 f   Game.obj
 0002:00008820       ?Update@Game@@AEAAXXZ      0000000140021820 f   Game.obj
 0002:00008960       ?_Adjust@?$uniform_int@H@std@@CAII@Z 0000000140021960 f i Game.obj
 0002:000089d0       ?_Adjust@?$uniform_int@H@std@@CAIIU?$integral_constant@_N$00@2@@Z 00000001400219d0 f i Game.obj
 0002:00008a60       ?_Adjust_manually_vector_aligned@std@@YAXAEAPEAXAEA_K@Z 0000000140021a60 f i Game.obj
 0002:00008cc0       ?_Allocate@_Default_allocate_traits@std@@SAPEAX_K@Z 0000000140021cc0 f i Game.obj
 0002:00008d20       ?_Buy_raw@?$vector@USDL_Point@@V?$allocator@USDL_Point@@@std@@@std@@AEAAX_K@Z 0000000140021d20 f i Game.obj
 0002:00008e30       ?_Destroy@?$vector@USDL_Point@@V?$allocator@USDL_Point@@@std@@@std@@AEAAXPEAUSDL_Point@@0@Z 0000000140021e30 f i Game.obj
 0002:00008ec0       ?_Get_all_bits@?$_Rng_from_urng@IV?$mersenne_twister_engine@I$0CA@$0CHA@$0BIN@$0BP@$0JJAILANP@$0L@$0PPPPPPPP@$06$0JNCMFGIA@$0P@$0OPMGAAAA@$0BC@$0GMAHIJGF@@std@@@std@@QEAAIXZ 0000000140021ec0 f i Game.obj
 0002:00008fa0       ?_Get_bits@?$_Rng_from_urng@IV?$mersenne_twister_engine@I$0CA@$0CHA@$0BIN@$0BP@$0JJAILANP@$0L@$0PPPPPPPP@$06$0JNCMFGIA@$0P@$0OPMGAAAA@$0BC@$0GMAHIJGF@@std@@@std@@AEAAIXZ 0000000140021fa0 f i Game.obj
 0002:00009040       ?_Get_first@?$_Compressed_pair@V?$allocator@USDL_Point@@@std@@V?$_Vector_val@U?$_Simple_types@USDL_Point@@@std@@@2@$00@std@@QEAAAEAV?$allocator@USDL_Point@@@2@XZ 0000000140022040 f i Game.obj
 0002:000090a0       ?_Get_first@?$_Compressed_pair@V?$allocator@USDL_Point@@@std@@V?$_Vector_val@U?$_Simple_types@USDL_Point@@@std@@@2@$00@std@@QEBAAEBV?$allocator@USDL_Point@@@2@XZ 00000001400220a0 f i Game.obj
 0002:00009100       ?_Getal@?$vector@USDL_Point@@V?$allocator@USDL_Point@@@std@@@std@@AEAAAEAV?$allocator@USDL_Point@@@2@XZ 0000000140022100 f i Game.obj
 0002:00009170       ?_Getal@?$vector@USDL_Point@@V?$allocator@USDL_Point@@@std@@@std@@AEBAAEBV?$allocator@USDL_Point@@@2@XZ 0000000140022170 f i Game.obj
 0002:000091e0       ?_Init@param_type@?$uniform_int@H@std@@QEAAXHH@Z 00000001400221e0 f i Game.obj
 0002:00009310       ?_Orphan_all@_Container_base12@std@@QEAAXXZ 0000000140022310 f i Game.obj
 0002:00009440       ?_Refill_lower@?$mersenne_twister@I$0CA@$0CHA@$0BIN@$0BP@$0JJAILANP@$0L@$06$0JNCMFGIA@$0P@$0OPMGAAAA@$0BC@@std@@IEAAXXZ 0000000140022440 f i Game.obj
 0002:00009700       ?_Refill_upper@?$mersenne_twister@I$0CA@$0CHA@$0BIN@$0BP@$0JJAILANP@$0L@$06$0JNCMFGIA@$0P@$0OPMGAAAA@$0BC@@std@@IEAAXXZ 0000000140022700 f i Game.obj
 0002:00009830       ?_Release@_Basic_container_proxy_ptr12@std@@QEAAXXZ 0000000140022830 f i Game.obj
 0002:000098a0       ?_Throw_bad_array_new_length@std@@YAXXZ 00000001400228a0 f i Game.obj
 0002:00009910       ?_Tidy@?$vector@USDL_Point@@V?$allocator@USDL_Point@@@std@@@std@@AEAAXXZ 0000000140022910 f i Game.obj
 0002:00009a80       ?__empty_global_delete@@YAXPEAX@Z 0000000140022a80 f i Game.obj
 0002:00009ae0       ?__empty_global_delete@@YAXPEAXW4align_val_t@std@@@Z 0000000140022ae0 f i Game.obj
 0002:00009b40       ?__empty_global_delete@@YAXPEAX_K@Z 0000000140022b40 f i Game.obj
 0002:00009b40       ?__global_delete@@YAXPEAX_K@Z 0000000140022b40 f i Game.obj
 0002:00009ba0       ?__empty_global_delete@@YAXPEAX_KW4align_val_t@std@@@Z 0000000140022ba0 f i Game.obj
 0002:00009c00       ?allocate@?$allocator@USDL_Point@@@std@@QEAAPEAUSDL_Point@@_K@Z 0000000140022c00 f i Game.obj
 0002:00009c70       ?allocate@?$allocator@U_Container_proxy@std@@@std@@QEAAPEAU_Container_proxy@2@_K@Z 0000000140022c70 f i Game.obj
 0002:00009ce0       ?deallocate@?$_Default_allocator_traits@V?$allocator@U_Container_proxy@std@@@std@@@std@@SAXAEAV?$allocator@U_Container_proxy@std@@@2@QEAU_Container_proxy@2@_K@Z 0000000140022ce0 f i Game.obj
 0002:00009d60       ?deallocate@?$allocator@USDL_Point@@@std@@QEAAXQEAUSDL_Point@@_K@Z 0000000140022d60 f i Game.obj
 0002:00009de0       ?max@?$mersenne_twister_engine@I$0CA@$0CHA@$0BIN@$0BP@$0JJAILANP@$0L@$0PPPPPPPP@$06$0JNCMFGIA@$0P@$0OPMGAAAA@$0BC@$0GMAHIJGF@@std@@SAIXZ 0000000140022de0 f i Game.obj
 0002:00009e30       ?min@?$mersenne_twister_engine@I$0CA@$0CHA@$0BIN@$0BP@$0JJAILANP@$0L@$0PPPPPPPP@$06$0JNCMFGIA@$0P@$0OPMGAAAA@$0BC@$0GMAHIJGF@@std@@SAIXZ 0000000140022e30 f i Game.obj
 0002:00009e80       ?seed@?$mersenne_twister@I$0CA@$0CHA@$0BIN@$0BP@$0JJAILANP@$0L@$06$0JNCMFGIA@$0P@$0OPMGAAAA@$0BC@@std@@QEAAXII@Z 0000000140022e80 f i Game.obj
 0002:00009f90       ?select_on_container_copy_construction@?$_Default_allocator_traits@V?$allocator@USDL_Point@@@std@@@std@@SA?AV?$allocator@USDL_Point@@@2@AEBV32@@Z 0000000140022f90 f i Game.obj
 0002:00009ff0       ?what@exception@std@@UEBAPEBDXZ 0000000140022ff0 f i Game.obj
 0002:0000a090       __JustMyCode_Default       0000000140023090 f i Game.obj
 0002:0000a0a0       ??$?0$$V@?$_Compressed_pair@V?$allocator@D@std@@V?$_String_val@U?$_Simple_types@D@std@@@2@$00@std@@QEAA@U_Zero_then_variadic_args_t@1@@Z 00000001400230a0 f i Player.obj
 0002:0000a120       ??$?0D@?$allocator@U_Container_proxy@std@@@std@@QEAA@AEBV?$allocator@D@1@@Z 0000000140023120 f i Player.obj
 0002:0000a180       ??$?0V?$allocator@D@std@@$$V@?$_Compressed_pair@V?$allocator@D@std@@V?$_String_val@U?$_Simple_types@D@std@@@2@$00@std@@QEAA@U_One_then_variadic_args_t@1@$$QEAV?$allocator@D@1@@Z 0000000140023180 f i Player.obj
 0002:0000a210       ??$_Construct_in_place@PEADAEBQEAD@std@@YAXAEAPEADAEBQEAD@Z 0000000140023210 f i Player.obj
 0002:0000a2c0       ??$_Destroy_in_place@PEAD@std@@YAXAEAPEAD@Z 00000001400232c0 f i Player.obj
 0002:0000a320       ??$_Get_size_of_n@$00@std@@YA_K_K@Z 0000000140023320 f i Player.obj
 0002:0000a380       ??$_Max_value@_K@std@@YAAEB_KAEB_K0@Z 0000000140023380 f i Player.obj
 0002:0000a440       ??$_Min_value@_K@std@@YAAEB_KAEB_K0@Z 0000000140023440 f i Player.obj
 0002:0000a500       ??$_Pocca@V?$allocator@D@std@@@std@@YAXAEAV?$allocator@D@0@AEBV10@@Z 0000000140023500 f i Player.obj
 0002:0000a560       ??$_Reallocate_for@V<lambda_66f57f934f28d61049862f64df852ff0>@@PEBD@?$basic_string@DU?$char_traits@D@std@@V?$allocator@D@2@@std@@AEAAAEAV01@_KV<lambda_66f57f934f28d61049862f64df852ff0>@@PEBD@Z 0000000140023560 f i Player.obj
 0002:0000a770       ??$_Unfancy@D@std@@YAPEADPEAD@Z 0000000140023770 f i Player.obj
 0002:0000a7d0       ??$addressof@$$CBV?$basic_string@DU?$char_traits@D@std@@V?$allocator@D@2@@std@@@std@@YAPEBV?$basic_string@DU?$char_traits@D@std@@V?$allocator@D@2@@0@AEBV10@@Z 00000001400237d0 f i Player.obj
 0002:0000a830       ??$addressof@PEAD@std@@YAPEAPEADAEAPEAD@Z 0000000140023830 f i Player.obj
 0002:0000a890       ??$forward@AEBQEAD@std@@YAAEBQEADAEBQEAD@Z 0000000140023890 f i Player.obj
 0002:0000a8f0       ??$forward@V?$allocator@D@std@@@std@@YA$$QEAV?$allocator@D@0@AEAV10@@Z 00000001400238f0 f i Player.obj
 0002:0000a950       ??0?$_String_val@U?$_Simple_types@D@std@@@std@@QEAA@XZ 0000000140023950 f i Player.obj
 0002:0000aa00       ??0?$allocator@D@std@@QEAA@XZ 0000000140023a00 f i Player.obj
 0002:0000aa60       ??0?$basic_string@DU?$char_traits@D@std@@V?$allocator@D@2@@std@@QEAA@AEBV01@@Z 0000000140023a60 f i Player.obj
 0002:0000abf0       ??0?$basic_string@DU?$char_traits@D@std@@V?$allocator@D@2@@std@@QEAA@XZ 0000000140023bf0 f i Player.obj
 0002:0000acd0       ??0Player@player@domain_layer@@QEAA@V?$basic_string@DU?$char_traits@D@std@@V?$allocator@D@2@@std@@IIPEAUPersistenceHandler@Persistence@technical_services_layer@@@Z 0000000140023cd0 f   Player.obj
 0002:0000adf0       ??0PlayerHandler@player@domain_layer@@QEAA@XZ 0000000140023df0 f i Player.obj
 0002:0000ae60       ??0_Bxty@?$_String_val@U?$_Simple_types@D@std@@@std@@QEAA@XZ 0000000140023e60 f i Player.obj
 0002:0000aec0       ??1?$_Compressed_pair@V?$allocator@D@std@@V?$_String_val@U?$_Simple_types@D@std@@@2@$00@std@@QEAA@XZ 0000000140023ec0 f i Player.obj
 0002:0000af20       ??1?$_String_val@U?$_Simple_types@D@std@@@std@@QEAA@XZ 0000000140023f20 f i Player.obj
 0002:0000af80       ??1?$basic_string@DU?$char_traits@D@std@@V?$allocator@D@2@@std@@QEAA@XZ 0000000140023f80 f i Player.obj
 0002:0000b0a0       ??1Player@player@domain_layer@@UEAA@XZ 00000001400240a0 f   Player.obj
 0002:0000b1a0       ??1PlayerHandler@player@domain_layer@@UEAA@XZ 00000001400241a0 f i Player.obj
 0002:0000b210       ??1_Bxty@?$_String_val@U?$_Simple_types@D@std@@@std@@QEAA@XZ 0000000140024210 f i Player.obj
 0002:0000b270       ??4?$basic_string@DU?$char_traits@D@std@@V?$allocator@D@2@@std@@QEAAAEAV01@AEBV01@@Z 0000000140024270 f i Player.obj
 0002:0000b330       ??R<lambda_66f57f934f28d61049862f64df852ff0>@@QEBA@QEAD_KQEBD@Z 0000000140024330 f i Player.obj
 0002:0000b3f0       ??_GPlayer@player@domain_layer@@UEAAPEAXI@Z 00000001400243f0 f i Player.obj
 0002:0000b3f0       ??_EPlayer@player@domain_layer@@UEAAPEAXI@Z 00000001400243f0 f i Player.obj
 0002:0000b480       ?_Calculate_growth@?$basic_string@DU?$char_traits@D@std@@V?$allocator@D@2@@std@@AEBA_K_K@Z 0000000140024480 f i Player.obj
 0002:0000b530       ?_Calculate_growth@?$basic_string@DU?$char_traits@D@std@@V?$allocator@D@2@@std@@CA_K_K00@Z 0000000140024530 f i Player.obj
 0002:0000b690       ?_Construct_lv_contents@?$basic_string@DU?$char_traits@D@std@@V?$allocator@D@2@@std@@AEAAXAEBV12@@Z 0000000140024690 f i Player.obj
 0002:0000b8c0       ?_Copy_assign@?$basic_string@DU?$char_traits@D@std@@V?$allocator@D@2@@std@@AEAAXAEBV12@U?$integral_constant@_N$0A@@2@@Z 00000001400248c0 f i Player.obj
 0002:0000b9c0       ?_Get_first@?$_Compressed_pair@V?$allocator@D@std@@V?$_String_val@U?$_Simple_types@D@std@@@2@$00@std@@QEAAAEAV?$allocator@D@2@XZ 00000001400249c0 f i Player.obj
 0002:0000ba20       ?_Get_first@?$_Compressed_pair@V?$allocator@D@std@@V?$_String_val@U?$_Simple_types@D@std@@@2@$00@std@@QEBAAEBV?$allocator@D@2@XZ 0000000140024a20 f i Player.obj
 0002:0000ba80       ?_Getal@?$basic_string@DU?$char_traits@D@std@@V?$allocator@D@2@@std@@AEAAAEAV?$allocator@D@2@XZ 0000000140024a80 f i Player.obj
 0002:0000baf0       ?_Getal@?$basic_string@DU?$char_traits@D@std@@V?$allocator@D@2@@std@@AEBAAEBV?$allocator@D@2@XZ 0000000140024af0 f i Player.obj
 0002:0000bb60       ?_Large_string_engaged@?$_String_val@U?$_Simple_types@D@std@@@std@@QEBA_NXZ 0000000140024b60 f i Player.obj
 0002:0000bbf0       ?_Myptr@?$_String_val@U?$_Simple_types@D@std@@@std@@QEAAPEADXZ 0000000140024bf0 f i Player.obj
 0002:0000bc90       ?_Myptr@?$_String_val@U?$_Simple_types@D@std@@@std@@QEBAPEBDXZ 0000000140024c90 f i Player.obj
 0002:0000bd30       ?_Tidy_deallocate@?$basic_string@DU?$char_traits@D@std@@V?$allocator@D@2@@std@@AEAAXXZ 0000000140024d30 f i Player.obj
 0002:0000be80       ?_Tidy_init@?$basic_string@DU?$char_traits@D@std@@V?$allocator@D@2@@std@@AEAAXXZ 0000000140024e80 f i Player.obj
 0002:0000bf30       ?_Xlen@?$basic_string@DU?$char_traits@D@std@@V?$allocator@D@2@@std@@CAXXZ 0000000140024f30 f i Player.obj
 0002:0000bf80       ?add_games_after_payment@Player@player@domain_layer@@UEAAXXZ 0000000140024f80 f   Player.obj
 0002:0000c060       ?allocate@?$allocator@D@std@@QEAAPEAD_K@Z 0000000140025060 f i Player.obj
 0002:0000c0d0       ?assign@?$_Narrow_char_traits@DH@std@@SAXAEADAEBD@Z 00000001400250d0 f i Player.obj
 0002:0000c140       ?assign@?$basic_string@DU?$char_traits@D@std@@V?$allocator@D@2@@std@@QEAAAEAV12@QEBD_K@Z 0000000140025140 f i Player.obj
 0002:0000c280       ?copy@?$_Narrow_char_traits@DH@std@@SAPEADQEADQEBD_K@Z 0000000140025280 f i Player.obj
 0002:0000c300       ?deallocate@?$allocator@D@std@@QEAAXQEAD_K@Z 0000000140025300 f i Player.obj
 0002:0000c380       ?get_games_left@Player@player@domain_layer@@UEAAIXZ 0000000140025380 f   Player.obj
 0002:0000c3e0       ?get_max_score@Player@player@domain_layer@@QEAAIXZ 00000001400253e0 f   Player.obj
 0002:0000c440       ?get_name@Player@player@domain_layer@@QEAA?AV?$basic_string@DU?$char_traits@D@std@@V?$allocator@D@2@@std@@XZ 0000000140025440 f   Player.obj
 0002:0000c4e0       ?get_previous_scores@Player@player@domain_layer@@UEAA?AV?$vector@IV?$allocator@I@std@@@std@@XZ 00000001400254e0 f   Player.obj
 0002:0000c610       ?max@?$numeric_limits@_J@std@@SA_JXZ 0000000140025610 f i Player.obj
 0002:0000c660       ?max_size@?$_Default_allocator_traits@V?$allocator@D@std@@@std@@SA_KAEBV?$allocator@D@2@@Z 0000000140025660 f i Player.obj
 0002:0000c6c0       ?max_size@?$basic_string@DU?$char_traits@D@std@@V?$allocator@D@2@@std@@QEBA_KXZ 00000001400256c0 f i Player.obj
 0002:0000c7f0       ?move@?$_Narrow_char_traits@DH@std@@SAPEADQEADQEBD_K@Z 00000001400257f0 f i Player.obj
 0002:0000c870       ?reduce_games_left@Player@player@domain_layer@@UEAAXXZ 0000000140025870 f   Player.obj
 0002:0000c8e0       ?select_on_container_copy_construction@?$_Default_allocator_traits@V?$allocator@D@std@@@std@@SA?AV?$allocator@D@2@AEBV32@@Z 00000001400258e0 f i Player.obj
 0002:0000c940       ?set_max_score@Player@player@domain_layer@@QEAAXI@Z 0000000140025940 f   Player.obj
 0002:0000ca80       ??$?0AEBV?$allocator@D@std@@$$V@?$_Compressed_pair@V?$allocator@D@std@@V?$_String_val@U?$_Simple_types@D@std@@@2@$00@std@@QEAA@U_One_then_variadic_args_t@1@AEBV?$allocator@D@1@@Z 0000000140025a80 f i PlayZone.obj
 0002:0000cb10       ??$?0PEADX@?$basic_string@DU?$char_traits@D@std@@V?$allocator@D@2@@std@@QEAA@PEAD0AEBV?$allocator@D@1@@Z 0000000140025b10 f i PlayZone.obj
 0002:0000cd00       ??$?6U?$char_traits@D@std@@@std@@YAAEAV?$basic_ostream@DU?$char_traits@D@std@@@0@AEAV10@PEBD@Z 0000000140025d00 f i PlayZone.obj
 0002:0000d280       ??$?HDU?$char_traits@D@std@@V?$allocator@D@1@@std@@YA?AV?$basic_string@DU?$char_traits@D@std@@V?$allocator@D@2@@0@$$QEAV10@0@Z 0000000140026280 f i PlayZone.obj
 0002:0000d450       ??$?HDU?$char_traits@D@std@@V?$allocator@D@1@@std@@YA?AV?$basic_string@DU?$char_traits@D@std@@V?$allocator@D@2@@0@$$QEAV10@QEBD@Z 0000000140026450 f i PlayZone.obj
 0002:0000d510       ??$?HDU?$char_traits@D@std@@V?$allocator@D@1@@std@@YA?AV?$basic_string@DU?$char_traits@D@std@@V?$allocator@D@2@@0@QEBD$$QEAV10@@Z 0000000140026510 f i PlayZone.obj
 0002:0000d5d0       ??$_Adl_verify_range@PEADPEAD@std@@YAXAEBQEAD0@Z 00000001400265d0 f i PlayZone.obj
 0002:0000d650       ??$_Convert_size@_K@std@@YA_K_K@Z 0000000140026650 f i PlayZone.obj
 0002:0000d6b0       ??$_Get_unwrapped@D@std@@YAPEADQEAD@Z 00000001400266b0 f i PlayZone.obj
 0002:0000d710       ??$_Integral_to_string@DH@std@@YA?AV?$basic_string@DU?$char_traits@D@std@@V?$allocator@D@2@@0@H@Z 0000000140026710 f i PlayZone.obj
 0002:0000d880       ??$_Reallocate_grow_by@V<lambda_65e615be2a453ca0576c979606f46740>@@PEBD_K@?$basic_string@DU?$char_traits@D@std@@V?$allocator@D@2@@std@@AEAAAEAV01@_KV<lambda_65e615be2a453ca0576c979606f46740>@@PEBD_K@Z 0000000140026880 f i PlayZone.obj
 0002:0000db60       ??$_Reallocate_grow_by@V<lambda_f3a66ab6a0570788f31503db83886f49>@@_KPEBD_K@?$basic_string@DU?$char_traits@D@std@@V?$allocator@D@2@@std@@AEAAAEAV01@_KV<lambda_f3a66ab6a0570788f31503db83886f49>@@_KPEBD2@Z 0000000140026b60 f i PlayZone.obj
 0002:0000de60       ??$_UIntegral_to_buff@DI@std@@YAPEADPEADI@Z 0000000140026e60 f i PlayZone.obj
 0002:0000df20       ??$_Verify_range@D@std@@YAXQEBD0@Z 0000000140026f20 f i PlayZone.obj
 0002:0000e030       ??$addressof@$$CBV?$_String_val@U?$_Simple_types@D@std@@@std@@@std@@YAPEBV?$_String_val@U?$_Simple_types@D@std@@@0@AEBV10@@Z 0000000140027030 f i PlayZone.obj
 0002:0000e090       ??$addressof@V?$_String_val@U?$_Simple_types@D@std@@@std@@@std@@YAPEAV?$_String_val@U?$_Simple_types@D@std@@@0@AEAV10@@Z 0000000140027090 f i PlayZone.obj
 0002:0000e0f0       ??$end@D$0BF@@std@@YAPEADAEAY0BF@D@Z 00000001400270f0 f i PlayZone.obj
 0002:0000e150       ??$forward@AEBV?$allocator@D@std@@@std@@YAAEBV?$allocator@D@0@AEBV10@@Z 0000000140027150 f i PlayZone.obj
 0002:0000e1b0       ??$move@AEAV?$allocator@D@std@@@std@@YA$$QEAV?$allocator@D@0@AEAV10@@Z 00000001400271b0 f i PlayZone.obj
 0002:0000e210       ??$move@AEAV?$basic_string@DU?$char_traits@D@std@@V?$allocator@D@2@@std@@@std@@YA$$QEAV?$basic_string@DU?$char_traits@D@std@@V?$allocator@D@2@@0@AEAV10@@Z 0000000140027210 f i PlayZone.obj
 0002:0000e270       ??0?$basic_string@DU?$char_traits@D@std@@V?$allocator@D@2@@std@@QEAA@$$QEAV01@@Z 0000000140027270 f i PlayZone.obj
 0002:0000e3c0       ??0PlayZone@@QEAA@_K000@Z  00000001400273c0 f   PlayZone.obj
 0002:0000e690       ??0_Sentry_base@?$basic_ostream@DU?$char_traits@D@std@@@std@@QEAA@AEAV12@@Z 0000000140027690 f i PlayZone.obj
 0002:0000e770       ??0sentry@?$basic_ostream@DU?$char_traits@D@std@@@std@@QEAA@AEAV12@@Z 0000000140027770 f i PlayZone.obj
 0002:0000e8e0       ??1PlayZone@@QEAA@XZ       00000001400278e0 f   PlayZone.obj
 0002:0000e950       ??1_Sentry_base@?$basic_ostream@DU?$char_traits@D@std@@@std@@QEAA@XZ 0000000140027950 f i PlayZone.obj
 0002:0000ea10       ??1sentry@?$basic_ostream@DU?$char_traits@D@std@@@std@@QEAA@XZ 0000000140027a10 f i PlayZone.obj
 0002:0000eaa0       ??Bsentry@?$basic_ostream@DU?$char_traits@D@std@@@std@@QEBA_NXZ 0000000140027aa0 f i PlayZone.obj
 0002:0000eb00       ??R<lambda_65e615be2a453ca0576c979606f46740>@@QEBA@QEADQEBD_K12@Z 0000000140027b00 f i PlayZone.obj
 0002:0000ec00       ??R<lambda_f3a66ab6a0570788f31503db83886f49>@@QEBA@QEADQEBD_K212@Z 0000000140027c00 f i PlayZone.obj
 0002:0000ed40       ?PlaceFood@PlayZone@@QEAAXVSnake@@USDL_Point@@@Z 0000000140027d40 f   PlayZone.obj
 0002:0000eee0       ?Render@PlayZone@@QEAAXVSnake@@AEBUSDL_Point@@@Z 0000000140027ee0 f   PlayZone.obj
 0002:0000f1f0       ?UpdateWindowTitle@PlayZone@@QEAAXHH@Z 00000001400281f0 f   PlayZone.obj
 0002:0000f430       ?_Check_offset@?$_String_val@U?$_Simple_types@D@std@@@std@@QEBAX_K@Z 0000000140028430 f i PlayZone.obj
 0002:0000f4b0       ?_Construct@?$basic_string@DU?$char_traits@D@std@@V?$allocator@D@2@@std@@QEAAXQEAD0Urandom_access_iterator_tag@2@@Z 00000001400284b0 f i PlayZone.obj
 0002:0000f570       ?_Memcpy_val_from@?$basic_string@DU?$char_traits@D@std@@V?$allocator@D@2@@std@@AEAAXAEBV12@@Z 0000000140028570 f i PlayZone.obj
 0002:0000f620       ?_Swap_proxy_and_iterators@?$basic_string@DU?$char_traits@D@std@@V?$allocator@D@2@@std@@AEAAXAEAV12@@Z 0000000140028620 f i PlayZone.obj
 0002:0000f6b0       ?_Swap_proxy_and_iterators@_Container_base12@std@@QEAAXAEAU12@@Z 00000001400286b0 f i PlayZone.obj
 0002:0000f800       ?_Take_contents@?$basic_string@DU?$char_traits@D@std@@V?$allocator@D@2@@std@@AEAAXAEAV12@U?$integral_constant@_N$00@2@@Z 0000000140028800 f i PlayZone.obj
 0002:0000f8e0       ?_Unchecked_begin@?$vector@USDL_Point@@V?$allocator@USDL_Point@@@std@@@std@@QEBAPEBUSDL_Point@@XZ 00000001400288e0 f i PlayZone.obj
 0002:0000f940       ?_Unchecked_end@?$vector@USDL_Point@@V?$allocator@USDL_Point@@@std@@@std@@QEBAPEBUSDL_Point@@XZ 0000000140028940 f i PlayZone.obj
 0002:0000f9a0       ?_Xran@?$_String_val@U?$_Simple_types@D@std@@@std@@SAXXZ 00000001400289a0 f i PlayZone.obj
 0002:0000f9f0       ?append@?$basic_string@DU?$char_traits@D@std@@V?$allocator@D@2@@std@@QEAAAEAV12@AEBV12@@Z 00000001400289f0 f i PlayZone.obj
 0002:0000faa0       ?append@?$basic_string@DU?$char_traits@D@std@@V?$allocator@D@2@@std@@QEAAAEAV12@QEBD@Z 0000000140028aa0 f i PlayZone.obj
 0002:0000fb30       ?append@?$basic_string@DU?$char_traits@D@std@@V?$allocator@D@2@@std@@QEAAAEAV12@QEBD_K@Z 0000000140028b30 f i PlayZone.obj
 0002:0000fcd0       ?c_str@?$basic_string@DU?$char_traits@D@std@@V?$allocator@D@2@@std@@QEBAPEBDXZ 0000000140028cd0 f i PlayZone.obj
 0002:0000fd40       ?capacity@?$basic_string@DU?$char_traits@D@std@@V?$allocator@D@2@@std@@QEBA_KXZ 0000000140028d40 f i PlayZone.obj
 0002:0000fda0       ?eof@?$_Narrow_char_traits@DH@std@@SAHXZ 0000000140028da0 f i PlayZone.obj
 0002:0000fdf0       ?eq_int_type@?$_Narrow_char_traits@DH@std@@SA_NAEBH0@Z 0000000140028df0 f i PlayZone.obj
 0002:0000fe90       ?insert@?$basic_string@DU?$char_traits@D@std@@V?$allocator@D@2@@std@@QEAAAEAV12@_KAEBV12@@Z 0000000140028e90 f i PlayZone.obj
 0002:0000ff50       ?insert@?$basic_string@DU?$char_traits@D@std@@V?$allocator@D@2@@std@@QEAAAEAV12@_KQEBD0@Z 0000000140028f50 f i PlayZone.obj
 0002:00010220       ?insert@?$basic_string@DU?$char_traits@D@std@@V?$allocator@D@2@@std@@QEAAAEAV12@_KQEBD@Z 0000000140029220 f i PlayZone.obj
 0002:000102c0       ?length@?$_Narrow_char_traits@DH@std@@SA_KQEBD@Z 00000001400292c0 f i PlayZone.obj
 0002:00010360       ?max@?$numeric_limits@H@std@@SAHXZ 0000000140029360 f i PlayZone.obj
 0002:000103b0       ?size@?$basic_string@DU?$char_traits@D@std@@V?$allocator@D@2@@std@@QEBA_KXZ 00000001400293b0 f i PlayZone.obj
 0002:00010410       ?to_string@std@@YA?AV?$basic_string@DU?$char_traits@D@std@@V?$allocator@D@2@@1@H@Z 0000000140029410 f i PlayZone.obj
 0002:000104b0       ??$_Emplace_back_with_unused_capacity@AEBUSDL_Point@@@?$vector@USDL_Point@@V?$allocator@USDL_Point@@@std@@@std@@AEAA@AEBUSDL_Point@@@Z 00000001400294b0 f i Snake.obj
 0002:000105e0       ??$_Emplace_reallocate@AEBUSDL_Point@@@?$vector@USDL_Point@@V?$allocator@USDL_Point@@@std@@@std@@QEAAPEAUSDL_Point@@QEAU2@AEBU2@@Z 00000001400295e0 f i Snake.obj
 0002:00010900       ??$_Move_unchecked@PEAUSDL_Point@@PEAU1@@std@@YAPEAUSDL_Point@@PEAU1@00@Z 0000000140029900 f i Snake.obj
 0002:00010980       ??$_Uninitialized_move@PEAUSDL_Point@@V?$allocator@USDL_Point@@@std@@@std@@YAPEAUSDL_Point@@QEAU1@0PEAU1@AEAV?$allocator@USDL_Point@@@0@@Z 0000000140029980 f i Snake.obj
 0002:00010a60       ??$addressof@V?$_Vector_val@U?$_Simple_types@USDL_Point@@@std@@@std@@@std@@YAPEAV?$_Vector_val@U?$_Simple_types@USDL_Point@@@std@@@0@AEAV10@@Z 0000000140029a60 f i Snake.obj
 0002:00010ac0       ??$construct@USDL_Point@@AEBU1@@?$_Default_allocator_traits@V?$allocator@USDL_Point@@@std@@@std@@SAXAEAV?$allocator@USDL_Point@@@1@QEAUSDL_Point@@AEBU3@@Z 0000000140029ac0 f i Snake.obj
 0002:00010b60       ??$destroy@USDL_Point@@@?$_Default_allocator_traits@V?$allocator@USDL_Point@@@std@@@std@@SAXAEAV?$allocator@USDL_Point@@@1@QEAUSDL_Point@@@Z 0000000140029b60 f i Snake.obj
 0002:00010bc0       ??$emplace_back@AEBUSDL_Point@@@?$vector@USDL_Point@@V?$allocator@USDL_Point@@@std@@@std@@QEAA@AEBUSDL_Point@@@Z 0000000140029bc0 f i Snake.obj
 0002:00010cc0       ??$fmod@MHX@@YANMH@Z       0000000140029cc0 f i Snake.obj
 0002:00010d40       ??$forward@AEBUSDL_Point@@@std@@YAAEBUSDL_Point@@AEBU1@@Z 0000000140029d40 f i Snake.obj
 0002:00010da0       ??0?$_Vector_const_iterator@V?$_Vector_val@U?$_Simple_types@USDL_Point@@@std@@@std@@@std@@QEAA@$$QEAV01@@Z 0000000140029da0 f i Snake.obj
 0002:00010e30       ??0?$_Vector_const_iterator@V?$_Vector_val@U?$_Simple_types@USDL_Point@@@std@@@std@@@std@@QEAA@PEAUSDL_Point@@PEBU_Container_base12@1@@Z 0000000140029e30 f i Snake.obj
 0002:00010ee0       ??0?$_Vector_iterator@V?$_Vector_val@U?$_Simple_types@USDL_Point@@@std@@@std@@@std@@QEAA@PEAUSDL_Point@@PEBU_Container_base12@1@@Z 0000000140029ee0 f i Snake.obj
 0002:00010f70       ??0_Iterator_base12@std@@QEAA@AEBU01@@Z 0000000140029f70 f i Snake.obj
 0002:00011010       ??0_Iterator_base12@std@@QEAA@XZ 000000014002a010 f i Snake.obj
 0002:00011090       ??1?$_Vector_const_iterator@V?$_Vector_val@U?$_Simple_types@USDL_Point@@@std@@@std@@@std@@QEAA@XZ 000000014002a090 f i Snake.obj
 0002:000110e0       ??1?$_Vector_iterator@V?$_Vector_val@U?$_Simple_types@USDL_Point@@@std@@@std@@@std@@QEAA@XZ 000000014002a0e0 f i Snake.obj
 0002:00011130       ??1_Iterator_base12@std@@QEAA@XZ 000000014002a130 f i Snake.obj
 0002:00011200       ??4_Iterator_base12@std@@QEAAAEAU01@AEBU01@@Z 000000014002a200 f i Snake.obj
 0002:00011330       ?GrowBody@Snake@@QEAAXXZ   000000014002a330 f   Snake.obj
 0002:00011390       ?SnakeCell@Snake@@QEAA_NHH@Z 000000014002a390 f   Snake.obj
 0002:000114b0       ?Update@Snake@@QEAAXXZ     000000014002a4b0 f   Snake.obj
 0002:000115d0       ?UpdateBody@Snake@@AEAAXAEAUSDL_Point@@0@Z 000000014002a5d0 f   Snake.obj
 0002:00011810       ?UpdateHead@Snake@@AEAAXXZ 000000014002a810 f   Snake.obj
 0002:00011a00       ?_Adopt@_Iterator_base12@std@@QEAAXPEBU_Container_base12@2@@Z 000000014002aa00 f i Snake.obj
 0002:00011b70       ?_Calculate_growth@?$vector@USDL_Point@@V?$allocator@USDL_Point@@@std@@@std@@AEBA_K_K@Z 000000014002ab70 f i Snake.obj
 0002:00011c70       ?_Change_array@?$vector@USDL_Point@@V?$allocator@USDL_Point@@@std@@@std@@AEAAXQEAUSDL_Point@@_K1@Z 000000014002ac70 f i Snake.obj
 0002:00011e10       ?_Getcont@_Iterator_base12@std@@QEBAPEBU_Container_base12@2@XZ 000000014002ae10 f i Snake.obj
 0002:00011eb0       ?_Orphan_me@_Iterator_base12@std@@QEAAXXZ 000000014002aeb0 f i Snake.obj
 0002:00012030       ?_Orphan_range@?$vector@USDL_Point@@V?$allocator@USDL_Point@@@std@@@std@@AEBAXPEAUSDL_Point@@0@Z 000000014002b030 f i Snake.obj
 0002:00012180       ?_Umove@?$vector@USDL_Point@@V?$allocator@USDL_Point@@@std@@@std@@AEAAPEAUSDL_Point@@PEAU3@00@Z 000000014002b180 f i Snake.obj
 0002:00012220       ?_Umove_if_noexcept1@?$vector@USDL_Point@@V?$allocator@USDL_Point@@@std@@@std@@AEAAXPEAUSDL_Point@@00U?$integral_constant@_N$00@2@@Z 000000014002b220 f i Snake.obj
 0002:000122c0       ?_Umove_if_noexcept@?$vector@USDL_Point@@V?$allocator@USDL_Point@@@std@@@std@@AEAAXPEAUSDL_Point@@00@Z 000000014002b2c0 f i Snake.obj
 0002:00012380       ?_Unchecked_begin@?$vector@USDL_Point@@V?$allocator@USDL_Point@@@std@@@std@@QEAAPEAUSDL_Point@@XZ 000000014002b380 f i Snake.obj
 0002:000123e0       ?_Unchecked_end@?$vector@USDL_Point@@V?$allocator@USDL_Point@@@std@@@std@@QEAAPEAUSDL_Point@@XZ 000000014002b3e0 f i Snake.obj
 0002:00012440       ?_Xlength@?$vector@USDL_Point@@V?$allocator@USDL_Point@@@std@@@std@@CAXXZ 000000014002b440 f i Snake.obj
 0002:00012490       ?begin@?$vector@USDL_Point@@V?$allocator@USDL_Point@@@std@@@std@@QEAA?AV?$_Vector_iterator@V?$_Vector_val@U?$_Simple_types@USDL_Point@@@std@@@std@@@2@XZ 000000014002b490 f i Snake.obj
 0002:00012550       ?capacity@?$vector@USDL_Point@@V?$allocator@USDL_Point@@@std@@@std@@QEBA_KXZ 000000014002b550 f i Snake.obj
 0002:000125d0       ?erase@?$vector@USDL_Point@@V?$allocator@USDL_Point@@@std@@@std@@QEAA?AV?$_Vector_iterator@V?$_Vector_val@U?$_Simple_types@USDL_Point@@@std@@@std@@@2@V?$_Vector_const_iterator@V?$_Vector_val@U?$_Simple_types@USDL_Point@@@std@@@std@@@2@@Z 000000014002b5d0 f i Snake.obj
 0002:00012850       ?max_size@?$_Default_allocator_traits@V?$allocator@USDL_Point@@@std@@@std@@SA_KAEBV?$allocator@USDL_Point@@@2@@Z 000000014002b850 f i Snake.obj
 0002:000128b0       ?max_size@?$vector@USDL_Point@@V?$allocator@USDL_Point@@@std@@@std@@QEBA_KXZ 000000014002b8b0 f i Snake.obj
 0002:00012960       ?push_back@?$vector@USDL_Point@@V?$allocator@USDL_Point@@@std@@@std@@QEAAXAEBUSDL_Point@@@Z 000000014002b960 f i Snake.obj
 0002:000129d0       ??$_Getvals@_W@?$time_get@DV?$istreambuf_iterator@DU?$char_traits@D@std@@@std@@@std@@IEAAX_WAEBV_Locinfo@1@@Z 000000014002b9d0 f i main.obj
 0002:00012bb0       ??$_Getvals@_W@?$time_get@_WV?$istreambuf_iterator@_WU?$char_traits@_W@std@@@std@@@std@@IEAAX_WAEBV_Locinfo@1@@Z 000000014002bbb0 f i main.obj
 0002:00012d90       ??$_Maklocstr@D@std@@YAPEADPEBDPEADAEBU_Cvtvec@@@Z 000000014002bd90 f i main.obj
 0002:00012eb0       ??$_Maklocstr@_W@std@@YAPEA_WPEBDPEA_WAEBU_Cvtvec@@@Z 000000014002beb0 f i main.obj
 0002:00013190       ?_Maklocwcs@std@@YAPEA_WPEB_W@Z 000000014002c190 f i main.obj
 0002:00013260       ?__autoclassinit2@View@view@ui_layer@@QEAAX_K@Z 000000014002c260 f i main.obj
 0002:000132c0       SDL_main                   000000014002c2c0 f   main.obj
 0002:000133b0       wmemcpy                    000000014002c3b0 f i main.obj
 0002:00013440       ??$?0AEAPEAV_Facet_base@std@@@?$_Compressed_pair@U?$default_delete@V_Facet_base@std@@@std@@PEAV_Facet_base@2@$00@std@@QEAA@U_Zero_then_variadic_args_t@1@AEAPEAV_Facet_base@1@@Z 000000014002c440 f i CreditCard.obj
 0002:000134d0       ??$?0U?$default_delete@V_Facet_base@std@@@std@@$0A@@?$unique_ptr@V_Facet_base@std@@U?$default_delete@V_Facet_base@std@@@2@@std@@QEAA@PEAV_Facet_base@1@@Z 000000014002c4d0 f i CreditCard.obj
 0002:00013570       ??$?0_JX@?$duration@_JU?$ratio@$00$0JIJGIA@@std@@@chrono@std@@QEAA@AEB_J@Z 000000014002c570 f i CreditCard.obj
 0002:000135f0       ??$?6DU?$char_traits@D@std@@D@std@@YAAEAV?$basic_ostream@DU?$char_traits@D@std@@@0@AEAV10@AEBU?$_Timeobj@DPEBUtm@@@0@@Z 000000014002c5f0 f i CreditCard.obj
 0002:00013a00       ??$?6DU?$char_traits@D@std@@V?$allocator@D@1@@std@@YAAEAV?$basic_ostream@DU?$char_traits@D@std@@@0@AEAV10@AEBV?$basic_string@DU?$char_traits@D@std@@V?$allocator@D@2@@0@@Z 000000014002ca00 f i CreditCard.obj
 0002:00013ab0       ??$?6U?$char_traits@D@std@@@std@@YAAEAV?$basic_ostream@DU?$char_traits@D@std@@@0@AEAV10@D@Z 000000014002cab0 f i CreditCard.obj
 0002:00014010       ??$?8DU?$char_traits@D@std@@V?$allocator@D@1@@std@@YA_NAEBV?$basic_string@DU?$char_traits@D@std@@V?$allocator@D@2@@0@QEBD@Z 000000014002d010 f i CreditCard.obj
 0002:00014080       ??$_Fgetc@D@std@@YA_NAEADPEAU_iobuf@@@Z 000000014002d080 f i CreditCard.obj
 0002:00014110       ??$_Fputc@D@std@@YA_NDPEAU_iobuf@@@Z 000000014002d110 f i CreditCard.obj
 0002:000141b0       ??$_Insert_string@DU?$char_traits@D@std@@_K@std@@YAAEAV?$basic_ostream@DU?$char_traits@D@std@@@0@AEAV10@QEBD_K@Z 000000014002d1b0 f i CreditCard.obj
 0002:00014720       ??$_Reallocate_grow_by@V<lambda_319d5e083f45f90dcdce5dce53cbb275>@@D@?$basic_string@DU?$char_traits@D@std@@V?$allocator@D@2@@std@@AEAAAEAV01@_KV<lambda_319d5e083f45f90dcdce5dce53cbb275>@@D@Z 000000014002d720 f i CreditCard.obj
 0002:000149e0       ??$_Traits_equal@U?$char_traits@D@std@@@std@@YA_NQEBD_K01@Z 000000014002d9e0 f i CreditCard.obj
 0002:00014ab0       ??$_Ungetc@D@std@@YA_NAEBDPEAU_iobuf@@@Z 000000014002dab0 f i CreditCard.obj
 0002:00014b50       ??$addressof@$$CBV?$codecvt@DDU_Mbstatet@@@std@@@std@@YAPEBV?$codecvt@DDU_Mbstatet@@@0@AEBV10@@Z 000000014002db50 f i CreditCard.obj
 0002:00014bb0       ??$addressof@V?$basic_filebuf@DU?$char_traits@D@std@@@std@@@std@@YAPEAV?$basic_filebuf@DU?$char_traits@D@std@@@0@AEAV10@@Z 000000014002dbb0 f i CreditCard.obj
 0002:00014c10       ??$endl@DU?$char_traits@D@std@@@std@@YAAEAV?$basic_ostream@DU?$char_traits@D@std@@@0@AEAV10@@Z 000000014002dc10 f i CreditCard.obj
 0002:00014cd0       ??$exchange@PEAV_Facet_base@std@@PEAV12@@std@@YAPEAV_Facet_base@0@AEAPEAV10@$$QEAPEAV10@@Z 000000014002dcd0 f i CreditCard.obj
 0002:00014d60       ??$forward@AEAPEAV_Facet_base@std@@@std@@YAAEAPEAV_Facet_base@0@AEAPEAV10@@Z 000000014002dd60 f i CreditCard.obj
 0002:00014dc0       ??$getline@DU?$char_traits@D@std@@V?$allocator@D@2@@std@@YAAEAV?$basic_istream@DU?$char_traits@D@std@@@0@$$QEAV10@AEAV?$basic_string@DU?$char_traits@D@std@@V?$allocator@D@2@@0@D@Z 000000014002ddc0 f i CreditCard.obj
 0002:00015130       ??$getline@DU?$char_traits@D@std@@V?$allocator@D@2@@std@@YAAEAV?$basic_istream@DU?$char_traits@D@std@@@0@AEAV10@AEAV?$basic_string@DU?$char_traits@D@std@@V?$allocator@D@2@@0@@Z 000000014002e130 f i CreditCard.obj
 0002:00015210       ??$move@AEAV?$basic_istream@DU?$char_traits@D@std@@@std@@@std@@YA$$QEAV?$basic_istream@DU?$char_traits@D@std@@@0@AEAV10@@Z 000000014002e210 f i CreditCard.obj
 0002:00015270       ??$put_time@D@std@@YA?AU?$_Timeobj@DPEBUtm@@@0@PEBUtm@@PEBD@Z 000000014002e270 f i CreditCard.obj
 0002:00015300       ??$use_facet@V?$codecvt@DDU_Mbstatet@@@std@@@std@@YAAEBV?$codecvt@DDU_Mbstatet@@@0@AEBVlocale@0@@Z 000000014002e300 f i CreditCard.obj
 0002:000154f0       ??$use_facet@V?$time_put@DV?$ostreambuf_iterator@DU?$char_traits@D@std@@@std@@@std@@@std@@YAAEBV?$time_put@DV?$ostreambuf_iterator@DU?$char_traits@D@std@@@std@@@0@AEBVlocale@0@@Z 000000014002e4f0 f i CreditCard.obj
 0002:000156e0       ??0?$_Timeobj@DPEBUtm@@@std@@QEAA@PEBUtm@@PEBD@Z 000000014002e6e0 f i CreditCard.obj
 0002:000157d0       ??0?$basic_filebuf@DU?$char_traits@D@std@@@std@@QEAA@PEAU_iobuf@@@Z 000000014002e7d0 f i CreditCard.obj
 0002:00015880       ??0?$basic_ifstream@DU?$char_traits@D@std@@@std@@QEAA@PEBDHH@Z 000000014002e880 f i CreditCard.obj
 0002:00015aa0       ??0?$basic_string@DU?$char_traits@D@std@@V?$allocator@D@2@@std@@QEAA@QEBD@Z 000000014002eaa0 f i CreditCard.obj
 0002:00015c00       ??0?$fpos@U_Mbstatet@@@std@@QEAA@U_Mbstatet@@_J@Z 000000014002ec00 f i CreditCard.obj
 0002:00015cb0       ??0?$fpos@U_Mbstatet@@@std@@QEAA@_J@Z 000000014002ecb0 f i CreditCard.obj
 0002:00015d60       ??0?$ostreambuf_iterator@DU?$char_traits@D@std@@@std@@QEAA@PEAV?$basic_streambuf@DU?$char_traits@D@std@@@1@@Z 000000014002ed60 f i CreditCard.obj
 0002:00015df0       ??0?$time_point@Usystem_clock@chrono@std@@V?$duration@_JU?$ratio@$00$0JIJGIA@@std@@@23@@chrono@std@@QEAA@AEBV?$duration@_JU?$ratio@$00$0JIJGIA@@std@@@12@@Z 000000014002edf0 f i CreditCard.obj
 0002:00015e70       ??0CreditCard@payment@technical_services_layer@@QEAA@AEAUCreditCardInfo@12@@Z 000000014002ee70 f i CreditCard.obj
 0002:00015fc0       ??0CreditCardFactory@payment@technical_services_layer@@QEAA@XZ 000000014002efc0 f i CreditCard.obj
 0002:00016020       ??0CreditCardInfo@payment@technical_services_layer@@QEAA@AEBU012@@Z 000000014002f020 f i CreditCard.obj
 0002:00016160       ??0LoggerHandler@Logging@technical_services_layer@@QEAA@AEAV?$basic_ostream@DU?$char_traits@D@std@@@std@@@Z 000000014002f160 f i CreditCard.obj
 0002:000161f0       ??0MasterCard@payment@technical_services_layer@@QEAA@AEAUCreditCardInfo@12@@Z 000000014002f1f0 f i CreditCard.obj
 0002:00016280       ??0MasterCardFactory@payment@technical_services_layer@@QEAA@XZ 000000014002f280 f i CreditCard.obj
 0002:000162f0       ??0SimpleLogger@Logging@technical_services_layer@@QEAA@AEAV?$basic_ostream@DU?$char_traits@D@std@@@std@@@Z 000000014002f2f0 f i CreditCard.obj
 0002:000163e0       ??0VisaCard@payment@technical_services_layer@@QEAA@AEAUCreditCardInfo@12@@Z 000000014002f3e0 f i CreditCard.obj
 0002:00016470       ??0VisaCardFactory@payment@technical_services_layer@@QEAA@XZ 000000014002f470 f i CreditCard.obj
 0002:000164e0       ??0_Sentry_base@?$basic_istream@DU?$char_traits@D@std@@@std@@QEAA@AEAV12@@Z 000000014002f4e0 f i CreditCard.obj
 0002:000165c0       ??0bad_cast@std@@QEAA@AEBV01@@Z 000000014002f5c0 f i CreditCard.obj
 0002:00016640       ??0bad_cast@std@@QEAA@XZ   000000014002f640 f i CreditCard.obj
 0002:000166d0       ??0sentry@?$basic_istream@DU?$char_traits@D@std@@@std@@QEAA@AEAV12@_N@Z 000000014002f6d0 f i CreditCard.obj
 0002:00016790       ??1?$basic_filebuf@DU?$char_traits@D@std@@@std@@UEAA@XZ 000000014002f790 f i CreditCard.obj
 0002:00016850       ??1?$basic_ifstream@DU?$char_traits@D@std@@@std@@UEAA@XZ 000000014002f850 f i CreditCard.obj
 0002:00016960       ??1?$unique_ptr@V_Facet_base@std@@U?$default_delete@V_Facet_base@std@@@2@@std@@QEAA@XZ 000000014002f960 f i CreditCard.obj
 0002:00016a10       ??1CreditCard@payment@technical_services_layer@@UEAA@XZ 000000014002fa10 f i CreditCard.obj
 0002:00016a90       ??1CreditCardInfo@payment@technical_services_layer@@QEAA@XZ 000000014002fa90 f i CreditCard.obj
 0002:00016b20       ??1LoggerHandler@Logging@technical_services_layer@@UEAA@XZ 000000014002fb20 f i CreditCard.obj
 0002:00016b90       ??1MasterCard@payment@technical_services_layer@@UEAA@XZ 000000014002fb90 f i CreditCard.obj
 0002:00016c00       ??1SimpleLogger@Logging@technical_services_layer@@UEAA@XZ 000000014002fc00 f i CreditCard.obj
 0002:00016ce0       ??1VisaCard@payment@technical_services_layer@@UEAA@XZ 000000014002fce0 f i CreditCard.obj
 0002:00016d50       ??1_Sentry_base@?$basic_istream@DU?$char_traits@D@std@@@std@@QEAA@XZ 000000014002fd50 f i CreditCard.obj
 0002:00016e10       ??1bad_cast@std@@UEAA@XZ   000000014002fe10 f i CreditCard.obj
 0002:00016e60       ??1locale@std@@QEAA@XZ     000000014002fe60 f i CreditCard.obj
 0002:00016f50       ??1sentry@?$basic_istream@DU?$char_traits@D@std@@@std@@QEAA@XZ 000000014002ff50 f i CreditCard.obj
 0002:00016fa0       ??6SimpleLogger@Logging@technical_services_layer@@UEAAAEAV012@AEBV?$basic_string@DU?$char_traits@D@std@@V?$allocator@D@2@@std@@@Z 000000014002ffa0 f i CreditCard.obj
 0002:00017120       ??B?$fpos@U_Mbstatet@@@std@@QEBA_JXZ 0000000140030120 f i CreditCard.obj
 0002:00017190       ??Bsentry@?$basic_istream@DU?$char_traits@D@std@@@std@@QEBA_NXZ 0000000140030190 f i CreditCard.obj
 0002:000171f0       ??R<lambda_319d5e083f45f90dcdce5dce53cbb275>@@QEBA@QEADQEBD_KD@Z 00000001400301f0 f i CreditCard.obj
 0002:000172e0       ??R?$default_delete@V_Facet_base@std@@@std@@QEBAXPEAV_Facet_base@1@@Z 00000001400302e0 f i CreditCard.obj
 0002:000173a0       ??Y?$basic_string@DU?$char_traits@D@std@@V?$allocator@D@2@@std@@QEAAAEAV01@D@Z 00000001400303a0 f i CreditCard.obj
 0002:00017420       ??_D?$basic_ifstream@DU?$char_traits@D@std@@@std@@QEAAXXZ 0000000140030420 f i CreditCard.obj
 0002:00017498       ??_E?$basic_ifstream@DU?$char_traits@D@std@@@std@@$4PPPPPPPM@A@EAAPEAXI@Z 0000000140030498 f i CreditCard.obj
 0002:000174b0       ??_G?$basic_filebuf@DU?$char_traits@D@std@@@std@@UEAAPEAXI@Z 00000001400304b0 f i CreditCard.obj
 0002:000174b0       ??_E?$basic_filebuf@DU?$char_traits@D@std@@@std@@UEAAPEAXI@Z 00000001400304b0 f i CreditCard.obj
 0002:00017540       ??_E?$basic_ifstream@DU?$char_traits@D@std@@@std@@UEAAPEAXI@Z 0000000140030540 f i CreditCard.obj
 0002:00017540       ??_G?$basic_ifstream@DU?$char_traits@D@std@@@std@@UEAAPEAXI@Z 0000000140030540 f i CreditCard.obj
 0002:000175f0       ??_GMasterCard@payment@technical_services_layer@@UEAAPEAXI@Z 00000001400305f0 f i CreditCard.obj
 0002:000175f0       ??_EMasterCard@payment@technical_services_layer@@UEAAPEAXI@Z 00000001400305f0 f i CreditCard.obj
 0002:00017680       ??_GSimpleLogger@Logging@technical_services_layer@@UEAAPEAXI@Z 0000000140030680 f i CreditCard.obj
 0002:00017680       ??_ESimpleLogger@Logging@technical_services_layer@@UEAAPEAXI@Z 0000000140030680 f i CreditCard.obj
 0002:00017710       ??_GVisaCard@payment@technical_services_layer@@UEAAPEAXI@Z 0000000140030710 f i CreditCard.obj
 0002:00017710       ??_EVisaCard@payment@technical_services_layer@@UEAAPEAXI@Z 0000000140030710 f i CreditCard.obj
 0002:000177a0       ??_Ebad_cast@std@@UEAAPEAXI@Z 00000001400307a0 f i CreditCard.obj
 0002:000177a0       ??_Gbad_cast@std@@UEAAPEAXI@Z 00000001400307a0 f i CreditCard.obj
 0002:00017830       ?_Clamp_suffix_size@?$_String_val@U?$_Simple_types@D@std@@@std@@QEBA_K_K0@Z 0000000140030830 f i CreditCard.obj
 0002:000178d0       ?_Endwrite@?$basic_filebuf@DU?$char_traits@D@std@@@std@@IEAA_NXZ 00000001400308d0 f i CreditCard.obj
 0002:00017b60       ?_Eos@?$basic_string@DU?$char_traits@D@std@@V?$allocator@D@2@@std@@AEAAX_K@Z 0000000140030b60 f i CreditCard.obj
 0002:00017c30       ?_Equal@?$basic_string@DU?$char_traits@D@std@@V?$allocator@D@2@@std@@QEBA_NQEBD@Z 0000000140030c30 f i CreditCard.obj
 0002:00017d00       ?_Get_first@?$_Compressed_pair@U?$default_delete@V_Facet_base@std@@@std@@PEAV_Facet_base@2@$00@std@@QEAAAEAU?$default_delete@V_Facet_base@std@@@2@XZ 0000000140030d00 f i CreditCard.obj
 0002:00017d60       ?_Getfacet@locale@std@@QEBAPEBVfacet@12@_K@Z 0000000140030d60 f i CreditCard.obj
 0002:00017e80       ?_Init@?$basic_filebuf@DU?$char_traits@D@std@@@std@@IEAAXPEAU_iobuf@@W4_Initfl@12@@Z 0000000140030e80 f i CreditCard.obj
 0002:00018060       ?_Initcvt@?$basic_filebuf@DU?$char_traits@D@std@@@std@@IEAAXAEBV?$codecvt@DDU_Mbstatet@@@2@@Z 0000000140031060 f i CreditCard.obj
 0002:00018120       ?_Lock@?$basic_filebuf@DU?$char_traits@D@std@@@std@@UEAAXXZ 0000000140031120 f i CreditCard.obj
 0002:000181a0       ?_Reset_back@?$basic_filebuf@DU?$char_traits@D@std@@@std@@AEAAXXZ 00000001400311a0 f i CreditCard.obj
 0002:00018260       ?_Set_back@?$basic_filebuf@DU?$char_traits@D@std@@@std@@AEAAXXZ 0000000140031260 f i CreditCard.obj
 0002:00018360       ?_Throw_bad_cast@std@@YAXXZ 0000000140031360 f i CreditCard.obj
 0002:000183d0       ?_Unlock@?$basic_filebuf@DU?$char_traits@D@std@@@std@@UEAAXXZ 00000001400313d0 f i CreditCard.obj
 0002:00018450       ?__autoclassinit2@?$basic_ifstream@DU?$char_traits@D@std@@@std@@QEAAX_K@Z 0000000140031450 f i CreditCard.obj
 0002:000184b0       ?__autoclassinit2@?$unique_ptr@V_Facet_base@std@@U?$default_delete@V_Facet_base@std@@@2@@std@@QEAAX_K@Z 00000001400314b0 f i CreditCard.obj
 0002:00018510       ?__autoclassinit2@MasterCard@payment@technical_services_layer@@QEAAX_K@Z 0000000140031510 f i CreditCard.obj
 0002:00018570       ?__autoclassinit2@VisaCard@payment@technical_services_layer@@QEAAX_K@Z 0000000140031570 f i CreditCard.obj
 0002:000185d0       ?assign@?$basic_string@DU?$char_traits@D@std@@V?$allocator@D@2@@std@@QEAAAEAV12@QEBD@Z 00000001400315d0 f i CreditCard.obj
 0002:00018660       ?close@?$basic_filebuf@DU?$char_traits@D@std@@@std@@QEAAPEAV12@XZ 0000000140031660 f i CreditCard.obj
 0002:00018750       ?close@?$basic_ifstream@DU?$char_traits@D@std@@@std@@QEAAXXZ 0000000140031750 f i CreditCard.obj
 0002:00018810       ?compare@?$_Narrow_char_traits@DH@std@@SAHQEBD0_K@Z 0000000140031810 f i CreditCard.obj
 0002:00018890       ?count@?$duration@_JU?$ratio@$00$0JIJGIA@@std@@@chrono@std@@QEBA_JXZ 0000000140031890 f i CreditCard.obj
 0002:000188f0       ?createCreditCard@MasterCardFactory@payment@technical_services_layer@@UEAAPEAVCreditCard@23@AEAUCreditCardInfo@23@@Z 00000001400318f0 f i CreditCard.obj
 0002:000189d0       ?createCreditCard@VisaCardFactory@payment@technical_services_layer@@UEAAPEAVCreditCard@23@AEAUCreditCardInfo@23@@Z 00000001400319d0 f i CreditCard.obj
 0002:00018ab0       ?createFactory@CreditCardFactory@payment@technical_services_layer@@SAPEAV123@XZ 0000000140031ab0 f   CreditCard.obj
 0002:00018e60       ?data@?$basic_string@DU?$char_traits@D@std@@V?$allocator@D@2@@std@@QEAAPEADXZ 0000000140031e60 f i CreditCard.obj
 0002:00018ed0       ?data@?$basic_string@DU?$char_traits@D@std@@V?$allocator@D@2@@std@@QEBAPEBDXZ 0000000140031ed0 f i CreditCard.obj
 0002:00018f40       ?erase@?$basic_string@DU?$char_traits@D@std@@V?$allocator@D@2@@std@@QEAAAEAV12@_K@Z 0000000140031f40 f i CreditCard.obj
 0002:00018fe0       ?erase@?$basic_string@DU?$char_traits@D@std@@V?$allocator@D@2@@std@@QEAAAEAV12@_K_K@Z 0000000140031fe0 f i CreditCard.obj
 0002:00019160       ?failed@?$ostreambuf_iterator@DU?$char_traits@D@std@@@std@@QEBA_NXZ 0000000140032160 f i CreditCard.obj
 0002:000191c0       ?front@?$basic_string@DU?$char_traits@D@std@@V?$allocator@D@2@@std@@QEAAAEADXZ 00000001400321c0 f i CreditCard.obj
 0002:000192e0       ?imbue@?$basic_filebuf@DU?$char_traits@D@std@@@std@@MEAAXAEBVlocale@2@@Z 00000001400322e0 f i CreditCard.obj
 0002:00019360       ?is_open@?$basic_filebuf@DU?$char_traits@D@std@@@std@@QEBA_NXZ 0000000140032360 f i CreditCard.obj
 0002:000193f0       ?is_open@?$basic_ifstream@DU?$char_traits@D@std@@@std@@QEBA_NXZ 00000001400323f0 f i CreditCard.obj
 0002:00019460       ?make_payment@MasterCard@payment@technical_services_layer@@UEAA_NXZ 0000000140032460 f   CreditCard.obj
 0002:00019540       ?make_payment@VisaCard@payment@technical_services_layer@@UEAA_NXZ 0000000140032540 f   CreditCard.obj
 0002:00019620       ?not_eof@?$_Narrow_char_traits@DH@std@@SAHAEBH@Z 0000000140032620 f i CreditCard.obj
 0002:000196e0       ?now@system_clock@chrono@std@@SA?AV?$time_point@Usystem_clock@chrono@std@@V?$duration@_JU?$ratio@$00$0JIJGIA@@std@@@23@@23@XZ 00000001400326e0 f i CreditCard.obj
 0002:00019780       ?open@?$basic_filebuf@DU?$char_traits@D@std@@@std@@QEAAPEAV12@PEBDHH@Z 0000000140032780 f i CreditCard.obj
 0002:000198c0       ?overflow@?$basic_filebuf@DU?$char_traits@D@std@@@std@@MEAAHH@Z 00000001400328c0 f i CreditCard.obj
 0002:00019cb0       ?pbackfail@?$basic_filebuf@DU?$char_traits@D@std@@@std@@MEAAHH@Z 0000000140032cb0 f i CreditCard.obj
 0002:00019f30       ?push_back@?$basic_string@DU?$char_traits@D@std@@V?$allocator@D@2@@std@@QEAAXD@Z 0000000140032f30 f i CreditCard.obj
 0002:0001a070       ?release@?$unique_ptr@V_Facet_base@std@@U?$default_delete@V_Facet_base@std@@@2@@std@@QEAAPEAV_Facet_base@2@XZ 0000000140033070 f i CreditCard.obj
 0002:0001a0f0       ?seekoff@?$basic_filebuf@DU?$char_traits@D@std@@@std@@MEAA?AV?$fpos@U_Mbstatet@@@2@_JHH@Z 00000001400330f0 f i CreditCard.obj
 0002:0001a2e0       ?seekpos@?$basic_filebuf@DU?$char_traits@D@std@@@std@@MEAA?AV?$fpos@U_Mbstatet@@@2@V32@H@Z 00000001400332e0 f i CreditCard.obj
 0002:0001a470       ?setbuf@?$basic_filebuf@DU?$char_traits@D@std@@@std@@MEAAPEAV?$basic_streambuf@DU?$char_traits@D@std@@@2@PEAD_J@Z 0000000140033470 f i CreditCard.obj
 0002:0001a590       ?state@?$fpos@U_Mbstatet@@@std@@QEBA?AU_Mbstatet@@XZ 0000000140033590 f i CreditCard.obj
 0002:0001a610       ?sync@?$basic_filebuf@DU?$char_traits@D@std@@@std@@MEAAHXZ 0000000140033610 f i CreditCard.obj
 0002:0001a720       ?time_since_epoch@?$time_point@Usystem_clock@chrono@std@@V?$duration@_JU?$ratio@$00$0JIJGIA@@std@@@23@@chrono@std@@QEBA?AV?$duration@_JU?$ratio@$00$0JIJGIA@@std@@@23@XZ 0000000140033720 f i CreditCard.obj
 0002:0001a7a0       ?to_char_type@?$_Narrow_char_traits@DH@std@@SADAEBH@Z 00000001400337a0 f i CreditCard.obj
 0002:0001a800       ?to_int_type@?$_Narrow_char_traits@DH@std@@SAHAEBD@Z 0000000140033800 f i CreditCard.obj
 0002:0001a860       ?to_time_t@system_clock@chrono@std@@SA_JAEBV?$time_point@Usystem_clock@chrono@std@@V?$duration@_JU?$ratio@$00$0JIJGIA@@std@@@23@@23@@Z 0000000140033860 f i CreditCard.obj
 0002:0001a8f0       ?uflow@?$basic_filebuf@DU?$char_traits@D@std@@@std@@MEAAHXZ 00000001400338f0 f i CreditCard.obj
 0002:0001ad70       ?underflow@?$basic_filebuf@DU?$char_traits@D@std@@@std@@MEAAHXZ 0000000140033d70 f i CreditCard.obj
 0002:0001af00       ?xsgetn@?$basic_filebuf@DU?$char_traits@D@std@@@std@@MEAA_JPEAD_J@Z 0000000140033f00 f i CreditCard.obj
 0002:0001b210       ?xsputn@?$basic_filebuf@DU?$char_traits@D@std@@@std@@MEAA_JPEBD_J@Z 0000000140034210 f i CreditCard.obj
 0002:0001b470       ??$?0$$V@?$_Compressed_pair@V?$allocator@I@std@@V?$_Vector_val@U?$_Simple_types@I@std@@@2@$00@std@@QEAA@U_Zero_then_variadic_args_t@1@@Z 0000000140034470 f i Storage.obj
 0002:0001b4f0       ??$?0$$V@?$_Compressed_pair@V?$allocator@UScore@Persistence@technical_services_layer@@@std@@V?$_Vector_val@U?$_Simple_types@UScore@Persistence@technical_services_layer@@@std@@@2@$00@std@@QEAA@U_Zero_then_variadic_args_t@1@@Z 00000001400344f0 f i Storage.obj
 0002:0001b570       ??$?0I@?$allocator@U_Container_proxy@std@@@std@@QEAA@AEBV?$allocator@I@1@@Z 0000000140034570 f i Storage.obj
 0002:0001b5d0       ??$?0UScore@Persistence@technical_services_layer@@@?$_Alloc_temporary@V?$allocator@UScore@Persistence@technical_services_layer@@@std@@@std@@QEAA@AEAV?$allocator@UScore@Persistence@technical_services_layer@@@1@$$QEAUScore@Persistence@technical_services_layer@@@Z 00000001400345d0 f i Storage.obj
 0002:0001b6c0       ??$?0UScore@Persistence@technical_services_layer@@@?$allocator@U_Container_proxy@std@@@std@@QEAA@AEBV?$allocator@UScore@Persistence@technical_services_layer@@@1@@Z 00000001400346c0 f i Storage.obj
 0002:0001b720       ??$?0V?$allocator@I@std@@$$V@?$_Compressed_pair@V?$allocator@I@std@@V?$_Vector_val@U?$_Simple_types@I@std@@@2@$00@std@@QEAA@U_One_then_variadic_args_t@1@$$QEAV?$allocator@I@1@@Z 0000000140034720 f i Storage.obj
 0002:0001b7b0       ??$?0V?$allocator@UScore@Persistence@technical_services_layer@@@std@@$$V@?$_Compressed_pair@V?$allocator@UScore@Persistence@technical_services_layer@@@std@@V?$_Vector_val@U?$_Simple_types@UScore@Persistence@technical_services_layer@@@std@@@2@$00@std@@QEAA@U_One_then_variadic_args_t@1@$$QEAV?$allocator@UScore@Persistence@technical_services_layer@@@1@@Z 00000001400347b0 f i Storage.obj
 0002:0001b840       ??$?5DU?$char_traits@D@std@@V?$allocator@D@1@@std@@YAAEAV?$basic_istream@DU?$char_traits@D@std@@@0@$$QEAV10@AEAV?$basic_string@DU?$char_traits@D@std@@V?$allocator@D@2@@0@@Z 0000000140034840 f i Storage.obj
 0002:0001bcf0       ??$?5DU?$char_traits@D@std@@V?$allocator@D@1@@std@@YAAEAV?$basic_istream@DU?$char_traits@D@std@@@0@AEAV10@AEAV?$basic_string@DU?$char_traits@D@std@@V?$allocator@D@2@@0@@Z 0000000140034cf0 f i Storage.obj
 0002:0001bd70       ??$?8DU?$char_traits@D@std@@V?$allocator@D@1@@std@@YA_NAEBV?$basic_string@DU?$char_traits@D@std@@V?$allocator@D@2@@0@0@Z 0000000140034d70 f i Storage.obj
 0002:0001bde0       ??$_Copy_memmove@PEAIPEAI@std@@YAPEAIPEAI00@Z 0000000140034de0 f i Storage.obj
 0002:0001beb0       ??$_Destroy_range@V?$allocator@I@std@@@std@@YAXPEAIQEAIAEAV?$allocator@I@0@@Z 0000000140034eb0 f i Storage.obj
 0002:0001bf10       ??$_Destroy_range@V?$allocator@UScore@Persistence@technical_services_layer@@@std@@@std@@YAXPEAUScore@Persistence@technical_services_layer@@QEAU123@AEAV?$allocator@UScore@Persistence@technical_services_layer@@@0@@Z 0000000140034f10 f i Storage.obj
 0002:0001bfd0       ??$_Emplace_back@UScore@Persistence@technical_services_layer@@@?$_Uninitialized_backout_al@V?$allocator@UScore@Persistence@technical_services_layer@@@std@@@std@@QEAAX$$QEAUScore@Persistence@technical_services_layer@@@Z 0000000140034fd0 f i Storage.obj
 0002:0001c0c0       ??$_Emplace_back_with_unused_capacity@AEBI@?$vector@IV?$allocator@I@std@@@std@@AEAA@AEBI@Z 00000001400350c0 f i Storage.obj
 0002:0001c1f0       ??$_Emplace_back_with_unused_capacity@UScore@Persistence@technical_services_layer@@@?$vector@UScore@Persistence@technical_services_layer@@V?$allocator@UScore@Persistence@technical_services_layer@@@std@@@std@@AEAA@$$QEAUScore@Persistence@technical_services_layer@@@Z 00000001400351f0 f i Storage.obj
 0002:0001c320       ??$_Emplace_reallocate@AEBI@?$vector@IV?$allocator@I@std@@@std@@QEAAPEAIQEAIAEBI@Z 0000000140035320 f i Storage.obj
 0002:0001c640       ??$_Emplace_reallocate@UScore@Persistence@technical_services_layer@@@?$vector@UScore@Persistence@technical_services_layer@@V?$allocator@UScore@Persistence@technical_services_layer@@@std@@@std@@QEAAPEAUScore@Persistence@technical_services_layer@@QEAU234@$$QEAU234@@Z 0000000140035640 f i Storage.obj
 0002:0001c970       ??$_Get_size_of_n@$03@std@@YA_K_K@Z 0000000140035970 f i Storage.obj
 0002:0001ca10       ??$_Get_size_of_n@$0DA@@std@@YA_K_K@Z 0000000140035a10 f i Storage.obj
 0002:0001caa0       ??$_Get_unwrapped@I@std@@YAPEAIQEAI@Z 0000000140035aa0 f i Storage.obj
 0002:0001cb00       ??$_Get_unwrapped@UScore@Persistence@technical_services_layer@@@std@@YAPEAUScore@Persistence@technical_services_layer@@QEAU123@@Z 0000000140035b00 f i Storage.obj
 0002:0001cb60       ??$_Max_value@PEAD@std@@YAAEBQEADAEBQEAD0@Z 0000000140035b60 f i Storage.obj
 0002:0001cc20       ??$_Move_backward_unchecked@PEAUScore@Persistence@technical_services_layer@@PEAU123@@std@@YAPEAUScore@Persistence@technical_services_layer@@PEAU123@00@Z 0000000140035c20 f i Storage.obj
 0002:0001ccf0       ??$_Pocma@V?$allocator@D@std@@@std@@YAXAEAV?$allocator@D@0@0@Z 0000000140035cf0 f i Storage.obj
 0002:0001cd60       ??$_Unfancy@I@std@@YAPEAIPEAI@Z 0000000140035d60 f i Storage.obj
 0002:0001cdc0       ??$_Unfancy@UScore@Persistence@technical_services_layer@@@std@@YAPEAUScore@Persistence@technical_services_layer@@PEAU123@@Z 0000000140035dc0 f i Storage.obj
 0002:0001ce20       ??$_Uninitialized_move@PEAIV?$allocator@I@std@@@std@@YAPEAIQEAI0PEAIAEAV?$allocator@I@0@@Z 0000000140035e20 f i Storage.obj
 0002:0001cf00       ??$_Uninitialized_move@PEAUScore@Persistence@technical_services_layer@@V?$allocator@UScore@Persistence@technical_services_layer@@@std@@@std@@YAPEAUScore@Persistence@technical_services_layer@@QEAU123@0PEAU123@AEAV?$allocator@UScore@Persistence@technical_services_layer@@@0@@Z 0000000140035f00 f i Storage.obj
 0002:0001d060       ??$addressof@D@std@@YAPEADAEAD@Z 0000000140036060 f i Storage.obj
 0002:0001d0c0       ??$addressof@UScore@Persistence@technical_services_layer@@@std@@YAPEAUScore@Persistence@technical_services_layer@@AEAU123@@Z 00000001400360c0 f i Storage.obj
 0002:0001d120       ??$addressof@V?$_Vector_val@U?$_Simple_types@I@std@@@std@@@std@@YAPEAV?$_Vector_val@U?$_Simple_types@I@std@@@0@AEAV10@@Z 0000000140036120 f i Storage.obj
 0002:0001d180       ??$addressof@V?$_Vector_val@U?$_Simple_types@UScore@Persistence@technical_services_layer@@@std@@@std@@@std@@YAPEAV?$_Vector_val@U?$_Simple_types@UScore@Persistence@technical_services_layer@@@std@@@0@AEAV10@@Z 0000000140036180 f i Storage.obj
 0002:0001d1e0       ??$addressof@V?$basic_string@DU?$char_traits@D@std@@V?$allocator@D@2@@std@@@std@@YAPEAV?$basic_string@DU?$char_traits@D@std@@V?$allocator@D@2@@0@AEAV10@@Z 00000001400361e0 f i Storage.obj
 0002:0001d240       ??$addressof@V?$basic_stringbuf@DU?$char_traits@D@std@@V?$allocator@D@2@@std@@@std@@YAPEAV?$basic_stringbuf@DU?$char_traits@D@std@@V?$allocator@D@2@@0@AEAV10@@Z 0000000140036240 f i Storage.obj
 0002:0001d2a0       ??$construct@IAEBI@?$_Default_allocator_traits@V?$allocator@I@std@@@std@@SAXAEAV?$allocator@I@1@QEAIAEBI@Z 00000001400362a0 f i Storage.obj
 0002:0001d340       ??$construct@UScore@Persistence@technical_services_layer@@U123@@?$_Default_allocator_traits@V?$allocator@UScore@Persistence@technical_services_layer@@@std@@@std@@SAXAEAV?$allocator@UScore@Persistence@technical_services_layer@@@1@QEAUScore@Persistence@technical_services_layer@@$$QEAU345@@Z 0000000140036340 f i Storage.obj
 0002:0001d3f0       ??$destroy@UScore@Persistence@technical_services_layer@@@?$_Default_allocator_traits@V?$allocator@UScore@Persistence@technical_services_layer@@@std@@@std@@SAXAEAV?$allocator@UScore@Persistence@technical_services_layer@@@1@QEAUScore@Persistence@technical_services_layer@@@Z 00000001400363f0 f i Storage.obj
 0002:0001d460       ??$emplace@UScore@Persistence@technical_services_layer@@@?$vector@UScore@Persistence@technical_services_layer@@V?$allocator@UScore@Persistence@technical_services_layer@@@std@@@std@@QEAA?AV?$_Vector_iterator@V?$_Vector_val@U?$_Simple_types@UScore@Persistence@technical_services_layer@@@std@@@std@@@1@V?$_Vector_const_iterator@V?$_Vector_val@U?$_Simple_types@UScore@Persistence@technical_services_layer@@@std@@@std@@@1@$$QEAUScore@Persistence@technical_services_layer@@@Z 0000000140036460 f i Storage.obj
 0002:0001d840       ??$emplace_back@AEBI@?$vector@IV?$allocator@I@std@@@std@@QEAA@AEBI@Z 0000000140036840 f i Storage.obj
 0002:0001d940       ??$forward@AEBI@std@@YAAEBIAEBI@Z 0000000140036940 f i Storage.obj
 0002:0001d9a0       ??$forward@UScore@Persistence@technical_services_layer@@@std@@YA$$QEAUScore@Persistence@technical_services_layer@@AEAU123@@Z 00000001400369a0 f i Storage.obj
 0002:0001da00       ??$forward@V?$allocator@I@std@@@std@@YA$$QEAV?$allocator@I@0@AEAV10@@Z 0000000140036a00 f i Storage.obj
 0002:0001da60       ??$forward@V?$allocator@UScore@Persistence@technical_services_layer@@@std@@@std@@YA$$QEAV?$allocator@UScore@Persistence@technical_services_layer@@@0@AEAV10@@Z 0000000140036a60 f i Storage.obj
 0002:0001dac0       ??$min@H@std@@YAAEBHAEBH0@Z 0000000140036ac0 f i Storage.obj
 0002:0001dc00       ??$move@AEAUScore@Persistence@technical_services_layer@@@std@@YA$$QEAUScore@Persistence@technical_services_layer@@AEAU123@@Z 0000000140036c00 f i Storage.obj
 0002:0001dc60       ??$move@AEAV?$allocator@I@std@@@std@@YA$$QEAV?$allocator@I@0@AEAV10@@Z 0000000140036c60 f i Storage.obj
 0002:0001dcc0       ??$move@AEAV?$allocator@UScore@Persistence@technical_services_layer@@@std@@@std@@YA$$QEAV?$allocator@UScore@Persistence@technical_services_layer@@@0@AEAV10@@Z 0000000140036cc0 f i Storage.obj
 0002:0001dd20       ??$use_facet@V?$ctype@D@std@@@std@@YAAEBV?$ctype@D@0@AEBVlocale@0@@Z 0000000140036d20 f i Storage.obj
 0002:0001df10       ??0?$_Uninitialized_backout_al@V?$allocator@UScore@Persistence@technical_services_layer@@@std@@@std@@QEAA@PEAUScore@Persistence@technical_services_layer@@AEAV?$allocator@UScore@Persistence@technical_services_layer@@@1@@Z 0000000140036f10 f i Storage.obj
 0002:0001dfc0       ??0?$_Vector_const_iterator@V?$_Vector_val@U?$_Simple_types@I@std@@@std@@@std@@QEAA@AEBV01@@Z 0000000140036fc0 f i Storage.obj
 0002:0001e050       ??0?$_Vector_const_iterator@V?$_Vector_val@U?$_Simple_types@I@std@@@std@@@std@@QEAA@PEAIPEBU_Container_base12@1@@Z 0000000140037050 f i Storage.obj
 0002:0001e100       ??0?$_Vector_const_iterator@V?$_Vector_val@U?$_Simple_types@UScore@Persistence@technical_services_layer@@@std@@@std@@@std@@QEAA@$$QEAV01@@Z 0000000140037100 f i Storage.obj
 0002:0001e190       ??0?$_Vector_const_iterator@V?$_Vector_val@U?$_Simple_types@UScore@Persistence@technical_services_layer@@@std@@@std@@@std@@QEAA@AEBV01@@Z 0000000140037190 f i Storage.obj
 0002:0001e220       ??0?$_Vector_const_iterator@V?$_Vector_val@U?$_Simple_types@UScore@Persistence@technical_services_layer@@@std@@@std@@@std@@QEAA@PEAUScore@Persistence@technical_services_layer@@PEBU_Container_base12@1@@Z 0000000140037220 f i Storage.obj
 0002:0001e2d0       ??0?$_Vector_iterator@V?$_Vector_val@U?$_Simple_types@I@std@@@std@@@std@@QEAA@AEBV01@@Z 00000001400372d0 f i Storage.obj
 0002:0001e340       ??0?$_Vector_iterator@V?$_Vector_val@U?$_Simple_types@I@std@@@std@@@std@@QEAA@PEAIPEBU_Container_base12@1@@Z 0000000140037340 f i Storage.obj
 0002:0001e3d0       ??0?$_Vector_iterator@V?$_Vector_val@U?$_Simple_types@UScore@Persistence@technical_services_layer@@@std@@@std@@@std@@QEAA@PEAUScore@Persistence@technical_services_layer@@PEBU_Container_base12@1@@Z 00000001400373d0 f i Storage.obj
 0002:0001e460       ??0?$_Vector_val@U?$_Simple_types@I@std@@@std@@QEAA@XZ 0000000140037460 f i Storage.obj
 0002:0001e500       ??0?$_Vector_val@U?$_Simple_types@UScore@Persistence@technical_services_layer@@@std@@@std@@QEAA@XZ 0000000140037500 f i Storage.obj
 0002:0001e5a0       ??0?$allocator@I@std@@QEAA@XZ 00000001400375a0 f i Storage.obj
 0002:0001e600       ??0?$allocator@UScore@Persistence@technical_services_layer@@@std@@QEAA@XZ 0000000140037600 f i Storage.obj
 0002:0001e660       ??0?$basic_istringstream@DU?$char_traits@D@std@@V?$allocator@D@2@@std@@QEAA@AEBV?$basic_string@DU?$char_traits@D@std@@V?$allocator@D@2@@1@H@Z 0000000140037660 f i Storage.obj
 0002:0001e800       ??0?$basic_ofstream@DU?$char_traits@D@std@@@std@@QEAA@PEBDHH@Z 0000000140037800 f i Storage.obj
 0002:0001ea20       ??0?$basic_stringbuf@DU?$char_traits@D@std@@V?$allocator@D@2@@std@@QEAA@AEBV?$basic_string@DU?$char_traits@D@std@@V?$allocator@D@2@@1@H@Z 0000000140037a20 f i Storage.obj
 0002:0001eb40       ??0?$vector@IV?$allocator@I@std@@@std@@QEAA@$$QEAV01@@Z 0000000140037b40 f i Storage.obj
 0002:0001ec90       ??0?$vector@IV?$allocator@I@std@@@std@@QEAA@XZ 0000000140037c90 f i Storage.obj
 0002:0001ed60       ??0?$vector@UScore@Persistence@technical_services_layer@@V?$allocator@UScore@Persistence@technical_services_layer@@@std@@@std@@QEAA@$$QEAV01@@Z 0000000140037d60 f i Storage.obj
 0002:0001eeb0       ??0?$vector@UScore@Persistence@technical_services_layer@@V?$allocator@UScore@Persistence@technical_services_layer@@@std@@@std@@QEAA@XZ 0000000140037eb0 f i Storage.obj
 0002:0001ef80       ??0PersistenceHandler@Persistence@technical_services_layer@@QEAA@XZ 0000000140037f80 f i Storage.obj
 0002:0001eff0       ??0Score@Persistence@technical_services_layer@@QEAA@$$QEAU012@@Z 0000000140037ff0 f i Storage.obj
 0002:0001f090       ??0Storage@Persistence@technical_services_layer@@QEAA@XZ 0000000140038090 f   Storage.obj
 0002:0001f220       ??0UserCredentials@Persistence@technical_services_layer@@QEAA@$$QEAU012@@Z 0000000140038220 f i Storage.obj
 0002:0001f310       ??1?$_Alloc_temporary@V?$allocator@UScore@Persistence@technical_services_layer@@@std@@@std@@QEAA@XZ 0000000140038310 f i Storage.obj
 0002:0001f3c0       ??1?$_Uninitialized_backout_al@V?$allocator@UScore@Persistence@technical_services_layer@@@std@@@std@@QEAA@XZ 00000001400383c0 f i Storage.obj
 0002:0001f440       ??1?$_Vector_const_iterator@V?$_Vector_val@U?$_Simple_types@I@std@@@std@@@std@@QEAA@XZ 0000000140038440 f i Storage.obj
 0002:0001f490       ??1?$_Vector_const_iterator@V?$_Vector_val@U?$_Simple_types@UScore@Persistence@technical_services_layer@@@std@@@std@@@std@@QEAA@XZ 0000000140038490 f i Storage.obj
 0002:0001f4e0       ??1?$_Vector_iterator@V?$_Vector_val@U?$_Simple_types@I@std@@@std@@@std@@QEAA@XZ 00000001400384e0 f i Storage.obj
 0002:0001f530       ??1?$_Vector_iterator@V?$_Vector_val@U?$_Simple_types@UScore@Persistence@technical_services_layer@@@std@@@std@@@std@@QEAA@XZ 0000000140038530 f i Storage.obj
 0002:0001f580       ??1?$basic_istringstream@DU?$char_traits@D@std@@V?$allocator@D@2@@std@@UEAA@XZ 0000000140038580 f i Storage.obj
 0002:0001f680       ??1?$basic_ofstream@DU?$char_traits@D@std@@@std@@UEAA@XZ 0000000140038680 f i Storage.obj
 0002:0001f790       ??1?$basic_stringbuf@DU?$char_traits@D@std@@V?$allocator@D@2@@std@@UEAA@XZ 0000000140038790 f i Storage.obj
 0002:0001f820       ??1?$vector@IV?$allocator@I@std@@@std@@QEAA@XZ 0000000140038820 f i Storage.obj
 0002:0001f930       ??1?$vector@UScore@Persistence@technical_services_layer@@V?$allocator@UScore@Persistence@technical_services_layer@@@std@@@std@@QEAA@XZ 0000000140038930 f i Storage.obj
 0002:0001fa40       ??1PersistenceHandler@Persistence@technical_services_layer@@UEAA@XZ 0000000140038a40 f i Storage.obj
 0002:0001fab0       ??1Score@Persistence@technical_services_layer@@QEAA@XZ 0000000140038ab0 f i Storage.obj
 0002:0001fb10       ??1Storage@Persistence@technical_services_layer@@UEAA@XZ 0000000140038b10 f   Storage.obj
 0002:0001fc00       ??1UserCredentials@Persistence@technical_services_layer@@QEAA@XZ 0000000140038c00 f i Storage.obj
 0002:0001fc70       ??4?$basic_string@DU?$char_traits@D@std@@V?$allocator@D@2@@std@@QEAAAEAV01@$$QEAV01@@Z 0000000140038c70 f i Storage.obj
 0002:0001fd30       ??4Score@Persistence@technical_services_layer@@QEAAAEAU012@$$QEAU012@@Z 0000000140038d30 f i Storage.obj
 0002:0001fdc0       ??8?$_Vector_const_iterator@V?$_Vector_val@U?$_Simple_types@I@std@@@std@@@std@@QEBA_NAEBV01@@Z 0000000140038dc0 f i Storage.obj
 0002:0001fe70       ??9?$_Vector_const_iterator@V?$_Vector_val@U?$_Simple_types@I@std@@@std@@@std@@QEBA_NAEBV01@@Z 0000000140038e70 f i Storage.obj
 0002:0001ff10       ??D?$_Vector_const_iterator@V?$_Vector_val@U?$_Simple_types@I@std@@@std@@@std@@QEBAAEBIXZ 0000000140038f10 f i Storage.obj
 0002:00020100       ??D?$_Vector_iterator@V?$_Vector_val@U?$_Simple_types@I@std@@@std@@@std@@QEBAAEAIXZ 0000000140039100 f i Storage.obj
 0002:00020160       ??E?$_Vector_const_iterator@V?$_Vector_val@U?$_Simple_types@I@std@@@std@@@std@@QEAAAEAV01@XZ 0000000140039160 f i Storage.obj
 0002:00020350       ??E?$_Vector_iterator@V?$_Vector_val@U?$_Simple_types@I@std@@@std@@@std@@QEAAAEAV01@XZ 0000000140039350 f i Storage.obj
 0002:000203c0       ??G?$_Vector_iterator@V?$_Vector_val@U?$_Simple_types@I@std@@@std@@@std@@QEBA?AV01@_J@Z 00000001400393c0 f i Storage.obj
 0002:000204e0       ??Y?$_Vector_const_iterator@V?$_Vector_val@U?$_Simple_types@I@std@@@std@@@std@@QEAAAEAV01@_J@Z 00000001400394e0 f i Storage.obj
 0002:00020580       ??Z?$_Vector_const_iterator@V?$_Vector_val@U?$_Simple_types@I@std@@@std@@@std@@QEAAAEAV01@_J@Z 0000000140039580 f i Storage.obj
 0002:00020600       ??Z?$_Vector_iterator@V?$_Vector_val@U?$_Simple_types@I@std@@@std@@@std@@QEAAAEAV01@_J@Z 0000000140039600 f i Storage.obj
 0002:00020680       ??_D?$basic_istringstream@DU?$char_traits@D@std@@V?$allocator@D@2@@std@@QEAAXXZ 0000000140039680 f i Storage.obj
 0002:00020700       ??_D?$basic_ofstream@DU?$char_traits@D@std@@@std@@QEAAXXZ 0000000140039700 f i Storage.obj
 0002:00020778       ??_E?$basic_istringstream@DU?$char_traits@D@std@@V?$allocator@D@2@@std@@$4PPPPPPPM@A@EAAPEAXI@Z 0000000140039778 f i Storage.obj
 0002:00020788       ??_E?$basic_ofstream@DU?$char_traits@D@std@@@std@@$4PPPPPPPM@A@EAAPEAXI@Z 0000000140039788 f i Storage.obj
 0002:000207a0       ??_E?$basic_istringstream@DU?$char_traits@D@std@@V?$allocator@D@2@@std@@UEAAPEAXI@Z 00000001400397a0 f i Storage.obj
 0002:000207a0       ??_G?$basic_istringstream@DU?$char_traits@D@std@@V?$allocator@D@2@@std@@UEAAPEAXI@Z 00000001400397a0 f i Storage.obj
 0002:00020850       ??_E?$basic_ofstream@DU?$char_traits@D@std@@@std@@UEAAPEAXI@Z 0000000140039850 f i Storage.obj
 0002:00020850       ??_G?$basic_ofstream@DU?$char_traits@D@std@@@std@@UEAAPEAXI@Z 0000000140039850 f i Storage.obj
 0002:00020900       ??_E?$basic_stringbuf@DU?$char_traits@D@std@@V?$allocator@D@2@@std@@UEAAPEAXI@Z 0000000140039900 f i Storage.obj
 0002:00020900       ??_G?$basic_stringbuf@DU?$char_traits@D@std@@V?$allocator@D@2@@std@@UEAAPEAXI@Z 0000000140039900 f i Storage.obj
 0002:00020990       ??_GScore@Persistence@technical_services_layer@@QEAAPEAXI@Z 0000000140039990 f i Storage.obj
 0002:00020a20       ??_EStorage@Persistence@technical_services_layer@@UEAAPEAXI@Z 0000000140039a20 f i Storage.obj
 0002:00020a20       ??_GStorage@Persistence@technical_services_layer@@UEAAPEAXI@Z 0000000140039a20 f i Storage.obj
 0002:00020ab0       ?_Calculate_growth@?$vector@IV?$allocator@I@std@@@std@@AEBA_K_K@Z 0000000140039ab0 f i Storage.obj
 0002:00020bb0       ?_Calculate_growth@?$vector@UScore@Persistence@technical_services_layer@@V?$allocator@UScore@Persistence@technical_services_layer@@@std@@@std@@AEBA_K_K@Z 0000000140039bb0 f i Storage.obj
 0002:00020cb0       ?_Change_array@?$vector@IV?$allocator@I@std@@@std@@AEAAXQEAI_K1@Z 0000000140039cb0 f i Storage.obj
 0002:00020e50       ?_Change_array@?$vector@UScore@Persistence@technical_services_layer@@V?$allocator@UScore@Persistence@technical_services_layer@@@std@@@std@@AEAAXQEAUScore@Persistence@technical_services_layer@@_K1@Z 0000000140039e50 f i Storage.obj
 0002:00021000       ?_Compat@?$_Vector_const_iterator@V?$_Vector_val@U?$_Simple_types@I@std@@@std@@@std@@QEBAXAEBV12@@Z 000000014003a000 f i Storage.obj
 0002:00021120       ?_Destroy@?$vector@IV?$allocator@I@std@@@std@@AEAAXPEAI0@Z 000000014003a120 f i Storage.obj
 0002:000211b0       ?_Destroy@?$vector@UScore@Persistence@technical_services_layer@@V?$allocator@UScore@Persistence@technical_services_layer@@@std@@@std@@AEAAXPEAUScore@Persistence@technical_services_layer@@0@Z 000000014003a1b0 f i Storage.obj
 0002:00021240       ?_Equal@?$basic_string@DU?$char_traits@D@std@@V?$allocator@D@2@@std@@QEBA_NAEBV12@@Z 000000014003a240 f i Storage.obj
 0002:00021330       ?_Get_first@?$_Compressed_pair@V?$allocator@I@std@@V?$_Vector_val@U?$_Simple_types@I@std@@@2@$00@std@@QEAAAEAV?$allocator@I@2@XZ 000000014003a330 f i Storage.obj
 0002:00021390       ?_Get_first@?$_Compressed_pair@V?$allocator@I@std@@V?$_Vector_val@U?$_Simple_types@I@std@@@2@$00@std@@QEBAAEBV?$allocator@I@2@XZ 000000014003a390 f i Storage.obj
 0002:000213f0       ?_Get_first@?$_Compressed_pair@V?$allocator@UScore@Persistence@technical_services_layer@@@std@@V?$_Vector_val@U?$_Simple_types@UScore@Persistence@technical_services_layer@@@std@@@2@$00@std@@QEAAAEAV?$allocator@UScore@Persistence@technical_services_layer@@@2@XZ 000000014003a3f0 f i Storage.obj
 0002:00021450       ?_Get_first@?$_Compressed_pair@V?$allocator@UScore@Persistence@technical_services_layer@@@std@@V?$_Vector_val@U?$_Simple_types@UScore@Persistence@technical_services_layer@@@std@@@2@$00@std@@QEBAAEBV?$allocator@UScore@Persistence@technical_services_layer@@@2@XZ 000000014003a450 f i Storage.obj
 0002:000214b0       ?_Getal@?$vector@IV?$allocator@I@std@@@std@@AEAAAEAV?$allocator@I@2@XZ 000000014003a4b0 f i Storage.obj
 0002:00021520       ?_Getal@?$vector@IV?$allocator@I@std@@@std@@AEBAAEBV?$allocator@I@2@XZ 000000014003a520 f i Storage.obj
 0002:00021590       ?_Getal@?$vector@UScore@Persistence@technical_services_layer@@V?$allocator@UScore@Persistence@technical_services_layer@@@std@@@std@@AEAAAEAV?$allocator@UScore@Persistence@technical_services_layer@@@2@XZ 000000014003a590 f i Storage.obj
 0002:00021600       ?_Getal@?$vector@UScore@Persistence@technical_services_layer@@V?$allocator@UScore@Persistence@technical_services_layer@@@std@@@std@@AEBAAEBV?$allocator@UScore@Persistence@technical_services_layer@@@2@XZ 000000014003a600 f i Storage.obj
 0002:00021670       ?_Getstate@?$basic_stringbuf@DU?$char_traits@D@std@@V?$allocator@D@2@@std@@CAHH@Z 000000014003a670 f i Storage.obj
 0002:00021740       ?_Init@?$basic_stringbuf@DU?$char_traits@D@std@@V?$allocator@D@2@@std@@IEAAXPEBD_KH@Z 000000014003a740 f i Storage.obj
 0002:00021990       ?_Make_iterator@?$vector@UScore@Persistence@technical_services_layer@@V?$allocator@UScore@Persistence@technical_services_layer@@@std@@@std@@AEAA?AV?$_Vector_iterator@V?$_Vector_val@U?$_Simple_types@UScore@Persistence@technical_services_layer@@@std@@@std@@@2@QEAUScore@Persistence@technical_services_layer@@@Z 000000014003a990 f i Storage.obj
 0002:00021a30       ?_Move_assign@?$basic_string@DU?$char_traits@D@std@@V?$allocator@D@2@@std@@AEAAXAEAV12@U_Equal_allocators@2@@Z 000000014003aa30 f i Storage.obj
 0002:00021b30       ?_Move_construct@?$vector@IV?$allocator@I@std@@@std@@AEAAXAEAV12@U?$integral_constant@_N$00@2@@Z 000000014003ab30 f i Storage.obj
 0002:00021bc0       ?_Move_construct@?$vector@UScore@Persistence@technical_services_layer@@V?$allocator@UScore@Persistence@technical_services_layer@@@std@@@std@@AEAAXAEAV12@U?$integral_constant@_N$00@2@@Z 000000014003abc0 f i Storage.obj
 0002:00021c50       ?_Orphan_range@?$vector@IV?$allocator@I@std@@@std@@AEBAXPEAI0@Z 000000014003ac50 f i Storage.obj
 0002:00021da0       ?_Orphan_range@?$vector@UScore@Persistence@technical_services_layer@@V?$allocator@UScore@Persistence@technical_services_layer@@@std@@@std@@AEBAXPEAUScore@Persistence@technical_services_layer@@0@Z 000000014003ada0 f i Storage.obj
 0002:00021ef0       ?_Release@?$_Uninitialized_backout_al@V?$allocator@UScore@Persistence@technical_services_layer@@@std@@@std@@QEAAPEAUScore@Persistence@technical_services_layer@@XZ 000000014003aef0 f i Storage.obj
 0002:00021f70       ?_Take_contents@?$_Vector_val@U?$_Simple_types@I@std@@@std@@QEAAXAEAV12@@Z 000000014003af70 f i Storage.obj
 0002:00022070       ?_Take_contents@?$_Vector_val@U?$_Simple_types@UScore@Persistence@technical_services_layer@@@std@@@std@@QEAAXAEAV12@@Z 000000014003b070 f i Storage.obj
 0002:00022170       ?_Tidy@?$basic_stringbuf@DU?$char_traits@D@std@@V?$allocator@D@2@@std@@IEAAXXZ 000000014003b170 f i Storage.obj
 0002:00022320       ?_Tidy@?$vector@IV?$allocator@I@std@@@std@@AEAAXXZ 000000014003b320 f i Storage.obj
 0002:00022490       ?_Tidy@?$vector@UScore@Persistence@technical_services_layer@@V?$allocator@UScore@Persistence@technical_services_layer@@@std@@@std@@AEAAXXZ 000000014003b490 f i Storage.obj
 0002:00022600       ?_Umove@?$vector@IV?$allocator@I@std@@@std@@AEAAPEAIPEAI00@Z 000000014003b600 f i Storage.obj
 0002:000226a0       ?_Umove@?$vector@UScore@Persistence@technical_services_layer@@V?$allocator@UScore@Persistence@technical_services_layer@@@std@@@std@@AEAAPEAUScore@Persistence@technical_services_layer@@PEAU345@00@Z 000000014003b6a0 f i Storage.obj
 0002:00022740       ?_Umove_if_noexcept1@?$vector@IV?$allocator@I@std@@@std@@AEAAXPEAI00U?$integral_constant@_N$00@2@@Z 000000014003b740 f i Storage.obj
 0002:000227e0       ?_Umove_if_noexcept1@?$vector@UScore@Persistence@technical_services_layer@@V?$allocator@UScore@Persistence@technical_services_layer@@@std@@@std@@AEAAXPEAUScore@Persistence@technical_services_layer@@00U?$integral_constant@_N$00@2@@Z 000000014003b7e0 f i Storage.obj
 0002:00022880       ?_Umove_if_noexcept@?$vector@IV?$allocator@I@std@@@std@@AEAAXPEAI00@Z 000000014003b880 f i Storage.obj
 0002:00022940       ?_Umove_if_noexcept@?$vector@UScore@Persistence@technical_services_layer@@V?$allocator@UScore@Persistence@technical_services_layer@@@std@@@std@@AEAAXPEAUScore@Persistence@technical_services_layer@@00@Z 000000014003b940 f i Storage.obj
 0002:00022a00       ?_Verify_offset@?$_Vector_const_iterator@V?$_Vector_val@U?$_Simple_types@I@std@@@std@@@std@@QEBAX_J@Z 000000014003ba00 f i Storage.obj
 0002:00022cd0       ?_Xlength@?$vector@IV?$allocator@I@std@@@std@@CAXXZ 000000014003bcd0 f i Storage.obj
 0002:00022d20       ?_Xlength@?$vector@UScore@Persistence@technical_services_layer@@V?$allocator@UScore@Persistence@technical_services_layer@@@std@@@std@@CAXXZ 000000014003bd20 f i Storage.obj
 0002:00022d70       ?__autoclassinit2@?$_Uninitialized_backout_al@V?$allocator@UScore@Persistence@technical_services_layer@@@std@@@std@@QEAAX_K@Z 000000014003bd70 f i Storage.obj
 0002:00022dd0       ?__autoclassinit2@?$_Vector_iterator@V?$_Vector_val@U?$_Simple_types@I@std@@@std@@@std@@QEAAX_K@Z 000000014003bdd0 f i Storage.obj
 0002:00022e30       ?__autoclassinit2@?$basic_istringstream@DU?$char_traits@D@std@@V?$allocator@D@2@@std@@QEAAX_K@Z 000000014003be30 f i Storage.obj
 0002:00022e90       ?__autoclassinit2@?$basic_ofstream@DU?$char_traits@D@std@@@std@@QEAAX_K@Z 000000014003be90 f i Storage.obj
 0002:00022ef0       ?__autoclassinit2@?$vector@IV?$allocator@I@std@@@std@@QEAAX_K@Z 000000014003bef0 f i Storage.obj
 0002:00022f50       ?__autoclassinit2@?$vector@UScore@Persistence@technical_services_layer@@V?$allocator@UScore@Persistence@technical_services_layer@@@std@@@std@@QEAAX_K@Z 000000014003bf50 f i Storage.obj
 0002:00022fb0       ?addPlayerScore@Storage@Persistence@technical_services_layer@@UEAAXAEBV?$basic_string@DU?$char_traits@D@std@@V?$allocator@D@2@@std@@I@Z 000000014003bfb0 f   Storage.obj
 0002:00023170       ?adminLogin@Storage@Persistence@technical_services_layer@@UEAA?AUUserCredentials@23@AEBV?$basic_string@DU?$char_traits@D@std@@V?$allocator@D@2@@std@@@Z 000000014003c170 f   Storage.obj
 0002:00023350       ?allocate@?$allocator@I@std@@QEAAPEAI_K@Z 000000014003c350 f i Storage.obj
 0002:000233c0       ?allocate@?$allocator@UScore@Persistence@technical_services_layer@@@std@@QEAAPEAUScore@Persistence@technical_services_layer@@_K@Z 000000014003c3c0 f i Storage.obj
 0002:00023430       ?capacity@?$vector@IV?$allocator@I@std@@@std@@QEBA_KXZ 000000014003c430 f i Storage.obj
 0002:000234b0       ?capacity@?$vector@UScore@Persistence@technical_services_layer@@V?$allocator@UScore@Persistence@technical_services_layer@@@std@@@std@@QEBA_KXZ 000000014003c4b0 f i Storage.obj
 0002:00023540       ?changePlayerGamesLeft@Storage@Persistence@technical_services_layer@@UEAAXAEBV?$basic_string@DU?$char_traits@D@std@@V?$allocator@D@2@@std@@I@Z 000000014003c540 f   Storage.obj
 0002:00023b70       ?close@?$basic_ofstream@DU?$char_traits@D@std@@@std@@QEAAXXZ 000000014003cb70 f i Storage.obj
 0002:00023c30       ?deallocate@?$allocator@I@std@@QEAAXQEAI_K@Z 000000014003cc30 f i Storage.obj
 0002:00023cb0       ?deallocate@?$allocator@UScore@Persistence@technical_services_layer@@@std@@QEAAXQEAUScore@Persistence@technical_services_layer@@_K@Z 000000014003ccb0 f i Storage.obj
 0002:00023d30       ?end@?$vector@IV?$allocator@I@std@@@std@@QEAA?AV?$_Vector_iterator@V?$_Vector_val@U?$_Simple_types@I@std@@@std@@@2@XZ 000000014003cd30 f i Storage.obj
 0002:00023df0       ?end@?$vector@UScore@Persistence@technical_services_layer@@V?$allocator@UScore@Persistence@technical_services_layer@@@std@@@std@@QEAA?AV?$_Vector_iterator@V?$_Vector_val@U?$_Simple_types@UScore@Persistence@technical_services_layer@@@std@@@std@@@2@XZ 000000014003cdf0 f i Storage.obj
 0002:00023eb0       ?eq@?$_Narrow_char_traits@DH@std@@SA_NAEBD0@Z 000000014003ceb0 f i Storage.obj
 0002:00023f50       ?getMaxScores@Storage@Persistence@technical_services_layer@@UEAA?AV?$vector@UScore@Persistence@technical_services_layer@@V?$allocator@UScore@Persistence@technical_services_layer@@@std@@@std@@XZ 000000014003cf50 f   Storage.obj
 0002:00024350       ?getPlayerCredentials@Storage@Persistence@technical_services_layer@@UEAA?AUUserCredentials@23@AEBV?$basic_string@DU?$char_traits@D@std@@V?$allocator@D@2@@std@@@Z 000000014003d350 f   Storage.obj
 0002:000247e0       ?getPlayerPrevScore@Storage@Persistence@technical_services_layer@@UEAA?AV?$vector@IV?$allocator@I@std@@@std@@V?$basic_string@DU?$char_traits@D@std@@V?$allocator@D@2@@5@@Z 000000014003d7e0 f   Storage.obj
 0002:00024d30       ?get_allocator@?$basic_string@DU?$char_traits@D@std@@V?$allocator@D@2@@std@@QEBA?AV?$allocator@D@2@XZ 000000014003dd30 f i Storage.obj
 0002:00024da0       ?insert@?$vector@UScore@Persistence@technical_services_layer@@V?$allocator@UScore@Persistence@technical_services_layer@@@std@@@std@@QEAA?AV?$_Vector_iterator@V?$_Vector_val@U?$_Simple_types@UScore@Persistence@technical_services_layer@@@std@@@std@@@2@V?$_Vector_const_iterator@V?$_Vector_val@U?$_Simple_types@UScore@Persistence@technical_services_layer@@@std@@@std@@@2@$$QEAUScore@Persistence@technical_services_layer@@@Z 000000014003dda0 f i Storage.obj
 0002:00024ec0       ?is_open@?$basic_ofstream@DU?$char_traits@D@std@@@std@@QEBA_NXZ 000000014003dec0 f i Storage.obj
 0002:00024f30       ?max_size@?$_Default_allocator_traits@V?$allocator@I@std@@@std@@SA_KAEBV?$allocator@I@2@@Z 000000014003df30 f i Storage.obj
 0002:00024f90       ?max_size@?$_Default_allocator_traits@V?$allocator@UScore@Persistence@technical_services_layer@@@std@@@std@@SA_KAEBV?$allocator@UScore@Persistence@technical_services_layer@@@2@@Z 000000014003df90 f i Storage.obj
 0002:00024ff0       ?max_size@?$vector@IV?$allocator@I@std@@@std@@QEBA_KXZ 000000014003dff0 f i Storage.obj
 0002:000250a0       ?max_size@?$vector@UScore@Persistence@technical_services_layer@@V?$allocator@UScore@Persistence@technical_services_layer@@@std@@@std@@QEBA_KXZ 000000014003e0a0 f i Storage.obj
 0002:00025150       ?overflow@?$basic_stringbuf@DU?$char_traits@D@std@@V?$allocator@D@2@@std@@MEAAHH@Z 000000014003e150 f i Storage.obj
 0002:00025570       ?pbackfail@?$basic_stringbuf@DU?$char_traits@D@std@@V?$allocator@D@2@@std@@MEAAHH@Z 000000014003e570 f i Storage.obj
 0002:00025720       ?pointer_to@?$pointer_traits@PEAD@std@@SAPEADAEAD@Z 000000014003e720 f i Storage.obj
 0002:00025790       ?push_back@?$vector@IV?$allocator@I@std@@@std@@QEAAXAEBI@Z 000000014003e790 f i Storage.obj
 0002:00025800       ?registerPlayer@Storage@Persistence@technical_services_layer@@UEAA_NUUserCredentials@23@@Z 000000014003e800 f   Storage.obj
 0002:00025c50       ?seekoff@?$basic_stringbuf@DU?$char_traits@D@std@@V?$allocator@D@2@@std@@MEAA?AV?$fpos@U_Mbstatet@@@2@_JHH@Z 000000014003ec50 f i Storage.obj
 0002:00026000       ?seekpos@?$basic_stringbuf@DU?$char_traits@D@std@@V?$allocator@D@2@@std@@MEAA?AV?$fpos@U_Mbstatet@@@2@V32@H@Z 000000014003f000 f i Storage.obj
 0002:00026270       ?setPlayerMaxScore@Storage@Persistence@technical_services_layer@@UEAAXAEBV?$basic_string@DU?$char_traits@D@std@@V?$allocator@D@2@@std@@I@Z 000000014003f270 f   Storage.obj
 0002:000268c0       ?size@?$vector@IV?$allocator@I@std@@@std@@QEBA_KXZ 000000014003f8c0 f i Storage.obj
 0002:00026940       ?underflow@?$basic_stringbuf@DU?$char_traits@D@std@@V?$allocator@D@2@@std@@MEAAHXZ 000000014003f940 f i Storage.obj
 0002:00026b30       ?validateUsername@Storage@Persistence@technical_services_layer@@UEAA_NAEBV?$basic_string@DU?$char_traits@D@std@@V?$allocator@D@2@@std@@@Z 000000014003fb30 f   Storage.obj
 0002:00026ed0       ?ChangeDirection@Controller@controller@ui_layer@@AEBAXAEAVSnake@@W4Direction@4@1@Z 000000014003fed0 f   Controller.obj
 0002:00026f70       ?HandleInput@Controller@controller@ui_layer@@QEBAXAEA_NAEAVSnake@@@Z 000000014003ff70 f   Controller.obj
 0002:00027140       ??$?0AEAPEAUScore@Persistence@technical_services_layer@@AEAPEAU012@$0A@@?$pair@PEAUScore@Persistence@technical_services_layer@@PEAU123@@std@@QEAA@AEAPEAUScore@Persistence@technical_services_layer@@0@Z 0000000140040140 f i View.obj
 0002:000271f0       ??$?9DU?$char_traits@D@std@@V?$allocator@D@1@@std@@YA_NAEBV?$basic_string@DU?$char_traits@D@std@@V?$allocator@D@2@@0@0@Z 00000001400401f0 f i View.obj
 0002:00027290       ??$_Adl_verify_range@V?$_Vector_iterator@V?$_Vector_val@U?$_Simple_types@UScore@Persistence@technical_services_layer@@@std@@@std@@@std@@V12@@std@@YAXAEBV?$_Vector_iterator@V?$_Vector_val@U?$_Simple_types@UScore@Persistence@technical_services_layer@@@std@@@std@@@0@0@Z 0000000140040290 f i View.obj
 0002:00027300       ??$_Debug_lt_pred@AEAP6A_NAEAUScore@Persistence@technical_services_layer@@0@ZAEAU123@AEAU123@$0A@@std@@YA_NAEAP6A_NAEAUScore@Persistence@technical_services_layer@@0@Z00@Z 0000000140040300 f i View.obj
 0002:00027470       ??$_Get_unwrapped@V?$_Vector_iterator@V?$_Vector_val@U?$_Simple_types@UScore@Persistence@technical_services_layer@@@std@@@std@@@std@@$0A@@std@@YA@AEBV?$_Vector_iterator@V?$_Vector_val@U?$_Simple_types@UScore@Persistence@technical_services_layer@@@std@@@std@@@0@@Z 0000000140040470 f i View.obj
 0002:000274d0       ??$_Guess_median_unchecked@PEAUScore@Persistence@technical_services_layer@@P6A_NAEAU123@0@Z@std@@YAXPEAUScore@Persistence@technical_services_layer@@00P6A_NAEAU123@1@Z@Z 00000001400404d0 f i View.obj
 0002:000276e0       ??$_Insertion_sort_unchecked@PEAUScore@Persistence@technical_services_layer@@P6A_NAEAU123@0@Z@std@@YAPEAUScore@Persistence@technical_services_layer@@PEAU123@QEAU123@P6A_NAEAU123@2@Z@Z 00000001400406e0 f i View.obj
 0002:00027910       ??$_Make_heap_unchecked@PEAUScore@Persistence@technical_services_layer@@P6A_NAEAU123@0@Z@std@@YAXPEAUScore@Persistence@technical_services_layer@@0P6A_NAEAU123@1@Z@Z 0000000140040910 f i View.obj
 0002:00027a70       ??$_Med3_unchecked@PEAUScore@Persistence@technical_services_layer@@P6A_NAEAU123@0@Z@std@@YAXPEAUScore@Persistence@technical_services_layer@@00P6A_NAEAU123@1@Z@Z 0000000140040a70 f i View.obj
 0002:00027ba0       ??$_Partition_by_median_guess_unchecked@PEAUScore@Persistence@technical_services_layer@@P6A_NAEAU123@0@Z@std@@YA?AU?$pair@PEAUScore@Persistence@technical_services_layer@@PEAU123@@0@PEAUScore@Persistence@technical_services_layer@@0P6A_NAEAU234@1@Z@Z 0000000140040ba0 f i View.obj
 0002:00028100       ??$_Pass_fn@P6A_NAEAUScore@Persistence@technical_services_layer@@0@Z$0A@@std@@YAP6A_NAEAUScore@Persistence@technical_services_layer@@0@ZP6A_N00@Z@Z 0000000140041100 f i View.obj
 0002:00028160       ??$_Pocma@V?$allocator@I@std@@@std@@YAXAEAV?$allocator@I@0@0@Z 0000000140041160 f i View.obj
 0002:000281d0       ??$_Pocma@V?$allocator@UScore@Persistence@technical_services_layer@@@std@@@std@@YAXAEAV?$allocator@UScore@Persistence@technical_services_layer@@@0@0@Z 00000001400411d0 f i View.obj
 0002:00028240       ??$_Pop_heap_hole_by_index@PEAUScore@Persistence@technical_services_layer@@U123@P6A_NAEAU123@0@Z@std@@YAXPEAUScore@Persistence@technical_services_layer@@_J1$$QEAU123@P6A_NAEAU123@3@Z@Z 0000000140041240 f i View.obj
 0002:000284a0       ??$_Pop_heap_hole_unchecked@PEAUScore@Persistence@technical_services_layer@@U123@P6A_NAEAU123@0@Z@std@@YAXPEAUScore@Persistence@technical_services_layer@@00$$QEAU123@P6A_NAEAU123@2@Z@Z 00000001400414a0 f i View.obj
 0002:000285a0       ??$_Pop_heap_unchecked@PEAUScore@Persistence@technical_services_layer@@P6A_NAEAU123@0@Z@std@@YAXPEAUScore@Persistence@technical_services_layer@@0P6A_NAEAU123@1@Z@Z 00000001400415a0 f i View.obj
 0002:000286f0       ??$_Push_heap_by_index@PEAUScore@Persistence@technical_services_layer@@U123@P6A_NAEAU123@0@Z@std@@YAXPEAUScore@Persistence@technical_services_layer@@_J1$$QEAU123@P6A_NAEAU123@3@Z@Z 00000001400416f0 f i View.obj
 0002:00028860       ??$_Sort_heap_unchecked@PEAUScore@Persistence@technical_services_layer@@P6A_NAEAU123@0@Z@std@@YAXPEAUScore@Persistence@technical_services_layer@@0P6A_NAEAU123@1@Z@Z 0000000140041860 f i View.obj
 0002:00028930       ??$_Sort_unchecked@PEAUScore@Persistence@technical_services_layer@@P6A_NAEAU123@0@Z@std@@YAXPEAUScore@Persistence@technical_services_layer@@0_JP6A_NAEAU123@2@Z@Z 0000000140041930 f i View.obj
 0002:00028bb0       ??$addressof@V?$vector@IV?$allocator@I@std@@@std@@@std@@YAPEAV?$vector@IV?$allocator@I@std@@@0@AEAV10@@Z 0000000140041bb0 f i View.obj
 0002:00028c10       ??$addressof@V?$vector@UScore@Persistence@technical_services_layer@@V?$allocator@UScore@Persistence@technical_services_layer@@@std@@@std@@@std@@YAPEAV?$vector@UScore@Persistence@technical_services_layer@@V?$allocator@UScore@Persistence@technical_services_layer@@@std@@@0@AEAV10@@Z 0000000140041c10 f i View.obj
 0002:00028c70       ??$forward@AEAPEAUScore@Persistence@technical_services_layer@@@std@@YAAEAPEAUScore@Persistence@technical_services_layer@@AEAPEAU123@@Z 0000000140041c70 f i View.obj
 0002:00028cd0       ??$iter_swap@PEAUScore@Persistence@technical_services_layer@@PEAU123@@std@@YAXPEAUScore@Persistence@technical_services_layer@@0@Z 0000000140041cd0 f i View.obj
 0002:00028d40       ??$sort@V?$_Vector_iterator@V?$_Vector_val@U?$_Simple_types@UScore@Persistence@technical_services_layer@@@std@@@std@@@std@@P6A_NAEAUScore@Persistence@technical_services_layer@@0@Z@std@@YAXV?$_Vector_iterator@V?$_Vector_val@U?$_Simple_types@UScore@Persistence@technical_services_layer@@@std@@@std@@@0@0P6A_NAEAUScore@Persistence@technical_services_layer@@1@Z@Z 0000000140041d40 f i View.obj
 0002:00028e60       ??$sprintf_s@$0BE@@@YAHAEAY0BE@DPEBDZZ 0000000140041e60 f i View.obj
 0002:00028f40       ??$swap@UScore@Persistence@technical_services_layer@@X@std@@YAXAEAUScore@Persistence@technical_services_layer@@0@Z 0000000140041f40 f i View.obj
 0002:00029050       ??0CreditCardInfo@payment@technical_services_layer@@QEAA@XZ 0000000140042050 f i View.obj
 0002:000290e0       ??0UserCredentials@Persistence@technical_services_layer@@QEAA@AEBU012@@Z 00000001400420e0 f i View.obj
 0002:000291d0       ??0UserCredentials@Persistence@technical_services_layer@@QEAA@XZ 00000001400421d0 f i View.obj
 0002:00029250       ??0View@view@ui_layer@@QEAA@XZ 0000000140042250 f   View.obj
 0002:000294b0       ??0ViewHandler@view@ui_layer@@QEAA@XZ 00000001400424b0 f i View.obj
 0002:00029520       ??1Game@@QEAA@XZ           0000000140042520 f i View.obj
 0002:00029580       ??1View@view@ui_layer@@UEAA@XZ 0000000140042580 f   View.obj
 0002:00029670       ??1ViewHandler@view@ui_layer@@UEAA@XZ 0000000140042670 f i View.obj
 0002:000296e0       ??4?$vector@IV?$allocator@I@std@@@std@@QEAAAEAV01@$$QEAV01@@Z 00000001400426e0 f i View.obj
 0002:000297a0       ??4?$vector@UScore@Persistence@technical_services_layer@@V?$allocator@UScore@Persistence@technical_services_layer@@@std@@@std@@QEAAAEAV01@$$QEAV01@@Z 00000001400427a0 f i View.obj
 0002:00029860       ??4UserCredentials@Persistence@technical_services_layer@@QEAAAEAU012@$$QEAU012@@Z 0000000140042860 f i View.obj
 0002:00029930       ??8?$_Vector_const_iterator@V?$_Vector_val@U?$_Simple_types@UScore@Persistence@technical_services_layer@@@std@@@std@@@std@@QEBA_NAEBV01@@Z 0000000140042930 f i View.obj
 0002:000299e0       ??9?$_Vector_const_iterator@V?$_Vector_val@U?$_Simple_types@UScore@Persistence@technical_services_layer@@@std@@@std@@@std@@QEBA_NAEBV01@@Z 00000001400429e0 f i View.obj
 0002:00029a80       ??D?$_Vector_const_iterator@V?$_Vector_val@U?$_Simple_types@UScore@Persistence@technical_services_layer@@@std@@@std@@@std@@QEBAAEBUScore@Persistence@technical_services_layer@@XZ 0000000140042a80 f i View.obj
 0002:00029c70       ??D?$_Vector_iterator@V?$_Vector_val@U?$_Simple_types@UScore@Persistence@technical_services_layer@@@std@@@std@@@std@@QEBAAEAUScore@Persistence@technical_services_layer@@XZ 0000000140042c70 f i View.obj
 0002:00029cd0       ??E?$_Vector_const_iterator@V?$_Vector_val@U?$_Simple_types@UScore@Persistence@technical_services_layer@@@std@@@std@@@std@@QEAAAEAV01@XZ 0000000140042cd0 f i View.obj
 0002:00029ec0       ??E?$_Vector_iterator@V?$_Vector_val@U?$_Simple_types@UScore@Persistence@technical_services_layer@@@std@@@std@@@std@@QEAAAEAV01@XZ 0000000140042ec0 f i View.obj
 0002:00029f30       ??_EView@view@ui_layer@@UEAAPEAXI@Z 0000000140042f30 f i View.obj
 0002:00029f30       ??_GView@view@ui_layer@@UEAAPEAXI@Z 0000000140042f30 f i View.obj
 0002:00029fc0       ?_Compat@?$_Vector_const_iterator@V?$_Vector_val@U?$_Simple_types@UScore@Persistence@technical_services_layer@@@std@@@std@@@std@@QEBAXAEBV12@@Z 0000000140042fc0 f i View.obj
 0002:0002a0e0       ?_Move_assign@?$vector@IV?$allocator@I@std@@@std@@AEAAXAEAV12@U_Equal_allocators@2@@Z 00000001400430e0 f i View.obj
 0002:0002a1d0       ?_Move_assign@?$vector@UScore@Persistence@technical_services_layer@@V?$allocator@UScore@Persistence@technical_services_layer@@@std@@@std@@AEAAXAEAV12@U_Equal_allocators@2@@Z 00000001400431d0 f i View.obj
 0002:0002a2c0       ?_Unwrapped@?$_Vector_iterator@V?$_Vector_val@U?$_Simple_types@UScore@Persistence@technical_services_layer@@@std@@@std@@@std@@QEBAPEAUScore@Persistence@technical_services_layer@@XZ 00000001400432c0 f i View.obj
 0002:0002a330       ?_Verify_range@std@@YAXAEBV?$_Vector_const_iterator@V?$_Vector_val@U?$_Simple_types@UScore@Persistence@technical_services_layer@@@std@@@std@@@1@0@Z 0000000140043330 f i View.obj
 0002:0002a510       ?__autoclassinit2@?$_Vector_iterator@V?$_Vector_val@U?$_Simple_types@UScore@Persistence@technical_services_layer@@@std@@@std@@@std@@QEAAX_K@Z 0000000140043510 f i View.obj
 0002:0002a570       ?__autoclassinit2@Game@@QEAAX_K@Z 0000000140043570 f i View.obj
 0002:0002a5d0       ?__autoclassinit2@PlayZone@@QEAAX_K@Z 00000001400435d0 f i View.obj
 0002:0002a630       ?__autoclassinit2@Player@player@domain_layer@@QEAAX_K@Z 0000000140043630 f i View.obj
 0002:0002a690       ?__autoclassinit2@Storage@Persistence@technical_services_layer@@QEAAX_K@Z 0000000140043690 f i View.obj
 0002:0002a6f0       ?begin@?$vector@IV?$allocator@I@std@@@std@@QEAA?AV?$_Vector_iterator@V?$_Vector_val@U?$_Simple_types@I@std@@@std@@@2@XZ 00000001400436f0 f i View.obj
 0002:0002a7b0       ?begin@?$vector@UScore@Persistence@technical_services_layer@@V?$allocator@UScore@Persistence@technical_services_layer@@@std@@@std@@QEAA?AV?$_Vector_iterator@V?$_Vector_val@U?$_Simple_types@UScore@Persistence@technical_services_layer@@@std@@@std@@@2@XZ 00000001400437b0 f i View.obj
 0002:0002a870       ?buy_premium@View@view@ui_layer@@AEAAXXZ 0000000140043870 f   View.obj
 0002:0002ad80       ?check_player_status@View@view@ui_layer@@AEAA_NXZ 0000000140043d80 f   View.obj
 0002:0002af50       ?cleanup_SDL@View@view@ui_layer@@AEAAXXZ 0000000140043f50 f   View.obj
 0002:0002aff0       ?clearScreen@View@view@ui_layer@@AEAAXXZ 0000000140043ff0 f   View.obj
 0002:0002b120       ?display_main_menu@View@view@ui_layer@@AEAA_NXZ 0000000140044120 f   View.obj
 0002:0002b4b0       ?display_user_menu@View@view@ui_layer@@AEAA_NXZ 00000001400444b0 f   View.obj
 0002:0002b940       ?get_standard_stream@_internal@termcolor@@YAPEAU_iobuf@@AEBV?$basic_ostream@DU?$char_traits@D@std@@@std@@@Z 0000000140044940 f i View.obj
 0002:0002ba00       ?green@termcolor@@YAAEAV?$basic_ostream@DU?$char_traits@D@std@@@std@@AEAV23@@Z 0000000140044a00 f i View.obj
 0002:0002ba90       ?initialize_system@View@view@ui_layer@@AEAA_NXZ 0000000140044a90 f   View.obj
 0002:0002be60       ?is_atty@_internal@termcolor@@YA_NAEBV?$basic_ostream@DU?$char_traits@D@std@@@std@@@Z 0000000140044e60 f i View.obj
 0002:0002bf10       ?is_colorized@_internal@termcolor@@YA_NAEAV?$basic_ostream@DU?$char_traits@D@std@@@std@@@Z 0000000140044f10 f i View.obj
 0002:0002c010       ?launch@View@view@ui_layer@@UEAAXXZ 0000000140045010 f   View.obj
 0002:0002c0d0       ?login_user@View@view@ui_layer@@AEAA_NXZ 00000001400450d0 f   View.obj
 0002:0002c600       ?messageBox@View@view@ui_layer@@AEAAHXZ 0000000140045600 f   View.obj
 0002:0002c7c0       ?play_game@View@view@ui_layer@@AEAAXXZ 00000001400457c0 f   View.obj
 0002:0002caa0       ?red@termcolor@@YAAEAV?$basic_ostream@DU?$char_traits@D@std@@@std@@AEAV23@@Z 0000000140045aa0 f i View.obj
 0002:0002cb30       ?register_player@View@view@ui_layer@@AEAAXXZ 0000000140045b30 f   View.obj
 0002:0002d150       ?reset@termcolor@@YAAEAV?$basic_ostream@DU?$char_traits@D@std@@@std@@AEAV23@@Z 0000000140046150 f i View.obj
 0002:0002d1e0       ?showScore@View@view@ui_layer@@AEAAXI@Z 00000001400461e0 f   View.obj
 0002:0002d340       ?sortbyscore@view@ui_layer@@YA_NAEAUScore@Persistence@technical_services_layer@@0@Z 0000000140046340 f   View.obj
 0002:0002d3e0       ?view_leaderboard@View@view@ui_layer@@AEAAXXZ 00000001400463e0 f   View.obj
 0002:0002d870       ?view_previous_score@View@view@ui_layer@@AEAAXXZ 0000000140046870 f   View.obj
 0002:0002dc10       ?win_change_attributes@_internal@termcolor@@YAXAEAV?$basic_ostream@DU?$char_traits@D@std@@@std@@HH@Z 0000000140046c10 f i View.obj
 0002:0002de40       __local_stdio_printf_options 0000000140046e40 f i View.obj
 0002:0002de90       _vsprintf_s_l              0000000140046e90 f i View.obj
 0002:0002dfe0       vsprintf_s                 0000000140046fe0 f i View.obj
 0002:0002e076       SDL_GetTicks               0000000140047076 f   SDL2:SDL2.dll
 0002:0002e07c       SDL_Delay                  000000014004707c f   SDL2:SDL2.dll
 0002:0002e082       SDL_GetError               0000000140047082 f   SDL2:SDL2.dll
 0002:0002e088       SDL_CreateWindow           0000000140047088 f   SDL2:SDL2.dll
 0002:0002e08e       SDL_SetWindowTitle         000000014004708e f   SDL2:SDL2.dll
 0002:0002e094       SDL_DestroyWindow          0000000140047094 f   SDL2:SDL2.dll
 0002:0002e09a       SDL_CreateRenderer         000000014004709a f   SDL2:SDL2.dll
 0002:0002e0a0       SDL_SetRenderDrawColor     00000001400470a0 f   SDL2:SDL2.dll
 0002:0002e0a6       SDL_RenderClear            00000001400470a6 f   SDL2:SDL2.dll
 0002:0002e0ac       SDL_RenderFillRect         00000001400470ac f   SDL2:SDL2.dll
 0002:0002e0b2       SDL_RenderPresent          00000001400470b2 f   SDL2:SDL2.dll
 0002:0002e0b8       SDL_Init                   00000001400470b8 f   SDL2:SDL2.dll
 0002:0002e0be       SDL_Quit                   00000001400470be f   SDL2:SDL2.dll
 0002:0002e0c4       SDL_PollEvent              00000001400470c4 f   SDL2:SDL2.dll
 0002:0002e0ca       SDL_Log                    00000001400470ca f   SDL2:SDL2.dll
 0002:0002e0d0       SDL_ShowMessageBox         00000001400470d0 f   SDL2:SDL2.dll
 0002:0002e0d6       SDL_CreateTextureFromSurface 00000001400470d6 f   SDL2:SDL2.dll
 0002:0002e0dc       SDL_RenderCopy             00000001400470dc f   SDL2:SDL2.dll
 0002:0002e0e2       SDL_DestroyTexture         00000001400470e2 f   SDL2:SDL2.dll
 0002:0002e0e8       SDL_DestroyRenderer        00000001400470e8 f   SDL2:SDL2.dll
 0002:0002e0ee       TTF_RenderText_Solid       00000001400470ee f   SDL2_ttf:SDL2_ttf.dll
 0002:0002e0f4       TTF_CloseFont              00000001400470f4 f   SDL2_ttf:SDL2_ttf.dll
 0002:0002e0fa       TTF_Quit                   00000001400470fa f   SDL2_ttf:SDL2_ttf.dll
 0002:0002e100       GetStdHandle               0000000140047100 f   kernel32:KERNEL32.dll
 0002:0002e106       GetConsoleScreenBufferInfo 0000000140047106 f   kernel32:KERNEL32.dll
 0002:0002e10c       SetConsoleTextAttribute    000000014004710c f   kernel32:KERNEL32.dll
 0002:0002e112       ??0_Lockit@std@@QEAA@H@Z   0000000140047112 f   msvcprtd:MSVCP140D.dll
 0002:0002e118       ??1_Lockit@std@@QEAA@XZ    0000000140047118 f   msvcprtd:MSVCP140D.dll
 0002:0002e11e       ?_Random_device@std@@YAIXZ 000000014004711e f   msvcprtd:MSVCP140D.dll
 0002:0002e124       ?_Xlength_error@std@@YAXPEBD@Z 0000000140047124 f   msvcprtd:MSVCP140D.dll
 0002:0002e12a       ?uncaught_exception@std@@YA_NXZ 000000014004712a f   msvcprtd:MSVCP140D.dll
 0002:0002e130       ?_Xout_of_range@std@@YAXPEBD@Z 0000000140047130 f   msvcprtd:MSVCP140D.dll
 0002:0002e136       ?good@ios_base@std@@QEBA_NXZ 0000000140047136 f   msvcprtd:MSVCP140D.dll
 0002:0002e13c       ?flags@ios_base@std@@QEBAHXZ 000000014004713c f   msvcprtd:MSVCP140D.dll
 0002:0002e142       ?width@ios_base@std@@QEBA_JXZ 0000000140047142 f   msvcprtd:MSVCP140D.dll
 0002:0002e148       ?width@ios_base@std@@QEAA_J_J@Z 0000000140047148 f   msvcprtd:MSVCP140D.dll
 0002:0002e14e       ?sputc@?$basic_streambuf@DU?$char_traits@D@std@@@std@@QEAAHD@Z 000000014004714e f   msvcprtd:MSVCP140D.dll
 0002:0002e154       ?sputn@?$basic_streambuf@DU?$char_traits@D@std@@@std@@QEAA_JPEBD_J@Z 0000000140047154 f   msvcprtd:MSVCP140D.dll
 0002:0002e15a       ?setstate@?$basic_ios@DU?$char_traits@D@std@@@std@@QEAAXH_N@Z 000000014004715a f   msvcprtd:MSVCP140D.dll
 0002:0002e160       ?tie@?$basic_ios@DU?$char_traits@D@std@@@std@@QEBAPEAV?$basic_ostream@DU?$char_traits@D@std@@@2@XZ 0000000140047160 f   msvcprtd:MSVCP140D.dll
 0002:0002e166       ?rdbuf@?$basic_ios@DU?$char_traits@D@std@@@std@@QEBAPEAV?$basic_streambuf@DU?$char_traits@D@std@@@2@XZ 0000000140047166 f   msvcprtd:MSVCP140D.dll
 0002:0002e16c       ?fill@?$basic_ios@DU?$char_traits@D@std@@@std@@QEBADXZ 000000014004716c f   msvcprtd:MSVCP140D.dll
 0002:0002e172       ?_Osfx@?$basic_ostream@DU?$char_traits@D@std@@@std@@QEAAXXZ 0000000140047172 f   msvcprtd:MSVCP140D.dll
 0002:0002e178       ?flush@?$basic_ostream@DU?$char_traits@D@std@@@std@@QEAAAEAV12@XZ 0000000140047178 f   msvcprtd:MSVCP140D.dll
 0002:0002e17e       ?_Xbad_alloc@std@@YAXXZ    000000014004717e f   msvcprtd:MSVCP140D.dll
 0002:0002e184       _Mbrtowc                   0000000140047184 f   msvcprtd:MSVCP140D.dll
 0002:0002e18a       ?_Getcvt@_Locinfo@std@@QEBA?AU_Cvtvec@@XZ 000000014004718a f   msvcprtd:MSVCP140D.dll
 0002:0002e190       ?_Getdays@_Locinfo@std@@QEBAPEBDXZ 0000000140047190 f   msvcprtd:MSVCP140D.dll
 0002:0002e196       ?_Getmonths@_Locinfo@std@@QEBAPEBDXZ 0000000140047196 f   msvcprtd:MSVCP140D.dll
 0002:0002e19c       ?_W_Getdays@_Locinfo@std@@QEBAPEBGXZ 000000014004719c f   msvcprtd:MSVCP140D.dll
 0002:0002e1a2       ?_W_Getmonths@_Locinfo@std@@QEBAPEBGXZ 00000001400471a2 f   msvcprtd:MSVCP140D.dll
 0002:0002e1a8       ?xalloc@ios_base@std@@SAHXZ 00000001400471a8 f   msvcprtd:MSVCP140D.dll
 0002:0002e1b0       ??0_Fac_node@std@@QEAA@PEAU01@PEAV_Facet_base@1@@Z 00000001400471b0 f i msvcprtd:locale0_implib.obj
 0002:0002e1f0       ??1_Fac_node@std@@QEAA@XZ  00000001400471f0 f i msvcprtd:locale0_implib.obj
 0002:0002e2a0       ??1_Fac_tidy_reg_t@std@@QEAA@XZ 00000001400472a0 f i msvcprtd:locale0_implib.obj
 0002:0002e320       ??2_Fac_node@std@@SAPEAX_K@Z 0000000140047320 f i msvcprtd:locale0_implib.obj
 0002:0002e3a0       ??3_Fac_node@std@@SAXPEAX@Z 00000001400473a0 f i msvcprtd:locale0_implib.obj
 0002:0002e3d0       ??_G_Fac_node@std@@QEAAPEAXI@Z 00000001400473d0 f i msvcprtd:locale0_implib.obj
 0002:0002e440       ?_Facet_Register@std@@YAXPEAV_Facet_base@1@@Z 0000000140047440 f   msvcprtd:locale0_implib.obj
 0002:0002e4c4       ??Bid@locale@std@@QEAA_KXZ 00000001400474c4 f   msvcprtd:MSVCP140D.dll
 0002:0002e4ca       ?_Getgloballocale@locale@std@@CAPEAV_Locimp@12@XZ 00000001400474ca f   msvcprtd:MSVCP140D.dll
 0002:0002e4d0       ?always_noconv@codecvt_base@std@@QEBA_NXZ 00000001400474d0 f   msvcprtd:MSVCP140D.dll
 0002:0002e4d6       ?in@?$codecvt@DDU_Mbstatet@@@std@@QEBAHAEAU_Mbstatet@@PEBD1AEAPEBDPEAD3AEAPEAD@Z 00000001400474d6 f   msvcprtd:MSVCP140D.dll
 0002:0002e4dc       ?out@?$codecvt@DDU_Mbstatet@@@std@@QEBAHAEAU_Mbstatet@@PEBD1AEAPEBDPEAD3AEAPEAD@Z 00000001400474dc f   msvcprtd:MSVCP140D.dll
 0002:0002e4e2       ?unshift@?$codecvt@DDU_Mbstatet@@@std@@QEBAHAEAU_Mbstatet@@PEAD1AEAPEAD@Z 00000001400474e2 f   msvcprtd:MSVCP140D.dll
 0002:0002e4e8       ?_Getcat@?$codecvt@DDU_Mbstatet@@@std@@SA_KPEAPEBVfacet@locale@2@PEBV42@@Z 00000001400474e8 f   msvcprtd:MSVCP140D.dll
 0002:0002e4ee       ?getloc@ios_base@std@@QEBA?AVlocale@2@XZ 00000001400474ee f   msvcprtd:MSVCP140D.dll
 0002:0002e4f4       ??0?$basic_streambuf@DU?$char_traits@D@std@@@std@@IEAA@XZ 00000001400474f4 f   msvcprtd:MSVCP140D.dll
 0002:0002e4fa       ??1?$basic_streambuf@DU?$char_traits@D@std@@@std@@UEAA@XZ 00000001400474fa f   msvcprtd:MSVCP140D.dll
 0002:0002e500       ?getloc@?$basic_streambuf@DU?$char_traits@D@std@@@std@@QEBA?AVlocale@2@XZ 0000000140047500 f   msvcprtd:MSVCP140D.dll
 0002:0002e506       ?sbumpc@?$basic_streambuf@DU?$char_traits@D@std@@@std@@QEAAHXZ 0000000140047506 f   msvcprtd:MSVCP140D.dll
 0002:0002e50c       ?sgetc@?$basic_streambuf@DU?$char_traits@D@std@@@std@@QEAAHXZ 000000014004750c f   msvcprtd:MSVCP140D.dll
 0002:0002e512       ?snextc@?$basic_streambuf@DU?$char_traits@D@std@@@std@@QEAAHXZ 0000000140047512 f   msvcprtd:MSVCP140D.dll
 0002:0002e518       ?eback@?$basic_streambuf@DU?$char_traits@D@std@@@std@@IEBAPEADXZ 0000000140047518 f   msvcprtd:MSVCP140D.dll
 0002:0002e51e       ?gptr@?$basic_streambuf@DU?$char_traits@D@std@@@std@@IEBAPEADXZ 000000014004751e f   msvcprtd:MSVCP140D.dll
 0002:0002e524       ?pptr@?$basic_streambuf@DU?$char_traits@D@std@@@std@@IEBAPEADXZ 0000000140047524 f   msvcprtd:MSVCP140D.dll
 0002:0002e52a       ?egptr@?$basic_streambuf@DU?$char_traits@D@std@@@std@@IEBAPEADXZ 000000014004752a f   msvcprtd:MSVCP140D.dll
 0002:0002e530       ?gbump@?$basic_streambuf@DU?$char_traits@D@std@@@std@@IEAAXH@Z 0000000140047530 f   msvcprtd:MSVCP140D.dll
 0002:0002e536       ?setg@?$basic_streambuf@DU?$char_traits@D@std@@@std@@IEAAXPEAD00@Z 0000000140047536 f   msvcprtd:MSVCP140D.dll
 0002:0002e53c       ?epptr@?$basic_streambuf@DU?$char_traits@D@std@@@std@@IEBAPEADXZ 000000014004753c f   msvcprtd:MSVCP140D.dll
 0002:0002e542       ?_Gndec@?$basic_streambuf@DU?$char_traits@D@std@@@std@@IEAAPEADXZ 0000000140047542 f   msvcprtd:MSVCP140D.dll
 0002:0002e548       ?_Gninc@?$basic_streambuf@DU?$char_traits@D@std@@@std@@IEAAPEADXZ 0000000140047548 f   msvcprtd:MSVCP140D.dll
 0002:0002e54e       ?_Gnavail@?$basic_streambuf@DU?$char_traits@D@std@@@std@@IEBA_JXZ 000000014004754e f   msvcprtd:MSVCP140D.dll
 0002:0002e554       ?pbump@?$basic_streambuf@DU?$char_traits@D@std@@@std@@IEAAXH@Z 0000000140047554 f   msvcprtd:MSVCP140D.dll
 0002:0002e55a       ?_Pninc@?$basic_streambuf@DU?$char_traits@D@std@@@std@@IEAAPEADXZ 000000014004755a f   msvcprtd:MSVCP140D.dll
 0002:0002e560       ?_Pnavail@?$basic_streambuf@DU?$char_traits@D@std@@@std@@IEBA_JXZ 0000000140047560 f   msvcprtd:MSVCP140D.dll
 0002:0002e566       ?_Init@?$basic_streambuf@DU?$char_traits@D@std@@@std@@IEAAXXZ 0000000140047566 f   msvcprtd:MSVCP140D.dll
 0002:0002e56c       ?_Init@?$basic_streambuf@DU?$char_traits@D@std@@@std@@IEAAXPEAPEAD0PEAH001@Z 000000014004756c f   msvcprtd:MSVCP140D.dll
 0002:0002e572       ?xsgetn@?$basic_streambuf@DU?$char_traits@D@std@@@std@@MEAA_JPEAD_J@Z 0000000140047572 f   msvcprtd:MSVCP140D.dll
 0002:0002e578       ?xsputn@?$basic_streambuf@DU?$char_traits@D@std@@@std@@MEAA_JPEBD_J@Z 0000000140047578 f   msvcprtd:MSVCP140D.dll
 0002:0002e57e       ??1?$basic_ios@DU?$char_traits@D@std@@@std@@UEAA@XZ 000000014004757e f   msvcprtd:MSVCP140D.dll
 0002:0002e584       ?widen@?$basic_ios@DU?$char_traits@D@std@@@std@@QEBADD@Z 0000000140047584 f   msvcprtd:MSVCP140D.dll
 0002:0002e58a       ??0?$basic_ios@DU?$char_traits@D@std@@@std@@IEAA@XZ 000000014004758a f   msvcprtd:MSVCP140D.dll
 0002:0002e590       ??6?$basic_ostream@DU?$char_traits@D@std@@@std@@QEAAAEAV01@P6AAEAV01@AEAV01@@Z@Z 0000000140047590 f   msvcprtd:MSVCP140D.dll
 0002:0002e596       ?put@?$basic_ostream@DU?$char_traits@D@std@@@std@@QEAAAEAV12@D@Z 0000000140047596 f   msvcprtd:MSVCP140D.dll
 0002:0002e59c       ??0?$basic_istream@DU?$char_traits@D@std@@@std@@QEAA@PEAV?$basic_streambuf@DU?$char_traits@D@std@@@1@_N@Z 000000014004759c f   msvcprtd:MSVCP140D.dll
 0002:0002e5a2       ??1?$basic_istream@DU?$char_traits@D@std@@@std@@UEAA@XZ 00000001400475a2 f   msvcprtd:MSVCP140D.dll
 0002:0002e5a8       ?_Ipfx@?$basic_istream@DU?$char_traits@D@std@@@std@@QEAA_N_N@Z 00000001400475a8 f   msvcprtd:MSVCP140D.dll
 0002:0002e5ae       ?_Fiopen@std@@YAPEAU_iobuf@@PEBDHH@Z 00000001400475ae f   msvcprtd:MSVCP140D.dll
 0002:0002e5b4       _Xtime_get_ticks           00000001400475b4 f   msvcprtd:MSVCP140D.dll
 0002:0002e5ba       ?put@?$time_put@DV?$ostreambuf_iterator@DU?$char_traits@D@std@@@std@@@std@@QEBA?AV?$ostreambuf_iterator@DU?$char_traits@D@std@@@2@V32@AEAVios_base@2@DPEBUtm@@PEBD3@Z 00000001400475ba f   msvcprtd:MSVCP140D.dll
 0002:0002e5c0       ?_Getcat@?$time_put@DV?$ostreambuf_iterator@DU?$char_traits@D@std@@@std@@@std@@SA_KPEAPEBVfacet@locale@2@PEBV42@@Z 00000001400475c0 f   msvcprtd:MSVCP140D.dll
 0002:0002e5c6       ?showmanyc@?$basic_streambuf@DU?$char_traits@D@std@@@std@@MEAA_JXZ 00000001400475c6 f   msvcprtd:MSVCP140D.dll
 0002:0002e5cc       ?is@?$ctype@D@std@@QEBA_NFD@Z 00000001400475cc f   msvcprtd:MSVCP140D.dll
 0002:0002e5d2       ?_Getcat@?$ctype@D@std@@SA_KPEAPEBVfacet@locale@2@PEBV42@@Z 00000001400475d2 f   msvcprtd:MSVCP140D.dll
 0002:0002e5d8       ??Bios_base@std@@QEBA_NXZ  00000001400475d8 f   msvcprtd:MSVCP140D.dll
 0002:0002e5de       ?setp@?$basic_streambuf@DU?$char_traits@D@std@@@std@@IEAAXPEAD0@Z 00000001400475de f   msvcprtd:MSVCP140D.dll
 0002:0002e5e4       ?setp@?$basic_streambuf@DU?$char_traits@D@std@@@std@@IEAAXPEAD00@Z 00000001400475e4 f   msvcprtd:MSVCP140D.dll
 0002:0002e5ea       ??0?$basic_ostream@DU?$char_traits@D@std@@@std@@QEAA@PEAV?$basic_streambuf@DU?$char_traits@D@std@@@1@_N@Z 00000001400475ea f   msvcprtd:MSVCP140D.dll
 0002:0002e5f0       ??1?$basic_ostream@DU?$char_traits@D@std@@@std@@UEAA@XZ 00000001400475f0 f   msvcprtd:MSVCP140D.dll
 0002:0002e5f6       ??6?$basic_ostream@DU?$char_traits@D@std@@@std@@QEAAAEAV01@I@Z 00000001400475f6 f   msvcprtd:MSVCP140D.dll
 0002:0002e5fc       ??5?$basic_istream@DU?$char_traits@D@std@@@std@@QEAAAEAV01@AEAI@Z 00000001400475fc f   msvcprtd:MSVCP140D.dll
 0002:0002e602       ?_Lock@?$basic_streambuf@DU?$char_traits@D@std@@@std@@UEAAXXZ 0000000140047602 f   msvcprtd:MSVCP140D.dll
 0002:0002e608       ?_Unlock@?$basic_streambuf@DU?$char_traits@D@std@@@std@@UEAAXXZ 0000000140047608 f   msvcprtd:MSVCP140D.dll
 0002:0002e60e       ?imbue@?$basic_streambuf@DU?$char_traits@D@std@@@std@@MEAAXAEBVlocale@2@@Z 000000014004760e f   msvcprtd:MSVCP140D.dll
 0002:0002e614       ?setbuf@?$basic_streambuf@DU?$char_traits@D@std@@@std@@MEAAPEAV12@PEAD_J@Z 0000000140047614 f   msvcprtd:MSVCP140D.dll
 0002:0002e61a       ?sync@?$basic_streambuf@DU?$char_traits@D@std@@@std@@MEAAHXZ 000000014004761a f   msvcprtd:MSVCP140D.dll
 0002:0002e620       ?uflow@?$basic_streambuf@DU?$char_traits@D@std@@@std@@MEAAHXZ 0000000140047620 f   msvcprtd:MSVCP140D.dll
 0002:0002e626       ?iword@ios_base@std@@QEAAAEAJH@Z 0000000140047626 f   msvcprtd:MSVCP140D.dll
 0002:0002e62c       ??6?$basic_ostream@DU?$char_traits@D@std@@@std@@QEAAAEAV01@H@Z 000000014004762c f   msvcprtd:MSVCP140D.dll
 0002:0002e632       ?ignore@?$basic_istream@DU?$char_traits@D@std@@@std@@QEAAAEAV12@_JH@Z 0000000140047632 f   msvcprtd:MSVCP140D.dll
 0002:0002e640       ??2@YAPEAX_K@Z             0000000140047640 f   MSVCRTD:new_scalar.obj
 0002:0002e6b0       ??3@YAXPEAX_K@Z            00000001400476b0 f   MSVCRTD:delete_scalar_size.obj
 0002:0002e6e0       _RTC_AllocaHelper          00000001400476e0 f   MSVCRTD:stack.obj
 0002:0002e730       _RTC_CheckStackVars        0000000140047730 f   MSVCRTD:stack.obj
 0002:0002e7e0       _RTC_CheckStackVars2       00000001400477e0 f   MSVCRTD:stack.obj
 0002:0002e930       _CRT_RTC_INIT              0000000140047930 f   MSVCRTD:init.obj
 0002:0002e940       _CRT_RTC_INITW             0000000140047940 f   MSVCRTD:init.obj
 0002:0002e950       _RTC_InitBase              0000000140047950 f   MSVCRTD:init.obj
 0002:0002e9a0       _RTC_Shutdown              00000001400479a0 f   MSVCRTD:init.obj
 0002:0002e9d0       __CheckForDebuggerJustMyCode 00000001400479d0 f   MSVCRTD:debugger_jmc.obj
 0002:0002ea20       __GSHandlerCheck           0000000140047a20 f   MSVCRTD:gshandler.obj
 0002:0002ea70       __GSHandlerCheckCommon     0000000140047a70 f   MSVCRTD:gshandler.obj
 0002:0002ebb0       __GSHandlerCheck_EH4       0000000140047bb0 f   MSVCRTD:gshandlereh4.obj
 0002:0002ec90       __security_check_cookie    0000000140047c90 f   MSVCRTD:amdsecgs.obj
 0002:0002ecc0       ??1type_info@@UEAA@XZ      0000000140047cc0 f   MSVCRTD:std_type_info_static.obj
 0002:0002ece0       ??_Gtype_info@@UEAAPEAXI@Z 0000000140047ce0 f i MSVCRTD:std_type_info_static.obj
 0002:0002ece0       ??_Etype_info@@UEAAPEAXI@Z 0000000140047ce0 f i MSVCRTD:std_type_info_static.obj
 0002:0002ed40       _alloca_probe              0000000140047d40 f   MSVCRTD:chkstk.obj
 0002:0002ed40       __chkstk                   0000000140047d40 f   MSVCRTD:chkstk.obj
 0002:0002f100       ?configure_argv@__scrt_narrow_argv_policy@@SAHXZ 0000000140048100 f i MSVCRTD:exe_main.obj
 0002:0002f120       ?initialize_environment@__scrt_narrow_environment_policy@@SAHXZ 0000000140048120 f i MSVCRTD:exe_main.obj
 0002:0002f190       ?set_app_type@__scrt_main_policy@@SAXXZ 0000000140048190 f i MSVCRTD:exe_main.obj
 0002:0002f1b0       ?set_commode@__scrt_file_policy@@SAXXZ 00000001400481b0 f i MSVCRTD:exe_main.obj
 0002:0002f1e0       ?set_fmode@__scrt_file_policy@@SAXXZ 00000001400481e0 f i MSVCRTD:exe_main.obj
 0002:0002f200       mainCRTStartup             0000000140048200 f   MSVCRTD:exe_main.obj
 0002:0002f3d0       NtCurrentTeb               00000001400483d0 f i MSVCRTD:utility.obj
 0002:0002f3e0       __scrt_acquire_startup_lock 00000001400483e0 f   MSVCRTD:utility.obj
 0002:0002f460       __scrt_dllmain_after_initialize_c 0000000140048460 f   MSVCRTD:utility.obj
 0002:0002f4a0       __scrt_dllmain_before_initialize_c 00000001400484a0 f   MSVCRTD:utility.obj
 0002:0002f4d0       __scrt_dllmain_crt_thread_attach 00000001400484d0 f   MSVCRTD:utility.obj
 0002:0002f510       __scrt_dllmain_crt_thread_detach 0000000140048510 f   MSVCRTD:utility.obj
 0002:0002f530       __scrt_dllmain_exception_filter 0000000140048530 f   MSVCRTD:utility.obj
 0002:0002f5b0       __scrt_dllmain_uninitialize_c 00000001400485b0 f   MSVCRTD:utility.obj
 0002:0002f5f0       __scrt_dllmain_uninitialize_critical 00000001400485f0 f   MSVCRTD:utility.obj
 0002:0002f610       __scrt_initialize_crt      0000000140048610 f   MSVCRTD:utility.obj
 0002:0002f670       __scrt_initialize_onexit_tables 0000000140048670 f   MSVCRTD:utility.obj
 0002:0002f7c0       __scrt_is_nonwritable_in_current_image 00000001400487c0 f   MSVCRTD:utility.obj
 0002:0002f870       __scrt_release_startup_lock 0000000140048870 f   MSVCRTD:utility.obj
 0002:0002f8b0       __scrt_uninitialize_crt    00000001400488b0 f   MSVCRTD:utility.obj
 0002:0002f900       _onexit                    0000000140048900 f   MSVCRTD:utility.obj
 0002:0002f9a0       at_quick_exit              00000001400489a0 f   MSVCRTD:utility.obj
 0002:0002fa00       atexit                     0000000140048a00 f   MSVCRTD:utility.obj
 0002:0002fa40       _guard_check_icall_nop     0000000140048a40 f i MSVCRTD:guard_support.obj
 0002:0002fa50       ReadNoFence64              0000000140048a50 f i MSVCRTD:guard_support.obj
 0002:0002fa80       ReadPointerNoFence         0000000140048a80 f i MSVCRTD:guard_support.obj
 0002:0002faa0       _guard_icall_checks_enforced 0000000140048aa0 f i MSVCRTD:guard_support.obj
 0002:0002faf0       _guard_rf_checks_enforced  0000000140048af0 f i MSVCRTD:guard_support.obj
 0002:0002fb00       ??0bad_alloc@std@@QEAA@XZ  0000000140048b00 f i MSVCRTD:throw_bad_alloc.obj
 0002:0002fb50       ?__scrt_throw_std_bad_alloc@@YAXXZ 0000000140048b50 f   MSVCRTD:throw_bad_alloc.obj
 0002:0002fb80       ?__scrt_throw_std_bad_array_new_length@@YAXXZ 0000000140048b80 f   MSVCRTD:throw_bad_alloc.obj
 0002:0002fbb0       ??3@YAXPEAX@Z              0000000140048bb0 f   MSVCRTD:delete_scalar.obj
 0002:0002fc90       ?_RTC_AllocaFailure@@YAXPEAXPEAU_RTC_ALLOCA_NODE@@H@Z 0000000140048c90 f   MSVCRTD:error.obj
 0002:0002fe40       ?_RTC_Failure@@YAXPEAXH@Z  0000000140048e40 f   MSVCRTD:error.obj
 0002:0002feb0       ?_RTC_StackFailure@@YAXPEAXPEBD@Z 0000000140048eb0 f   MSVCRTD:error.obj
 0002:000303f0       _RTC_UninitUse             00000001400493f0 f   MSVCRTD:error.obj
 0002:000304f0       sprintf_s                  00000001400494f0 f i MSVCRTD:error.obj
 0002:00030520       ?_RTC_GetErrorFunc@@YAP6AHHPEBDH00ZZPEBX@Z 0000000140049520 f   MSVCRTD:userapi.obj
 0002:00030530       ?_RTC_GetErrorFuncW@@YAP6AHHPEB_WH00ZZPEBX@Z 0000000140049530 f   MSVCRTD:userapi.obj
 0002:00030540       _RTC_GetErrDesc            0000000140049540 f   MSVCRTD:userapi.obj
 0002:00030560       _RTC_NumErrors             0000000140049560 f   MSVCRTD:userapi.obj
 0002:00030570       _RTC_SetErrorFunc          0000000140049570 f   MSVCRTD:userapi.obj
 0002:00030590       _RTC_SetErrorFuncW         0000000140049590 f   MSVCRTD:userapi.obj
 0002:000305b0       _RTC_SetErrorType          00000001400495b0 f   MSVCRTD:userapi.obj
 0002:000305e0       __raise_securityfailure    00000001400495e0 f   MSVCRTD:gs_report.obj
 0002:00030630       __report_gsfailure         0000000140049630 f   MSVCRTD:gs_report.obj
 0002:00030740       __report_rangecheckfailure 0000000140049740 f   MSVCRTD:gs_report.obj
 0002:00030760       __report_securityfailure   0000000140049760 f   MSVCRTD:gs_report.obj
 0002:00030830       __report_securityfailureEx 0000000140049830 f   MSVCRTD:gs_report.obj
 0002:00030c20       __security_init_cookie     0000000140049c20 f   MSVCRTD:gs_support.obj
 0002:00030cc0       _matherr                   0000000140049cc0 f   MSVCRTD:matherr.obj
 0002:00030cd0       _get_startup_argv_mode     0000000140049cd0 f   MSVCRTD:argv_mode.obj
 0002:00030ce0       _get_startup_commit_mode   0000000140049ce0 f   MSVCRTD:commit_mode.obj
 0002:00030cf0       _get_startup_file_mode     0000000140049cf0 f   MSVCRTD:file_mode.obj
 0002:00030d00       _get_startup_new_mode      0000000140049d00 f   MSVCRTD:new_mode.obj
 0002:00030d10       _get_startup_thread_locale_mode 0000000140049d10 f   MSVCRTD:thread_locale.obj
 0002:00030d20       ?__scrt_initialize_type_info@@YAXXZ 0000000140049d20 f   MSVCRTD:tncleanup.obj
 0002:00030d40       ?__scrt_uninitialize_type_info@@YAXXZ 0000000140049d40 f   MSVCRTD:tncleanup.obj
 0002:00030d60       _should_initialize_environment 0000000140049d60 f   MSVCRTD:env_mode.obj
 0002:00030d70       _initialize_invalid_parameter_handler 0000000140049d70 f   MSVCRTD:invalid_parameter_handler.obj
 0002:00030d80       _initialize_denormal_control 0000000140049d80 f   MSVCRTD:denormal_control.obj
 0002:00030d90       __local_stdio_scanf_options 0000000140049d90 f i MSVCRTD:default_local_stdio_options.obj
 0002:00030da0       __scrt_initialize_default_local_stdio_options 0000000140049da0 f   MSVCRTD:default_local_stdio_options.obj
 0002:00030e00       __scrt_is_user_matherr_present 0000000140049e00 f   MSVCRTD:matherr_detection.obj
 0002:00030e30       __scrt_get_dyn_tls_init_callback 0000000140049e30 f   MSVCRTD:dyn_tls_init.obj
 0002:00030e40       __scrt_get_dyn_tls_dtor_callback 0000000140049e40 f   MSVCRTD:dyn_tls_dtor.obj
 0002:00030e50       __crt_debugger_hook        0000000140049e50 f   MSVCRTD:utility_desktop.obj
 0002:00030e70       __scrt_fastfail            0000000140049e70 f   MSVCRTD:utility_desktop.obj
 0002:00031070       __scrt_get_show_window_mode 000000014004a070 f   MSVCRTD:utility_desktop.obj
 0002:000310e0       __scrt_initialize_mta      000000014004a0e0 f   MSVCRTD:utility_desktop.obj
 0002:00031100       __scrt_initialize_winrt    000000014004a100 f   MSVCRTD:utility_desktop.obj
 0002:00031110       __scrt_is_managed_app      000000014004a110 f   MSVCRTD:utility_desktop.obj
 0002:000311e0       __scrt_set_unhandled_exception_filter 000000014004a1e0 f   MSVCRTD:utility_desktop.obj
 0002:00031200       __scrt_exe_initialize_mta  000000014004a200 f   MSVCRTD:utility_desktop.obj
 0002:00031200       __scrt_stub_for_initialize_mta 000000014004a200 f   MSVCRTD:utility_desktop.obj
 0002:00031210       __scrt_unhandled_exception_filter 000000014004a210 f   MSVCRTD:utility_desktop.obj
 0002:000312d0       _RTC_Initialize            000000014004a2d0 f   MSVCRTD:initsect.obj
 0002:00031330       _RTC_Terminate             000000014004a330 f   MSVCRTD:initsect.obj
 0002:00031390       __isa_available_init       000000014004a390 f   MSVCRTD:cpu_disp.obj
 0002:000317f0       __scrt_is_ucrt_dll_in_use  000000014004a7f0 f   MSVCRTD:ucrt_detection.obj
 0002:00031e70       ?_RTC_GetSrcLine@@YAHPEAEPEA_WKPEAH1K@Z 000000014004ae70 f   MSVCRTD:pdblkup.obj
 0002:00032326       memmove                    000000014004b326 f   vcruntimed:VCRUNTIME140D.dll
 0002:0003232c       __std_exception_copy       000000014004b32c f   vcruntimed:VCRUNTIME140D.dll
 0002:00032332       __std_exception_destroy    000000014004b332 f   vcruntimed:VCRUNTIME140D.dll
 0002:00032338       _CxxThrowException         000000014004b338 f   vcruntimed:VCRUNTIME140D.dll
 0002:0003233e       __CxxFrameHandler4         000000014004b33e f   vcruntimed:VCRUNTIME140_1D.dll
 0002:00032344       _purecall                  000000014004b344 f   vcruntimed:VCRUNTIME140D.dll
 0002:0003234a       memcpy                     000000014004b34a f   vcruntimed:VCRUNTIME140D.dll
 0002:00032350       memcmp                     000000014004b350 f   vcruntimed:VCRUNTIME140D.dll
 0002:00032356       __CxxFrameHandler3         000000014004b356 f   vcruntimed:VCRUNTIME140D.dll
 0002:0003235c       __C_specific_handler       000000014004b35c f   vcruntimed:VCRUNTIME140D.dll
 0002:00032362       __C_specific_handler_noexcept 000000014004b362 f   vcruntimed:VCRUNTIME140D.dll
 0002:00032368       __std_type_info_destroy_list 000000014004b368 f   vcruntimed:VCRUNTIME140D.dll
 0002:0003236e       __current_exception        000000014004b36e f   vcruntimed:VCRUNTIME140D.dll
 0002:00032374       __current_exception_context 000000014004b374 f   vcruntimed:VCRUNTIME140D.dll
 0002:0003237a       __vcrt_GetModuleFileNameW  000000014004b37a f   vcruntimed:VCRUNTIME140D.dll
 0002:00032380       __vcrt_GetModuleHandleW    000000014004b380 f   vcruntimed:VCRUNTIME140D.dll
 0002:00032386       __vcrt_LoadLibraryExW      000000014004b386 f   vcruntimed:VCRUNTIME140D.dll
 0002:0003238c       _invalid_parameter         000000014004b38c f   ucrtd:ucrtbased.dll
 0002:00032392       _CrtDbgReport              000000014004b392 f   ucrtd:ucrtbased.dll
 0002:00032398       fmod                       000000014004b398 f   ucrtd:ucrtbased.dll
 0002:0003239e       wcslen                     000000014004b39e f   ucrtd:ucrtbased.dll
 0002:000323a4       _calloc_dbg                000000014004b3a4 f   ucrtd:ucrtbased.dll
 0002:000323aa       strlen                     000000014004b3aa f   ucrtd:ucrtbased.dll
 0002:000323b0       _get_stream_buffer_pointers 000000014004b3b0 f   ucrtd:ucrtbased.dll
 0002:000323b6       fclose                     000000014004b3b6 f   ucrtd:ucrtbased.dll
 0002:000323bc       fflush                     000000014004b3bc f   ucrtd:ucrtbased.dll
 0002:000323c2       fgetc                      000000014004b3c2 f   ucrtd:ucrtbased.dll
 0002:000323c8       fgetpos                    000000014004b3c8 f   ucrtd:ucrtbased.dll
 0002:000323ce       fputc                      000000014004b3ce f   ucrtd:ucrtbased.dll
 0002:000323d4       fread                      000000014004b3d4 f   ucrtd:ucrtbased.dll
 0002:000323da       fsetpos                    000000014004b3da f   ucrtd:ucrtbased.dll
 0002:000323e0       _fseeki64                  000000014004b3e0 f   ucrtd:ucrtbased.dll
 0002:000323e6       fwrite                     000000014004b3e6 f   ucrtd:ucrtbased.dll
 0002:000323ec       setvbuf                    000000014004b3ec f   ucrtd:ucrtbased.dll
 0002:000323f2       ungetc                     000000014004b3f2 f   ucrtd:ucrtbased.dll
 0002:000323f8       _lock_file                 000000014004b3f8 f   ucrtd:ucrtbased.dll
 0002:000323fe       _unlock_file               000000014004b3fe f   ucrtd:ucrtbased.dll
 0002:00032404       _localtime64_s             000000014004b404 f   ucrtd:ucrtbased.dll
 0002:0003240a       remove                     000000014004b40a f   ucrtd:ucrtbased.dll
 0002:00032410       rename                     000000014004b410 f   ucrtd:ucrtbased.dll
 0002:00032416       system                     000000014004b416 f   ucrtd:ucrtbased.dll
 0002:0003241c       __acrt_iob_func            000000014004b41c f   ucrtd:ucrtbased.dll
 0002:00032422       _fileno                    000000014004b422 f   ucrtd:ucrtbased.dll
 0002:00032428       __stdio_common_vsprintf_s  000000014004b428 f   ucrtd:ucrtbased.dll
 0002:0003242e       _isatty                    000000014004b42e f   ucrtd:ucrtbased.dll
 0002:00032434       _free_dbg                  000000014004b434 f   ucrtd:ucrtbased.dll
 0002:0003243a       _malloc_dbg                000000014004b43a f   ucrtd:ucrtbased.dll
 0002:00032440       _callnewh                  000000014004b440 f   ucrtd:ucrtbased.dll
 0002:00032446       malloc                     000000014004b446 f   ucrtd:ucrtbased.dll
 0002:0003244c       _CrtDbgReportW             000000014004b44c f   ucrtd:ucrtbased.dll
 0002:00032452       _seh_filter_exe            000000014004b452 f   ucrtd:ucrtbased.dll
 0002:00032458       _set_app_type              000000014004b458 f   ucrtd:ucrtbased.dll
 0002:0003245e       __setusermatherr           000000014004b45e f   ucrtd:ucrtbased.dll
 0002:00032464       _configure_narrow_argv     000000014004b464 f   ucrtd:ucrtbased.dll
 0002:0003246a       _initialize_narrow_environment 000000014004b46a f   ucrtd:ucrtbased.dll
 0002:00032470       _get_initial_narrow_environment 000000014004b470 f   ucrtd:ucrtbased.dll
 0002:00032476       _initterm                  000000014004b476 f   ucrtd:ucrtbased.dll
 0002:0003247c       _initterm_e                000000014004b47c f   ucrtd:ucrtbased.dll
 0002:00032482       exit                       000000014004b482 f   ucrtd:ucrtbased.dll
 0002:00032488       _exit                      000000014004b488 f   ucrtd:ucrtbased.dll
 0002:0003248e       _set_fmode                 000000014004b48e f   ucrtd:ucrtbased.dll
 0002:00032494       __p___argc                 000000014004b494 f   ucrtd:ucrtbased.dll
 0002:0003249a       __p___argv                 000000014004b49a f   ucrtd:ucrtbased.dll
 0002:000324a0       _cexit                     000000014004b4a0 f   ucrtd:ucrtbased.dll
 0002:000324a6       _c_exit                    000000014004b4a6 f   ucrtd:ucrtbased.dll
 0002:000324ac       _register_thread_local_exe_atexit_callback 000000014004b4ac f   ucrtd:ucrtbased.dll
 0002:000324b2       _configthreadlocale        000000014004b4b2 f   ucrtd:ucrtbased.dll
 0002:000324b8       _set_new_mode              000000014004b4b8 f   ucrtd:ucrtbased.dll
 0002:000324be       __p__commode               000000014004b4be f   ucrtd:ucrtbased.dll
 0002:000324c4       _seh_filter_dll            000000014004b4c4 f   ucrtd:ucrtbased.dll
 0002:000324ca       _initialize_onexit_table   000000014004b4ca f   ucrtd:ucrtbased.dll
 0002:000324d0       _register_onexit_function  000000014004b4d0 f   ucrtd:ucrtbased.dll
 0002:000324d6       _execute_onexit_table      000000014004b4d6 f   ucrtd:ucrtbased.dll
 0002:000324dc       _crt_atexit                000000014004b4dc f   ucrtd:ucrtbased.dll
 0002:000324e2       _crt_at_quick_exit         000000014004b4e2 f   ucrtd:ucrtbased.dll
 0002:000324e8       strcpy_s                   000000014004b4e8 f   ucrtd:ucrtbased.dll
 0002:000324ee       strcat_s                   000000014004b4ee f   ucrtd:ucrtbased.dll
 0002:000324f4       terminate                  000000014004b4f4 f   ucrtd:ucrtbased.dll
 0002:000324fa       _wmakepath_s               000000014004b4fa f   ucrtd:ucrtbased.dll
 0002:00032500       _wsplitpath_s              000000014004b500 f   ucrtd:ucrtbased.dll
 0002:00032506       wcscpy_s                   000000014004b506 f   ucrtd:ucrtbased.dll
 0002:0003250c       GetCurrentThreadId         000000014004b50c f   kernel32:KERNEL32.dll
 0002:00032512       IsDebuggerPresent          000000014004b512 f   kernel32:KERNEL32.dll
 0002:00032518       RaiseException             000000014004b518 f   kernel32:KERNEL32.dll
 0002:0003251e       MultiByteToWideChar        000000014004b51e f   kernel32:KERNEL32.dll
 0002:00032524       WideCharToMultiByte        000000014004b524 f   kernel32:KERNEL32.dll
 0002:0003252a       RtlCaptureContext          000000014004b52a f   kernel32:KERNEL32.dll
 0002:00032530       RtlLookupFunctionEntry     000000014004b530 f   kernel32:KERNEL32.dll
 0002:00032536       RtlVirtualUnwind           000000014004b536 f   kernel32:KERNEL32.dll
 0002:0003253c       UnhandledExceptionFilter   000000014004b53c f   kernel32:KERNEL32.dll
 0002:00032542       SetUnhandledExceptionFilter 000000014004b542 f   kernel32:KERNEL32.dll
 0002:00032548       GetCurrentProcess          000000014004b548 f   kernel32:KERNEL32.dll
 0002:0003254e       TerminateProcess           000000014004b54e f   kernel32:KERNEL32.dll
 0002:00032554       IsProcessorFeaturePresent  000000014004b554 f   kernel32:KERNEL32.dll
 0002:0003255a       QueryPerformanceCounter    000000014004b55a f   kernel32:KERNEL32.dll
 0002:00032560       GetCurrentProcessId        000000014004b560 f   kernel32:KERNEL32.dll
 0002:00032566       GetSystemTimeAsFileTime    000000014004b566 f   kernel32:KERNEL32.dll
 0002:0003256c       InitializeSListHead        000000014004b56c f   kernel32:KERNEL32.dll
 0002:00032572       GetStartupInfoW            000000014004b572 f   kernel32:KERNEL32.dll
 0002:00032578       GetModuleHandleW           000000014004b578 f   kernel32:KERNEL32.dll
 0002:0003257e       GetLastError               000000014004b57e f   kernel32:KERNEL32.dll
 0002:00032584       HeapAlloc                  000000014004b584 f   kernel32:KERNEL32.dll
 0002:0003258a       HeapFree                   000000014004b58a f   kernel32:KERNEL32.dll
 0002:00032590       GetProcessHeap             000000014004b590 f   kernel32:KERNEL32.dll
 0002:00032596       VirtualQuery               000000014004b596 f   kernel32:KERNEL32.dll
 0002:0003259c       FreeLibrary                000000014004b59c f   kernel32:KERNEL32.dll
 0002:000325a2       GetProcAddress             000000014004b5a2 f   kernel32:KERNEL32.dll
 0002:000325a8       GetCommandLineW            000000014004b5a8 f   kernel32:KERNEL32.dll
 0002:000325ae       SDL_ShowSimpleMessageBox   000000014004b5ae f   SDL2:SDL2.dll
 0002:000325b4       SDL_SetMainReady           000000014004b5b4 f   SDL2:SDL2.dll
 0002:000325ba       SDL_free                   000000014004b5ba f   SDL2:SDL2.dll
 0002:000325c0       SDL_malloc                 000000014004b5c0 f   SDL2:SDL2.dll
 0002:000325c6       SDL_iconv_string           000000014004b5c6 f   SDL2:SDL2.dll
 0002:000325cc       SDL_wcslen                 000000014004b5cc f   SDL2:SDL2.dll
 0002:000325e0       __scrt_stub_for_acrt_initialize 000000014004b5e0 f   MSVCRTD:ucrt_stubs.obj
 0002:000325e0       __vcrt_initialize          000000014004b5e0 f   MSVCRTD:ucrt_stubs.obj
 0002:000325e0       __acrt_initialize          000000014004b5e0 f   MSVCRTD:ucrt_stubs.obj
 0002:000325f0       __acrt_thread_attach       000000014004b5f0 f   MSVCRTD:ucrt_stubs.obj
 0002:000325f0       __scrt_stub_for_acrt_thread_attach 000000014004b5f0 f   MSVCRTD:ucrt_stubs.obj
 0002:000325f0       __vcrt_thread_attach       000000014004b5f0 f   MSVCRTD:ucrt_stubs.obj
 0002:00032600       __scrt_stub_for_acrt_thread_detach 000000014004b600 f   MSVCRTD:ucrt_stubs.obj
 0002:00032600       __vcrt_thread_detach       000000014004b600 f   MSVCRTD:ucrt_stubs.obj
 0002:00032600       __acrt_thread_detach       000000014004b600 f   MSVCRTD:ucrt_stubs.obj
 0002:00032610       __vcrt_uninitialize        000000014004b610 f   MSVCRTD:ucrt_stubs.obj
 0002:00032610       __scrt_stub_for_acrt_uninitialize 000000014004b610 f   MSVCRTD:ucrt_stubs.obj
 0002:00032610       __acrt_uninitialize        000000014004b610 f   MSVCRTD:ucrt_stubs.obj
 0002:00032620       __vcrt_uninitialize_critical 000000014004b620 f   MSVCRTD:ucrt_stubs.obj
 0002:00032620       __scrt_stub_for_acrt_uninitialize_critical 000000014004b620 f   MSVCRTD:ucrt_stubs.obj
 0002:00032620       __acrt_uninitialize_critical 000000014004b620 f   MSVCRTD:ucrt_stubs.obj
 0002:00032630       __scrt_stub_for_is_c_termination_complete 000000014004b630 f   MSVCRTD:ucrt_stubs.obj
 0002:00032630       _is_c_termination_complete 000000014004b630 f   MSVCRTD:ucrt_stubs.obj
 0002:00033ea0       _guard_dispatch_icall_nop  000000014004cea0 f   MSVCRTD:guard_dispatch.obj
 0003:00000000       __xc_a                     0000000140053000     MSVCRTD:initializers.obj
 0003:00000450       __xc_z                     0000000140053450     MSVCRTD:initializers.obj
 0003:00000560       __xi_a                     0000000140053560     MSVCRTD:initializers.obj
 0003:00000890       __xi_z                     0000000140053890     MSVCRTD:initializers.obj
 0003:000009a0       __xp_a                     00000001400539a0     MSVCRTD:initializers.obj
 0003:00000ab0       __xp_z                     0000000140053ab0     MSVCRTD:initializers.obj
 0003:00000bc0       __xt_a                     0000000140053bc0     MSVCRTD:initializers.obj
 0003:00000cd0       __xt_z                     0000000140053cd0     MSVCRTD:initializers.obj
 0003:00001100       ??_7exception@std@@6B@     0000000140054100     Game.obj
 0003:00001118       ??_C@_0BC@EOODALEL@Unknown?5exception@ 0000000140054118     Game.obj
 0003:00001138       ??_7bad_alloc@std@@6B@     0000000140054138     Game.obj
 0003:00001158       ??_7bad_array_new_length@std@@6B@ 0000000140054158     Game.obj
 0003:00001170       ??_C@_0BF@KINCDENJ@bad?5array?5new?5length@ 0000000140054170     Game.obj
 0003:00001190       ??_C@_0BB@FCMFBGOM@invalid?5argument@ 0000000140054190     Game.obj
 0003:000011a4       ??_C@_02DKCKIIND@?$CFs@    00000001400541a4     Game.obj
 0003:000011b0       ??_C@_0GI@FJIKDGOA@C?3?2Program?5Files?5?$CIx86?$CJ?2Microsof@ 00000001400541b0     Game.obj
 0003:00001230       ??_C@_1NA@CDBIFGMM@?$AAC?$AA?3?$AA?2?$AAP?$AAr?$AAo?$AAg?$AAr?$AAa?$AAm?$AA?5?$AAF?$AAi?$AAl?$AAe@ 0000000140054230     Game.obj
 0003:00001330       ??_C@_1EK@NIFDJFDG@?$AAs?$AAt?$AAd?$AA?3?$AA?3?$AA_?$AAA?$AAd?$AAj?$AAu?$AAs?$AAt?$AA_?$AAm?$AAa@ 0000000140054330     Game.obj
 0003:00001388       ??_C@_1CG@JNLFBNGN@?$AA?$CC?$AAi?$AAn?$AAv?$AAa?$AAl?$AAi?$AAd?$AA?5?$AAa?$AAr?$AAg?$AAu?$AAm?$AAe@ 0000000140054388     Game.obj
 0003:000013c0       ??_C@_0GH@EOCNBNE@C?3?2Program?5Files?5?$CIx86?$CJ?2Microsof@ 00000001400543c0     Game.obj
 0003:00001440       ??_C@_1MO@JGHLKOIO@?$AAC?$AA?3?$AA?2?$AAP?$AAr?$AAo?$AAg?$AAr?$AAa?$AAm?$AA?5?$AAF?$AAi?$AAl?$AAe@ 0000000140054440     Game.obj
 0003:00001538       ??_C@_0CO@CCCJIBKO@invalid?5min?5and?5max?5arguments?5f@ 0000000140054538     Game.obj
 0003:00001570       ??_C@_1FC@FNLBOEA@?$AAs?$AAt?$AAd?$AA?3?$AA?3?$AAu?$AAn?$AAi?$AAf?$AAo?$AAr?$AAm?$AA_?$AAi?$AAn@ 0000000140054570     Game.obj
 0003:000015e0       ??_C@_1GA@FJHEAOJP@?$AA?$CC?$AAi?$AAn?$AAv?$AAa?$AAl?$AAi?$AAd?$AA?5?$AAm?$AAi?$AAn?$AA?5?$AAa?$AAn@ 00000001400545e0     Game.obj
 0003:00001660       ??_C@_1EO@GFNCMDLA@?$AAs?$AAt?$AAd?$AA?3?$AA?3?$AA_?$AAA?$AAl?$AAl?$AAo?$AAc?$AAa?$AAt?$AAe?$AA_@ 0000000140054660     Game.obj
 0003:000016c0       __real@3dcccccd            00000001400546c0     Game.obj
 0003:000016c8       __real@3f80624dd2f1a9fc    00000001400546c8     Game.obj
 0003:00001a20       ??_7PlayerHandler@player@domain_layer@@6B@ 0000000140054a20     Player.obj
 0003:00001a60       ??_7Player@player@domain_layer@@6B@ 0000000140054a60     Player.obj
 0003:00001a98       ??_C@_0BA@JFNIOLAK@string?5too?5long@ 0000000140054a98     Player.obj
 0003:00002068       ??_C@_0BL@BPOAKEPP@SDL?5could?5not?5initialize?4?6@ 0000000140055068     PlayZone.obj
 0003:00002088       ??_C@_01EEMJAFIK@?6@       0000000140055088     PlayZone.obj
 0003:00002090       ??_C@_0M@LKHPNPKG@SDL_Error?3?5@ 0000000140055090     PlayZone.obj
 0003:000020a0       ??_C@_0L@JDHNFNCF@Snake?5Game@ 00000001400550a0     PlayZone.obj
 0003:000020b0       ??_C@_0BO@NPJEHDLP@Window?5could?5not?5be?5created?4?6@ 00000001400550b0     PlayZone.obj
 0003:000020d8       ??_C@_0N@HNKABELO@?5SDL_Error?3?5@ 00000001400550d8     PlayZone.obj
 0003:000020e8       ??_C@_0CA@FHBBMNOK@Renderer?5could?5not?5be?5created?4?6@ 00000001400550e8     PlayZone.obj
 0003:00002110       ??_C@_06CJPMNLAP@?5FPS?3?5@ 0000000140055110     PlayZone.obj
 0003:00002118       ??_C@_0O@FPMBCNLE@Snake?5Score?3?5@ 0000000140055118     PlayZone.obj
 0003:00002130       ??_C@_0GJ@GDKIGMBO@C?3?2Program?5Files?5?$CIx86?$CJ?2Microsof@ 0000000140055130     PlayZone.obj
 0003:000021b0       ??_C@_0BI@CFPLBAOH@invalid?5string?5position@ 00000001400551b0     PlayZone.obj
 0003:000021d0       ??_C@_0BJ@HAJGEHKO@transposed?5pointer?5range@ 00000001400551d0     PlayZone.obj
 0003:000021f0       ??_C@_1NC@OIIHGCJJ@?$AAC?$AA?3?$AA?2?$AAP?$AAr?$AAo?$AAg?$AAr?$AAa?$AAm?$AA?5?$AAF?$AAi?$AAl?$AAe@ 00000001400551f0     PlayZone.obj
 0003:000022f0       ??_C@_1CG@LJCPDKEJ@?$AAs?$AAt?$AAd?$AA?3?$AA?3?$AA_?$AAV?$AAe?$AAr?$AAi?$AAf?$AAy?$AA_?$AAr?$AAa@ 00000001400552f0     PlayZone.obj
 0003:00002320       ??_C@_1DG@FJIKMGFD@?$AA?$CC?$AAt?$AAr?$AAa?$AAn?$AAs?$AAp?$AAo?$AAs?$AAe?$AAd?$AA?5?$AAp?$AAo?$AAi@ 0000000140055320     PlayZone.obj
 0003:00002678       ??_C@_0BJ@LFDBABJJ@ITERATOR?5LIST?5CORRUPTED?$CB@ 0000000140055678     Snake.obj
 0003:000026a0       ??_C@_1EE@KLDMFDFL@?$AAs?$AAt?$AAd?$AA?3?$AA?3?$AA_?$AAI?$AAt?$AAe?$AAr?$AAa?$AAt?$AAo?$AAr?$AA_@ 00000001400556a0     Snake.obj
 0003:000026f8       ??_C@_1DG@PLBPCAEM@?$AA?$CC?$AAI?$AAT?$AAE?$AAR?$AAA?$AAT?$AAO?$AAR?$AA?5?$AAL?$AAI?$AAS?$AAT?$AA?5@ 00000001400556f8     Snake.obj
 0003:00002738       ??_C@_0CE@EAMOGAIE@vector?5erase?5iterator?5outside?5r@ 0000000140055738     Snake.obj
 0003:00002770       ??_C@_0GH@OOPCKGB@C?3?2Program?5Files?5?$CIx86?$CJ?2Microsof@ 0000000140055770     Snake.obj
 0003:000027f0       ??_C@_1MO@NOOOHLI@?$AAC?$AA?3?$AA?2?$AAP?$AAr?$AAo?$AAg?$AAr?$AAa?$AAm?$AA?5?$AAF?$AAi?$AAl?$AAe@ 00000001400557f0     Snake.obj
 0003:000028f0       ??_C@_1JK@KACNJKIE@?$AAs?$AAt?$AAd?$AA?3?$AA?3?$AAv?$AAe?$AAc?$AAt?$AAo?$AAr?$AA?$DM?$AAs?$AAt?$AAr@ 00000001400558f0     Snake.obj
 0003:000029b0       ??_C@_1EM@BEMPOGMM@?$AA?$CC?$AAv?$AAe?$AAc?$AAt?$AAo?$AAr?$AA?5?$AAe?$AAr?$AAa?$AAs?$AAe?$AA?5?$AAi@ 00000001400559b0     Snake.obj
 0003:00002a10       ??_C@_0BD@OLBABOEK@vector?$DMT?$DO?5too?5long@ 0000000140055a10     Snake.obj
 0003:00002b50       ??_C@_0GI@PBEGAEEH@C?3?2Program?5Files?5?$CIx86?$CJ?2Microsof@ 0000000140055b50     main.obj
 0003:00002bd0       ??_C@_0GI@HCALAGOG@C?3?2Program?5Files?5?$CIx86?$CJ?2Microsof@ 0000000140055bd0     main.obj
 0003:00002c50       ??_C@_0N@LPFKKEBD@?3AM?3am?3PM?3pm@ 0000000140055c50     main.obj
 0003:00002c60       ??_C@_1BK@MHIKGOKE@?$AA?3?$AAA?$AAM?$AA?3?$AAa?$AAm?$AA?3?$AAP?$AAM?$AA?3?$AAp?$AAm@ 0000000140055c60     main.obj
 0003:00003c28       ??_7bad_cast@std@@6B@      0000000140056c28     CreditCard.obj
 0003:00003c40       ??_C@_08EPJLHIJG@bad?5cast@ 0000000140056c40     CreditCard.obj
 0003:00003c58       ??_7LoggerHandler@Logging@technical_services_layer@@6B@ 0000000140056c58     CreditCard.obj
 0003:00003c78       ??_7SimpleLogger@Logging@technical_services_layer@@6B@ 0000000140056c78     CreditCard.obj
 0003:00003c90       ??_C@_0CK@PCFGOCAD@Simple?5Logger?5initialization?5su@ 0000000140056c90     CreditCard.obj
 0003:00003cc8       ??_C@_0CE@HLNLKCMN@Simple?5Logger?5shutdown?5successf@ 0000000140056cc8     CreditCard.obj
 0003:00003cf4       ??_C@_03LGOGDKEL@?5?$HM?5@ 0000000140056cf4     CreditCard.obj
 0003:00003cf8       ??_C@_0M@EHAPGNAC@?$CFY?9?$CFm?9?$CFd?5?$CFX@ 0000000140056cf8     CreditCard.obj
 0003:00003d10       ??_7CreditCard@payment@technical_services_layer@@6B@ 0000000140056d10     CreditCard.obj
 0003:00003d30       ??_7VisaCard@payment@technical_services_layer@@6B@ 0000000140056d30     CreditCard.obj
 0003:00003d50       ??_7MasterCard@payment@technical_services_layer@@6B@ 0000000140056d50     CreditCard.obj
 0003:00003d70       ??_7CreditCardFactory@payment@technical_services_layer@@6B@ 0000000140056d70     CreditCard.obj
 0003:00003d88       ??_7VisaCardFactory@payment@technical_services_layer@@6B@ 0000000140056d88     CreditCard.obj
 0003:00003da0       ??_7MasterCardFactory@payment@technical_services_layer@@6B@ 0000000140056da0     CreditCard.obj
 0003:00003db8       ??_7?$basic_filebuf@DU?$char_traits@D@std@@@std@@6B@ 0000000140056db8     CreditCard.obj
 0003:00003e58       ??_7?$basic_ifstream@DU?$char_traits@D@std@@@std@@6B@ 0000000140056e58     CreditCard.obj
 0003:00003e68       ??_8?$basic_ifstream@DU?$char_traits@D@std@@@std@@7B@ 0000000140056e68     CreditCard.obj
 0003:00003e78       ??_C@_0DI@DAIKGNA@?4?4?1?4?4?1?4?4?1SourceCode?1technical_s@ 0000000140056e78     CreditCard.obj
 0003:00003ec0       ??_C@_0BM@EKEIGLLN@Failed?5to?5open?5config?5file?4@ 0000000140056ec0     CreditCard.obj
 0003:00003ee4       ??_C@_04CDDACJOL@visa@     0000000140056ee4     CreditCard.obj
 0003:00003ef0       ??_C@_0L@EEKBNKPG@mastercard@ 0000000140056ef0     CreditCard.obj
 0003:00003f00       ??_C@_0DC@BEBLDMBH@Unsupported?5credit?5card?5type?5fo@ 0000000140056f00     CreditCard.obj
 0003:00003f40       ??_C@_0BI@NGPHDAFK@Visa?5payment?5sucessful?4@ 0000000140056f40     CreditCard.obj
 0003:00003f60       ??_C@_0BO@HAAAKAOE@MasterCard?5payment?5sucessful?4@ 0000000140056f60     CreditCard.obj
 0003:00003f90       ??_C@_0GI@KAEHDKAJ@C?3?2Program?5Files?5?$CIx86?$CJ?2Microsof@ 0000000140056f90     CreditCard.obj
 0003:00004010       ??_C@_1NA@MNJEKPBN@?$AAC?$AA?3?$AA?2?$AAP?$AAr?$AAo?$AAg?$AAr?$AAa?$AAm?$AA?5?$AAF?$AAi?$AAl?$AAe@ 0000000140057010     CreditCard.obj
 0003:00004110       ??_C@_0BP@PFIPNLNI@front?$CI?$CJ?5called?5on?5empty?5string@ 0000000140057110     CreditCard.obj
 0003:00004140       ??_C@_1LC@BJDDPGPA@?$AAs?$AAt?$AAd?$AA?3?$AA?3?$AAb?$AAa?$AAs?$AAi?$AAc?$AA_?$AAs?$AAt?$AAr?$AAi@ 0000000140057140     CreditCard.obj
 0003:00004220       ??_C@_1EC@DINNLDHA@?$AA?$CC?$AAf?$AAr?$AAo?$AAn?$AAt?$AA?$CI?$AA?$CJ?$AA?5?$AAc?$AAa?$AAl?$AAl?$AAe?$AAd@ 0000000140057220     CreditCard.obj
 0003:00005c73       ??_C@_00CNPNBAHC@@         0000000140058c73     Storage.obj
 0003:00005c80       ??_7PersistenceHandler@Persistence@technical_services_layer@@6B@ 0000000140058c80     Storage.obj
 0003:00005cf0       ??_7Storage@Persistence@technical_services_layer@@6B@ 0000000140058cf0     Storage.obj
 0003:00005d58       ??_C@_0DC@BDIDFPED@Persistance?5storage?5has?5success@ 0000000140058d58     Storage.obj
 0003:00005d98       ??_C@_0CC@MFAFIFJ@Persistance?5storage?5has?5shutdow@ 0000000140058d98     Storage.obj
 0003:00005dc8       ??_7?$basic_ofstream@DU?$char_traits@D@std@@@std@@6B@ 0000000140058dc8     Storage.obj
 0003:00005dd8       ??_8?$basic_ofstream@DU?$char_traits@D@std@@@std@@7B@ 0000000140058dd8     Storage.obj
 0003:00005df0       ??_C@_0EA@FBOBLMFP@?4?4?1?4?4?1?4?4?1SourceCode?1technical_s@ 0000000140058df0     Storage.obj
 0003:00005e40       ??_C@_0CB@BGANLEB@Failed?5to?5open?5credentials?5file@ 0000000140058e40     Storage.obj
 0003:00005e68       ??_C@_0CO@HFLCJKDN@?4?4?1?4?4?1?4?4?1SourceCode?1technical_s@ 0000000140058e68     Storage.obj
 0003:00005ea0       ??_C@_04LCMACLFG@?4txt@    0000000140058ea0     Storage.obj
 0003:00005ea8       ??_C@_0BO@EJMMDMKE@Failed?5to?5create?5player?5file?4@ 0000000140058ea8     Storage.obj
 0003:00005ecc       ??_C@_01CLKCMJKC@?5@       0000000140058ecc     Storage.obj
 0003:00005ed8       ??_7?$basic_stringbuf@DU?$char_traits@D@std@@V?$allocator@D@2@@std@@6B@ 0000000140058ed8     Storage.obj
 0003:00005f78       ??_7?$basic_istringstream@DU?$char_traits@D@std@@V?$allocator@D@2@@std@@6B@ 0000000140058f78     Storage.obj
 0003:00005f88       ??_8?$basic_istringstream@DU?$char_traits@D@std@@V?$allocator@D@2@@std@@7B@ 0000000140058f88     Storage.obj
 0003:00005f94       ??_C@_05JEBDMKHG@admin@    0000000140058f94     Storage.obj
 0003:00005f9c       ??_C@_04GGHMAKJH@q123@     0000000140058f9c     Storage.obj
 0003:00005fa4       ??_C@_05BMABFKKB@?4temp@   0000000140058fa4     Storage.obj
 0003:00005fb0       ??_C@_0CN@GLOKKDKG@Critical?5Error?3?5credentials?5fil@ 0000000140058fb0     Storage.obj
 0003:00005fe8       ??_C@_0BM@KDCJJBKB@Failed?5to?5open?5player?5file?4@ 0000000140058fe8     Storage.obj
 0003:00006010       ??_C@_0DC@KEKNBAEB@can?8t?5increment?5value?9initializ@ 0000000140059010     Storage.obj
 0003:00006050       ??_C@_1NI@CDNGJJHP@?$AAs?$AAt?$AAd?$AA?3?$AA?3?$AA_?$AAV?$AAe?$AAc?$AAt?$AAo?$AAr?$AA_?$AAc?$AAo@ 0000000140059050     Storage.obj
 0003:00006160       ??_C@_1GI@EDCILPL@?$AA?$CC?$AAc?$AAa?$AAn?$AA?8?$AAt?$AA?5?$AAi?$AAn?$AAc?$AAr?$AAe?$AAm?$AAe?$AAn@ 0000000140059160     Storage.obj
 0003:000061e0       ??_C@_0CJ@OAAAAGPM@can?8t?5increment?5vector?5iterator@ 00000001400591e0     Storage.obj
 0003:00006220       ??_C@_1FG@LDPPKMGP@?$AA?$CC?$AAc?$AAa?$AAn?$AA?8?$AAt?$AA?5?$AAi?$AAn?$AAc?$AAr?$AAe?$AAm?$AAe?$AAn@ 0000000140059220     Storage.obj
 0003:00006288       ??_C@_0DE@CHADHGFF@can?8t?5dereference?5value?9initial@ 0000000140059288     Storage.obj
 0003:000062d0       ??_C@_1NG@DAPFFJEF@?$AAs?$AAt?$AAd?$AA?3?$AA?3?$AA_?$AAV?$AAe?$AAc?$AAt?$AAo?$AAr?$AA_?$AAc?$AAo@ 00000001400592d0     Storage.obj
 0003:000063d0       ??_C@_1GM@FNBFNBEL@?$AA?$CC?$AAc?$AAa?$AAn?$AA?8?$AAt?$AA?5?$AAd?$AAe?$AAr?$AAe?$AAf?$AAe?$AAr?$AAe@ 00000001400593d0     Storage.obj
 0003:00006458       ??_C@_0CP@MDHADBHN@can?8t?5dereference?5out?5of?5range?5@ 0000000140059458     Storage.obj
 0003:00006490       ??_C@_1GC@JDCKOLAC@?$AA?$CC?$AAc?$AAa?$AAn?$AA?8?$AAt?$AA?5?$AAd?$AAe?$AAr?$AAe?$AAf?$AAe?$AAr?$AAe@ 0000000140059490     Storage.obj
 0003:00006508       ??_C@_0BO@CAOBBIOC@vector?5iterators?5incompatible@ 0000000140059508     Storage.obj
 0003:00006530       ??_C@_1NA@KDANOKNP@?$AAs?$AAt?$AAd?$AA?3?$AA?3?$AA_?$AAV?$AAe?$AAc?$AAt?$AAo?$AAr?$AA_?$AAc?$AAo@ 0000000140059530     Storage.obj
 0003:00006630       ??_C@_1EA@DJDGNIII@?$AA?$CC?$AAv?$AAe?$AAc?$AAt?$AAo?$AAr?$AA?5?$AAi?$AAt?$AAe?$AAr?$AAa?$AAt?$AAo@ 0000000140059630     Storage.obj
 0003:00006680       ??_C@_0CO@LHPFLLJB@cannot?5seek?5value?9initialized?5v@ 0000000140059680     Storage.obj
 0003:000066c0       ??_C@_1NO@FMJOGJCJ@?$AAs?$AAt?$AAd?$AA?3?$AA?3?$AA_?$AAV?$AAe?$AAc?$AAt?$AAo?$AAr?$AA_?$AAc?$AAo@ 00000001400596c0     Storage.obj
 0003:000067d0       ??_C@_1GA@EIHBFEJD@?$AA?$CC?$AAc?$AAa?$AAn?$AAn?$AAo?$AAt?$AA?5?$AAs?$AAe?$AAe?$AAk?$AA?5?$AAv?$AAa@ 00000001400597d0     Storage.obj
 0003:00006848       ??_C@_0CJ@DIFMEJBE@cannot?5seek?5vector?5iterator?5bef@ 0000000140059848     Storage.obj
 0003:00006880       ??_C@_1FG@JCGKNFIB@?$AA?$CC?$AAc?$AAa?$AAn?$AAn?$AAo?$AAt?$AA?5?$AAs?$AAe?$AAe?$AAk?$AA?5?$AAv?$AAe@ 0000000140059880     Storage.obj
 0003:000068e8       ??_C@_0CG@JDIOCKHH@cannot?5seek?5vector?5iterator?5aft@ 00000001400598e8     Storage.obj
 0003:00006920       ??_C@_1FA@LCODAPOP@?$AA?$CC?$AAc?$AAa?$AAn?$AAn?$AAo?$AAt?$AA?5?$AAs?$AAe?$AAe?$AAk?$AA?5?$AAv?$AAe@ 0000000140059920     Storage.obj
 0003:00006980       ??_C@_0BD@FEEMDEPI@invalid?5comparator@ 0000000140059980     Storage.obj
 0003:000069a0       ??_C@_0GK@EEDLHHLD@C?3?2Program?5Files?5?$CIx86?$CJ?2Microsof@ 00000001400599a0     Storage.obj
 0003:00006a20       ??_C@_1NE@BOCHNKFM@?$AAC?$AA?3?$AA?2?$AAP?$AAr?$AAo?$AAg?$AAr?$AAa?$AAm?$AA?5?$AAF?$AAi?$AAl?$AAe@ 0000000140059a20     Storage.obj
 0003:00006b20       ??_C@_1BC@BLAPCBGI@?$AAs?$AAt?$AAd?$AA?3?$AA?3?$AAm?$AAi?$AAn@ 0000000140059b20     Storage.obj
 0003:00006b38       ??_C@_1CK@NDNHPKPI@?$AA?$CC?$AAi?$AAn?$AAv?$AAa?$AAl?$AAi?$AAd?$AA?5?$AAc?$AAo?$AAm?$AAp?$AAa?$AAr@ 0000000140059b38     Storage.obj
 0003:00006b70       ??_C@_0CG@PHHCFCMA@vector?5emplace?5iterator?5outside@ 0000000140059b70     Storage.obj
 0003:00006ba0       ??_C@_1BCK@MBGNFDGO@?$AAs?$AAt?$AAd?$AA?3?$AA?3?$AAv?$AAe?$AAc?$AAt?$AAo?$AAr?$AA?$DM?$AAs?$AAt?$AAr@ 0000000140059ba0     Storage.obj
 0003:00006d10       ??_C@_1FA@JJEJIKGE@?$AA?$CC?$AAv?$AAe?$AAc?$AAt?$AAo?$AAr?$AA?5?$AAe?$AAm?$AAp?$AAl?$AAa?$AAc?$AAe@ 0000000140059d10     Storage.obj
 0003:00007e50       ??_7ViewHandler@view@ui_layer@@6B@ 000000014005ae50     View.obj
 0003:00007e70       ??_7View@view@ui_layer@@6B@ 000000014005ae70     View.obj
 0003:00007e88       ??_C@_0DG@PPFABNIN@View?5being?5used?5and?5has?5been?5su@ 000000014005ae88     View.obj
 0003:00007ec8       ??_C@_0BL@OFIFOMML@View?5shutdown?5successfully@ 000000014005aec8     View.obj
 0003:00007ee8       ??_C@_03LCPHGAHP@cls@      000000014005aee8     View.obj
 0003:00007ef0       ??_C@_0DF@HKMLLIJM@?$BL?$FL1?$DL31m?9?9?9?9?9?9?9?9?9?9?9?9?9?9?9?9?9?9?9?9?9?9?9?9@ 000000014005aef0     View.obj
 0003:00007f30       ??_C@_0CG@BFLGPPEN@?5?5?5?5Welcome?5to?5game?5station?5men@ 000000014005af30     View.obj
 0003:00007f60       ??_C@_0DD@OIKJGJIH@?$BL?$FL32m?9?9?9?9?9?9?9?9?9?9?9?9?9?9?9?9?9?9?9?9?9?9?9?9?9?9@ 000000014005af60     View.obj
 0003:00007fa0       ??_C@_0BO@BLBLNBGN@1?5?9?5Create?5New?5Player?5Account@ 000000014005afa0     View.obj
 0003:00007fc8       ??_C@_0BI@GLOIDOLI@2?5?9?5Player?5login?5?5?5?5?5?5?5@ 000000014005afc8     View.obj
 0003:00007fe8       ??_C@_0BI@ECDAJNFO@3?5?9?5Exit?5?5?5?5?5?5?5?5?5?5?5?5?5?5?5@ 000000014005afe8     View.obj
 0003:00008008       ??_C@_0CK@OHPHFMNE@?9?9?9?9?9?9?9?9?9?9?9?9?9?9?9?9?9?9?9?9?9?9?9?9?9?9?9?9?9?9?9@ 000000014005b008     View.obj
 0003:00008040       ??_C@_0BE@OGJGLPCI@Enter?5your?5choice?3?5@ 000000014005b040     View.obj
 0003:00008058       ??_C@_0BK@NLIMOLCP@Invalid?5option?5selected?5?6@ 000000014005b058     View.obj
 0003:00008078       ??_C@_0BH@IAEICIMF@Press?5enter?5to?5retry?5?6@ 000000014005b078     View.obj
 0003:00008098       ??_C@_0BM@DKGMJKGP@?9?9?9?9?9?9?9?9?9?9?9?9?9?9?9?9?9?9?9?9?9?9?9?9?9?9?9@ 000000014005b098     View.obj
 0003:000080c0       ??_C@_0BM@HJLOFKBN@?5?5?5?5Player?5Registration?5?5?5?5@ 000000014005b0c0     View.obj
 0003:000080e8       ??_C@_0BI@MKKGGENH@Please?5Enter?5username?3?5@ 000000014005b0e8     View.obj
 0003:00008108       ??_C@_0BB@LAEJCAEB@Enter?5password?3?5@ 000000014005b108     View.obj
 0003:00008120       ??_C@_0BL@OMDLFFAC@Username?5is?5already?5taken?4@ 000000014005b120     View.obj
 0003:00008140       ??_C@_0CJ@IFELNDIK@Player?5registration?5failed?4?5Ret@ 000000014005b140     View.obj
 0003:00008178       ??_C@_0CA@IKEDJEOC@Player?5registration?5successfull@ 000000014005b178     View.obj
 0003:000081a0       ??_C@_0CA@MDAHJHJI@Thank?5you?5for?5choosing?5our?5game@ 000000014005b1a0     View.obj
 0003:000081c8       ??_C@_0BJ@ONICFHCC@Returning?5to?5main?5screen@ 000000014005b1c8     View.obj
 0003:000081e8       ??_C@_0BI@IIAOBMHD@Press?5enter?5to?5continue@ 000000014005b1e8     View.obj
 0003:00008208       ??_C@_0BP@MOMGDLHL@?9?9?9?9?9?9?9?9?9?9?9?9?9?9?9?9?9?9?9?9?9?9?9?9?9?9?9?9?9?9@ 000000014005b208     View.obj
 0003:00008230       ??_C@_0BM@FNKOMKCG@?5?5?5?5?5?5?5?5?5Player?5Login?5?5?5?5?5?5@ 000000014005b230     View.obj
 0003:00008258       ??_C@_0BG@ELLGOJLD@Enter?5your?5username?3?5@ 000000014005b258     View.obj
 0003:00008278       ??_C@_0BG@JIIKPABK@Enter?5your?5password?3?5@ 000000014005b278     View.obj
 0003:00008298       ??_C@_0BO@JMMMHJJK@Invalid?5username?5or?5password?4@ 000000014005b298     View.obj
 0003:000082c0       ??_C@_0BJ@EBLFAKDC@Player?5login?5successfull@ 000000014005b2c0     View.obj
 0003:000082e0       ??_C@_0CA@FNLGKEFM@?5?5?5?5?5?5?5?5?5Snake?5Game?5Menu?5?5?5?5?5?5?5@ 000000014005b2e0     View.obj
 0003:00008308       ??_C@_0CC@HJNHLNGD@1?5?9?5Play?5Snake?5Game?5?5?5?5?5?5?5?5?5?5?5?5@ 000000014005b308     View.obj
 0003:00008330       ??_C@_0CD@ILKDADJL@2?5?9?5Buy?5premium?5version?5?5?5?5?5?5?5?5@ 000000014005b330     View.obj
 0003:00008360       ??_C@_0BM@KOKGLFFD@3?5?9?5View?5previous?5scores?5?5?5@ 000000014005b360     View.obj
 0003:00008388       ??_C@_0BM@OMNFCNI@4?5?9?5View?5Leaderboard?5?5?5?5?5?5?5@ 000000014005b388     View.obj
 0003:000083b0       ??_C@_0BE@FACNCEIO@5?5?9?5Game?5help?5?5?5?5?5?5@ 000000014005b3b0     View.obj
 0003:000083c8       ??_C@_0BM@OBBKANAC@6?5?9?5Logout?5?5?5?5?5?5?5?5?5?5?5?5?5?5?5?5?5@ 000000014005b3c8     View.obj
 0003:000083f0       ??_C@_0BL@MDJCONFA@Please?5enter?5your?5choice?3?5@ 000000014005b3f0     View.obj
 0003:00008410       ??_C@_0BJ@CLCHBJB@Invalid?5choice?5provided?4@ 000000014005b410     View.obj
 0003:00008430       ??_C@_0BF@HGIPDIDN@Press?5enter?5to?5retry@ 000000014005b430     View.obj
 0003:00008450       ??_C@_0BA@HPJGGEA@Username?3?5admin@ 000000014005b450     View.obj
 0003:00008468       ??_C@_0BI@ENPOKPMF@Invalid?5admin?5password?4@ 000000014005b468     View.obj
 0003:00008488       ??_C@_0BC@EFDKNLOJ@Please?5try?5again?4@ 000000014005b488     View.obj
 0003:000084a0       ??_C@_0BH@FJPLCOPP@System?5start?5initiated@ 000000014005b4a0     View.obj
 0003:000084c0       ??_C@_0P@IFHKDODG@System?5started@ 000000014005b4c0     View.obj
 0003:000084d8       ??_C@_0BL@COEBBMBA@Press?5enter?5to?5continue?4?4?4@ 000000014005b4d8     View.obj
 0003:000084f8       ??_C@_0BJ@GELJNFON@Your?5game?5limit?5is?5over?4@ 000000014005b4f8     View.obj
 0003:00008518       ??_C@_0CO@GCOCNHNC@Please?5buy?5premium?5version?5to?5p@ 000000014005b518     View.obj
 0003:00008550       ??_C@_0CD@DFFHLGEO@Game?5has?5terminated?5successfull@ 000000014005b550     View.obj
 0003:00008580       ??_C@_07DBBKMPDO@Score?3?5@ 000000014005b580     View.obj
 0003:00008590       ??_C@_0BD@KEIDEELK@?5?5?5Payment?5Info?5?5?5@ 000000014005b590     View.obj
 0003:000085a8       ??_C@_0BD@EMMMLPFN@?9?9?9?9?9?9?9?9?9?9?9?9?9?9?9?9?9?9@ 000000014005b5a8     View.obj
 0003:000085c0       ??_C@_0BO@DCDEHBKH@Card?5type?5?$CIvisa?1mastercard?$CJ?3?5@ 000000014005b5c0     View.obj
 0003:000085e8       ??_C@_0P@NOCHKFKF@Name?5on?5card?3?5@ 000000014005b5e8     View.obj
 0003:00008600       ??_C@_0BF@KLIEAAIB@Credit?5card?5number?3?5@ 000000014005b600     View.obj
 0003:00008620       ??_C@_0P@GDNMEDAI@Expiry?5month?3?5@ 000000014005b620     View.obj
 0003:00008638       ??_C@_0O@KLGFKCGG@Expiry?5year?3?5@ 000000014005b638     View.obj
 0003:00008648       ??_C@_05CCLMAIGP@CVV?3?5@  000000014005b648     View.obj
 0003:00008650       ??_C@_0CF@BFANJKPI@Wait?5while?5we?5process?5the?5payme@ 000000014005b650     View.obj
 0003:00008680       ??_C@_0BM@IEHKBLAG@Credit?5card?5payment?5failed?4@ 000000014005b680     View.obj
 0003:000086a8       ??_C@_0BD@PJHABHOL@Previous?515?5scores@ 000000014005b6a8     View.obj
 0003:000086c0       ??_C@_02KCKGHPCA@?$CJ?5@   000000014005b6c0     View.obj
 0003:000086c8       ??_C@_0M@MHLGOFJG@Leaderboard@ 000000014005b6c8     View.obj
 0003:000086d8       ??_C@_0BB@OAGJBGHP@?9?9?9?9?9?9?9?9?9?9?9?9?9?9?9?9@ 000000014005b6d8     View.obj
 0003:000086ec       ??_C@_03NDEAONJP@?5?5?5@   000000014005b6ec     View.obj
 0003:000086f0       ??_C@_02GIPFHKNO@OK@       000000014005b6f0     View.obj
 0003:000086f8       ??_C@_0L@JNFOPKEE@GAME?5OVER?$CB@ 000000014005b6f8     View.obj
 0003:00008708       ??_C@_0BM@DJFOPBBE@Press?5OK?5to?5go?5to?5main?5menu@ 000000014005b708     View.obj
 0003:00008730       ??_C@_0BN@BINLPIBP@error?5displaying?5message?5box@ 000000014005b730     View.obj
 0003:00008758       ??_C@_0N@PBGNHGLN@no?5selection@ 000000014005b758     View.obj
 0003:00008768       ??_C@_09HFAJNPOO@Score?3?5?$CFd@ 000000014005b768     View.obj
 0003:00008780       ??_C@_1BCG@DMILBCMK@?$AAs?$AAt?$AAd?$AA?3?$AA?3?$AA_?$AAV?$AAe?$AAc?$AAt?$AAo?$AAr?$AA_?$AAc?$AAo@ 000000014005b780     View.obj
 0003:000088e0       ??_C@_1BCE@DAINFINE@?$AAs?$AAt?$AAd?$AA?3?$AA?3?$AA_?$AAV?$AAe?$AAc?$AAt?$AAo?$AAr?$AA_?$AAc?$AAo@ 000000014005b8e0     View.obj
 0003:00008a40       ??_C@_1BBO@PJKBGHCB@?$AAs?$AAt?$AAd?$AA?3?$AA?3?$AA_?$AAV?$AAe?$AAc?$AAt?$AAo?$AAr?$AA_?$AAc?$AAo@ 000000014005ba40     View.obj
 0003:00008b98       ??_C@_0DI@PBEELKIF@vector?5iterators?5in?5range?5are?5f@ 000000014005bb98     View.obj
 0003:00008be0       ??_C@_1HE@KBMFDAFB@?$AA?$CC?$AAv?$AAe?$AAc?$AAt?$AAo?$AAr?$AA?5?$AAi?$AAt?$AAe?$AAr?$AAa?$AAt?$AAo@ 000000014005bbe0     View.obj
 0003:00008c70       ??_C@_0CB@LIAHLBAO@vector?5iterator?5range?5transpose@ 000000014005bc70     View.obj
 0003:00008ca0       ??_C@_1EG@ODKBEHFN@?$AA?$CC?$AAv?$AAe?$AAc?$AAt?$AAo?$AAr?$AA?5?$AAi?$AAt?$AAe?$AAr?$AAa?$AAt?$AAo@ 000000014005bca0     View.obj
 0003:00008cf8       ??_C@_1CI@JONCLBEJ@?$AAs?$AAt?$AAd?$AA?3?$AA?3?$AA_?$AAD?$AAe?$AAb?$AAu?$AAg?$AA_?$AAl?$AAt?$AA_@ 000000014005bcf8     View.obj
 0003:00008d58       ??_C@_0DN@EIOJNLCM@d?3?2agent?2_work?23?2s?2src?2vctools?2@ 000000014005bd58     msvcprtd:locale0_implib.obj
 0003:00008db0       ??_7type_info@@6B@         000000014005bdb0     MSVCRTD:std_type_info_static.obj
 0003:00008dc0       ??_C@_0P@GHFPNOJB@bad?5allocation@ 000000014005bdc0     MSVCRTD:throw_bad_alloc.obj
 0003:00008ec0       ??_C@_0NN@JMPELKLB@The?5value?5of?5ESP?5was?5not?5proper@ 000000014005bec0     MSVCRTD:error.obj
 0003:00008fd0       ??_C@_0BBN@ELNNILBE@A?5cast?5to?5a?5smaller?5data?5type?5h@ 000000014005bfd0     MSVCRTD:error.obj
 0003:00009128       ??_C@_0BN@BPOGFMJL@Stack?5memory?5was?5corrupted?$AN?6@ 000000014005c128     MSVCRTD:error.obj
 0003:00009150       ??_C@_0DG@DAJCDLPN@A?5local?5variable?5was?5used?5befor@ 000000014005c150     MSVCRTD:error.obj
 0003:00009190       ??_C@_0CM@JMIDGKLA@Stack?5memory?5around?5_alloca?5was@ 000000014005c190     MSVCRTD:error.obj
 0003:000091c8       ??_C@_0BO@CHIONIOI@Unknown?5Runtime?5Check?5Error?$AN?6@ 000000014005c1c8     MSVCRTD:error.obj
 0003:000091f0       ??_C@_1GM@CNOOJIHC@?$AAR?$AAu?$AAn?$AAt?$AAi?$AAm?$AAe?$AA?5?$AAC?$AAh?$AAe?$AAc?$AAk?$AA?5?$AAE@ 000000014005c1f0     MSVCRTD:error.obj
 0003:00009280       ??_C@_1EA@NFKNIFJP@?$AAR?$AAu?$AAn?$AA?9?$AAT?$AAi?$AAm?$AAe?$AA?5?$AAC?$AAh?$AAe?$AAc?$AAk?$AA?5@ 000000014005c280     MSVCRTD:error.obj
 0003:000092d0       ??_C@_0BB@PFFGGCJP@Unknown?5Filename@ 000000014005c2d0     MSVCRTD:error.obj
 0003:000092e8       ??_C@_0BE@GNBOBNCK@Unknown?5Module?5Name@ 000000014005c2e8     MSVCRTD:error.obj
 0003:00009300       ??_C@_0CA@IODNCDPG@Run?9Time?5Check?5Failure?5?$CD?$CFd?5?9?5?$CFs@ 000000014005c300     MSVCRTD:error.obj
 0003:00009328       ??_C@_0CG@IAFNJNEE@Stack?5corrupted?5near?5unknown?5va@ 000000014005c328     MSVCRTD:error.obj
 0003:00009358       ??_C@_05MKKEDADM@?$CF?42X?5@ 000000014005c358     MSVCRTD:error.obj
 0003:00009360       ??_C@_0EJ@LJKNEOLN@Stack?5area?5around?5_alloca?5memor@ 000000014005c360     MSVCRTD:error.obj
 0003:000093b8       ??_C@_02LLMPMKNF@?$DO?5@   000000014005c3b8     MSVCRTD:error.obj
 0003:000093c0       ??_C@_08OMAHNMHJ@?6Data?3?5?$DM@ 000000014005c3c0     MSVCRTD:error.obj
 0003:000093d0       ??_C@_0CK@DKGBICFE@?6Allocation?5number?5within?5this?5@ 000000014005c3d0     MSVCRTD:error.obj
 0003:00009408       ??_C@_07DFDJCKFN@?6Size?3?5@ 000000014005c408     MSVCRTD:error.obj
 0003:00009418       ??_C@_0N@MHFFIMFG@?6Address?3?50x@ 000000014005c418     MSVCRTD:error.obj
 0003:00009430       ??_C@_0EI@CLEPFNGI@Stack?5area?5around?5_alloca?5memor@ 000000014005c430     MSVCRTD:error.obj
 0003:00009488       ??_C@_0BK@ODNDAGKB@?$CFs?$CFs?$CFp?$CFs?$CFzd?$CFs?$CFd?$CFs?$CFs?$CFs?$CFs?$CFs@ 000000014005c488     MSVCRTD:error.obj
 0003:000094a8       ??_C@_0DE@OHJBPMBP@A?5variable?5is?5being?5used?5withou@ 000000014005c4a8     MSVCRTD:error.obj
 0003:00009518       ??_C@_0BJ@HEGAHDFO@Stack?5pointer?5corruption@ 000000014005c518     MSVCRTD:userapi.obj
 0003:00009538       ??_C@_0CK@FEGOIOPB@Cast?5to?5smaller?5type?5causing?5lo@ 000000014005c538     MSVCRTD:userapi.obj
 0003:00009570       ??_C@_0BI@CIGMDCBH@Stack?5memory?5corruption@ 000000014005c570     MSVCRTD:userapi.obj
 0003:00009590       ??_C@_0CK@CNLNOEPB@Local?5variable?5used?5before?5init@ 000000014005c590     MSVCRTD:userapi.obj
 0003:000095c8       ??_C@_0BP@OGBCLIBO@Stack?5around?5_alloca?5corrupted@ 000000014005c5c8     MSVCRTD:userapi.obj
 0003:00009670       ??_C@_1EI@MLPKHBGE@?$AAa?$AAp?$AAi?$AA?9?$AAm?$AAs?$AA?9?$AAw?$AAi?$AAn?$AA?9?$AAc?$AAo?$AAr?$AAe@ 000000014005c670     MSVCRTD:pdblkup.obj
 0003:000096c8       ??_C@_1BK@JHLNAEJL@?$AAa?$AAd?$AAv?$AAa?$AAp?$AAi?$AA3?$AA2?$AA?4?$AAd?$AAl?$AAl@ 000000014005c6c8     MSVCRTD:pdblkup.obj
 0003:000096e8       ??_C@_0O@COHOBMLB@RegOpenKeyExW@ 000000014005c6e8     MSVCRTD:pdblkup.obj
 0003:000096f8       ??_C@_0BB@GLNAEDBD@RegQueryValueExW@ 000000014005c6f8     MSVCRTD:pdblkup.obj
 0003:00009710       ??_C@_0M@HLOHPNFA@RegCloseKey@ 000000014005c710     MSVCRTD:pdblkup.obj
 0003:00009720       ??_C@_1HE@EBEAGLFB@?$AAS?$AAO?$AAF?$AAT?$AAW?$AAA?$AAR?$AAE?$AA?2?$AAW?$AAo?$AAw?$AA6?$AA4?$AA3@ 000000014005c720     MSVCRTD:pdblkup.obj
 0003:000097b0       ??_C@_1BG@EABPBLLF@?$AAP?$AAr?$AAo?$AAd?$AAu?$AAc?$AAt?$AAD?$AAi?$AAr@ 000000014005c7b0     MSVCRTD:pdblkup.obj
 0003:000097f8       ??_C@_1BC@JINFINNJ@?$AAM?$AAS?$AAP?$AAD?$AAB?$AA1?$AA4?$AA0@ 000000014005c7f8     MSVCRTD:pdblkup.obj
 0003:00009810       ??_C@_0BB@KCIACLNC@PDBOpenValidate5@ 000000014005c810     MSVCRTD:pdblkup.obj
 0003:00009824       ??_C@_01KDCPPGHE@r@        000000014005c824     MSVCRTD:pdblkup.obj
 0003:00009828       ??_C@_0M@HFFOIJBL@Fatal?5Error?$AA@ 000000014005c828     SDL2main:SDL_windows_main.obj
 0003:00009838       ??_C@_0BJ@HFNMHALN@Out?5of?5memory?5?9?5aborting?$AA@ 000000014005c838     SDL2main:SDL_windows_main.obj
 0003:00009858       ??_C@_05EGJIMALK@UTF?98?$AA@ 000000014005c858     SDL2main:SDL_windows_main.obj
 0003:00009860       ??_C@_08NBDJLNFA@UTF?916LE?$AA@ 000000014005c860     SDL2main:SDL_windows_main.obj
 0003:000098b0       _load_config_used          000000014005c8b0     MSVCRTD:loadcfg.obj
 0003:00009cf0       ??_R4exception@std@@6B@    000000014005ccf0     Game.obj
 0003:00009d20       ??_R3exception@std@@8      000000014005cd20     Game.obj
 0003:00009d38       ??_R2exception@std@@8      000000014005cd38     Game.obj
 0003:00009d48       ??_R1A@?0A@EA@exception@std@@8 000000014005cd48     Game.obj
 0003:00009d78       ??_R4bad_alloc@std@@6B@    000000014005cd78     Game.obj
 0003:00009da8       ??_R3bad_alloc@std@@8      000000014005cda8     Game.obj
 0003:00009dc0       ??_R2bad_alloc@std@@8      000000014005cdc0     Game.obj
 0003:00009dd8       ??_R1A@?0A@EA@bad_alloc@std@@8 000000014005cdd8     Game.obj
 0003:00009e08       ??_R4bad_array_new_length@std@@6B@ 000000014005ce08     Game.obj
 0003:00009e38       ??_R3bad_array_new_length@std@@8 000000014005ce38     Game.obj
 0003:00009e50       ??_R2bad_array_new_length@std@@8 000000014005ce50     Game.obj
 0003:00009e78       ??_R1A@?0A@EA@bad_array_new_length@std@@8 000000014005ce78     Game.obj
 0003:00009ea8       ??_R4PlayerHandler@player@domain_layer@@6B@ 000000014005cea8     Player.obj
 0003:00009ed8       ??_R3PlayerHandler@player@domain_layer@@8 000000014005ced8     Player.obj
 0003:00009ef0       ??_R2PlayerHandler@player@domain_layer@@8 000000014005cef0     Player.obj
 0003:00009f00       ??_R1A@?0A@EA@PlayerHandler@player@domain_layer@@8 000000014005cf00     Player.obj
 0003:00009f30       ??_R4Player@player@domain_layer@@6B@ 000000014005cf30     Player.obj
 0003:00009f60       ??_R3Player@player@domain_layer@@8 000000014005cf60     Player.obj
 0003:00009f78       ??_R2Player@player@domain_layer@@8 000000014005cf78     Player.obj
 0003:00009f90       ??_R1A@?0A@EA@Player@player@domain_layer@@8 000000014005cf90     Player.obj
 0003:00009fc0       ??_R4?$basic_filebuf@DU?$char_traits@D@std@@@std@@6B@ 000000014005cfc0     CreditCard.obj
 0003:00009ff0       ??_R3?$basic_filebuf@DU?$char_traits@D@std@@@std@@8 000000014005cff0     CreditCard.obj
 0003:0000a008       ??_R2?$basic_filebuf@DU?$char_traits@D@std@@@std@@8 000000014005d008     CreditCard.obj
 0003:0000a020       ??_R1A@?0A@EA@?$basic_filebuf@DU?$char_traits@D@std@@@std@@8 000000014005d020     CreditCard.obj
 0003:0000a050       ??_R1A@?0A@EA@?$basic_streambuf@DU?$char_traits@D@std@@@std@@8 000000014005d050     CreditCard.obj
 0003:0000a080       ??_R3?$basic_streambuf@DU?$char_traits@D@std@@@std@@8 000000014005d080     CreditCard.obj
 0003:0000a098       ??_R2?$basic_streambuf@DU?$char_traits@D@std@@@std@@8 000000014005d098     CreditCard.obj
 0003:0000a0a8       ??_R4?$basic_ifstream@DU?$char_traits@D@std@@@std@@6B@ 000000014005d0a8     CreditCard.obj
 0003:0000a0d8       ??_R3?$basic_ifstream@DU?$char_traits@D@std@@@std@@8 000000014005d0d8     CreditCard.obj
 0003:0000a0f0       ??_R2?$basic_ifstream@DU?$char_traits@D@std@@@std@@8 000000014005d0f0     CreditCard.obj
 0003:0000a128       ??_R1A@?0A@EA@?$basic_ifstream@DU?$char_traits@D@std@@@std@@8 000000014005d128     CreditCard.obj
 0003:0000a158       ??_R1A@?0A@EA@?$basic_istream@DU?$char_traits@D@std@@@std@@8 000000014005d158     CreditCard.obj
 0003:0000a188       ??_R3?$basic_istream@DU?$char_traits@D@std@@@std@@8 000000014005d188     CreditCard.obj
 0003:0000a1a0       ??_R2?$basic_istream@DU?$char_traits@D@std@@@std@@8 000000014005d1a0     CreditCard.obj
 0003:0000a1d0       ??_R1A@A@3FA@?$basic_ios@DU?$char_traits@D@std@@@std@@8 000000014005d1d0     CreditCard.obj
 0003:0000a200       ??_R3?$basic_ios@DU?$char_traits@D@std@@@std@@8 000000014005d200     CreditCard.obj
 0003:0000a218       ??_R2?$basic_ios@DU?$char_traits@D@std@@@std@@8 000000014005d218     CreditCard.obj
 0003:0000a240       ??_R1A@?0A@EA@?$basic_ios@DU?$char_traits@D@std@@@std@@8 000000014005d240     CreditCard.obj
 0003:0000a270       ??_R1A@?0A@EA@ios_base@std@@8 000000014005d270     CreditCard.obj
 0003:0000a2a0       ??_R3ios_base@std@@8       000000014005d2a0     CreditCard.obj
 0003:0000a2b8       ??_R2ios_base@std@@8       000000014005d2b8     CreditCard.obj
 0003:0000a2d0       ??_R17?0A@EA@?$_Iosb@H@std@@8 000000014005d2d0     CreditCard.obj
 0003:0000a300       ??_R3?$_Iosb@H@std@@8      000000014005d300     CreditCard.obj
 0003:0000a318       ??_R2?$_Iosb@H@std@@8      000000014005d318     CreditCard.obj
 0003:0000a328       ??_R1A@?0A@EA@?$_Iosb@H@std@@8 000000014005d328     CreditCard.obj
 0003:0000a358       ??_R1A@A@3EA@ios_base@std@@8 000000014005d358     CreditCard.obj
 0003:0000a388       ??_R17A@3EA@?$_Iosb@H@std@@8 000000014005d388     CreditCard.obj
 0003:0000a3b8       ??_R4bad_cast@std@@6B@     000000014005d3b8     CreditCard.obj
 0003:0000a3e8       ??_R3bad_cast@std@@8       000000014005d3e8     CreditCard.obj
 0003:0000a400       ??_R2bad_cast@std@@8       000000014005d400     CreditCard.obj
 0003:0000a418       ??_R1A@?0A@EA@bad_cast@std@@8 000000014005d418     CreditCard.obj
 0003:0000a448       ??_R4LoggerHandler@Logging@technical_services_layer@@6B@ 000000014005d448     CreditCard.obj
 0003:0000a478       ??_R3LoggerHandler@Logging@technical_services_layer@@8 000000014005d478     CreditCard.obj
 0003:0000a490       ??_R2LoggerHandler@Logging@technical_services_layer@@8 000000014005d490     CreditCard.obj
 0003:0000a4a0       ??_R1A@?0A@EA@LoggerHandler@Logging@technical_services_layer@@8 000000014005d4a0     CreditCard.obj
 0003:0000a4d0       ??_R4SimpleLogger@Logging@technical_services_layer@@6B@ 000000014005d4d0     CreditCard.obj
 0003:0000a500       ??_R3SimpleLogger@Logging@technical_services_layer@@8 000000014005d500     CreditCard.obj
 0003:0000a518       ??_R2SimpleLogger@Logging@technical_services_layer@@8 000000014005d518     CreditCard.obj
 0003:0000a530       ??_R1A@?0A@EA@SimpleLogger@Logging@technical_services_layer@@8 000000014005d530     CreditCard.obj
 0003:0000a560       ??_R4CreditCard@payment@technical_services_layer@@6B@ 000000014005d560     CreditCard.obj
 0003:0000a590       ??_R3CreditCard@payment@technical_services_layer@@8 000000014005d590     CreditCard.obj
 0003:0000a5a8       ??_R2CreditCard@payment@technical_services_layer@@8 000000014005d5a8     CreditCard.obj
 0003:0000a5b8       ??_R1A@?0A@EA@CreditCard@payment@technical_services_layer@@8 000000014005d5b8     CreditCard.obj
 0003:0000a5e8       ??_R4VisaCard@payment@technical_services_layer@@6B@ 000000014005d5e8     CreditCard.obj
 0003:0000a618       ??_R3VisaCard@payment@technical_services_layer@@8 000000014005d618     CreditCard.obj
 0003:0000a630       ??_R2VisaCard@payment@technical_services_layer@@8 000000014005d630     CreditCard.obj
 0003:0000a648       ??_R1A@?0A@EA@VisaCard@payment@technical_services_layer@@8 000000014005d648     CreditCard.obj
 0003:0000a678       ??_R4MasterCard@payment@technical_services_layer@@6B@ 000000014005d678     CreditCard.obj
 0003:0000a6a8       ??_R3MasterCard@payment@technical_services_layer@@8 000000014005d6a8     CreditCard.obj
 0003:0000a6c0       ??_R2MasterCard@payment@technical_services_layer@@8 000000014005d6c0     CreditCard.obj
 0003:0000a6d8       ??_R1A@?0A@EA@MasterCard@payment@technical_services_layer@@8 000000014005d6d8     CreditCard.obj
 0003:0000a708       ??_R4CreditCardFactory@payment@technical_services_layer@@6B@ 000000014005d708     CreditCard.obj
 0003:0000a738       ??_R3CreditCardFactory@payment@technical_services_layer@@8 000000014005d738     CreditCard.obj
 0003:0000a750       ??_R2CreditCardFactory@payment@technical_services_layer@@8 000000014005d750     CreditCard.obj
 0003:0000a760       ??_R1A@?0A@EA@CreditCardFactory@payment@technical_services_layer@@8 000000014005d760     CreditCard.obj
 0003:0000a790       ??_R4VisaCardFactory@payment@technical_services_layer@@6B@ 000000014005d790     CreditCard.obj
 0003:0000a7c0       ??_R3VisaCardFactory@payment@technical_services_layer@@8 000000014005d7c0     CreditCard.obj
 0003:0000a7d8       ??_R2VisaCardFactory@payment@technical_services_layer@@8 000000014005d7d8     CreditCard.obj
 0003:0000a7f0       ??_R1A@?0A@EA@VisaCardFactory@payment@technical_services_layer@@8 000000014005d7f0     CreditCard.obj
 0003:0000a820       ??_R4MasterCardFactory@payment@technical_services_layer@@6B@ 000000014005d820     CreditCard.obj
 0003:0000a850       ??_R3MasterCardFactory@payment@technical_services_layer@@8 000000014005d850     CreditCard.obj
 0003:0000a868       ??_R2MasterCardFactory@payment@technical_services_layer@@8 000000014005d868     CreditCard.obj
 0003:0000a880       ??_R1A@?0A@EA@MasterCardFactory@payment@technical_services_layer@@8 000000014005d880     CreditCard.obj
 0003:0000a8b0       ??_R4?$basic_stringbuf@DU?$char_traits@D@std@@V?$allocator@D@2@@std@@6B@ 000000014005d8b0     Storage.obj
 0003:0000a8e0       ??_R3?$basic_stringbuf@DU?$char_traits@D@std@@V?$allocator@D@2@@std@@8 000000014005d8e0     Storage.obj
 0003:0000a8f8       ??_R2?$basic_stringbuf@DU?$char_traits@D@std@@V?$allocator@D@2@@std@@8 000000014005d8f8     Storage.obj
 0003:0000a910       ??_R1A@?0A@EA@?$basic_stringbuf@DU?$char_traits@D@std@@V?$allocator@D@2@@std@@8 000000014005d910     Storage.obj
 0003:0000a940       ??_R4?$basic_istringstream@DU?$char_traits@D@std@@V?$allocator@D@2@@std@@6B@ 000000014005d940     Storage.obj
 0003:0000a970       ??_R3?$basic_istringstream@DU?$char_traits@D@std@@V?$allocator@D@2@@std@@8 000000014005d970     Storage.obj
 0003:0000a988       ??_R2?$basic_istringstream@DU?$char_traits@D@std@@V?$allocator@D@2@@std@@8 000000014005d988     Storage.obj
 0003:0000a9c0       ??_R1A@?0A@EA@?$basic_istringstream@DU?$char_traits@D@std@@V?$allocator@D@2@@std@@8 000000014005d9c0     Storage.obj
 0003:0000a9f0       ??_R4?$basic_ofstream@DU?$char_traits@D@std@@@std@@6B@ 000000014005d9f0     Storage.obj
 0003:0000aa20       ??_R3?$basic_ofstream@DU?$char_traits@D@std@@@std@@8 000000014005da20     Storage.obj
 0003:0000aa38       ??_R2?$basic_ofstream@DU?$char_traits@D@std@@@std@@8 000000014005da38     Storage.obj
 0003:0000aa70       ??_R1A@?0A@EA@?$basic_ofstream@DU?$char_traits@D@std@@@std@@8 000000014005da70     Storage.obj
 0003:0000aaa0       ??_R1A@?0A@EA@?$basic_ostream@DU?$char_traits@D@std@@@std@@8 000000014005daa0     Storage.obj
 0003:0000aad0       ??_R3?$basic_ostream@DU?$char_traits@D@std@@@std@@8 000000014005dad0     Storage.obj
 0003:0000aae8       ??_R2?$basic_ostream@DU?$char_traits@D@std@@@std@@8 000000014005dae8     Storage.obj
 0003:0000ab18       ??_R4PersistenceHandler@Persistence@technical_services_layer@@6B@ 000000014005db18     Storage.obj
 0003:0000ab48       ??_R3PersistenceHandler@Persistence@technical_services_layer@@8 000000014005db48     Storage.obj
 0003:0000ab60       ??_R2PersistenceHandler@Persistence@technical_services_layer@@8 000000014005db60     Storage.obj
 0003:0000ab70       ??_R1A@?0A@EA@PersistenceHandler@Persistence@technical_services_layer@@8 000000014005db70     Storage.obj
 0003:0000aba0       ??_R4Storage@Persistence@technical_services_layer@@6B@ 000000014005dba0     Storage.obj
 0003:0000abd0       ??_R3Storage@Persistence@technical_services_layer@@8 000000014005dbd0     Storage.obj
 0003:0000abe8       ??_R2Storage@Persistence@technical_services_layer@@8 000000014005dbe8     Storage.obj
 0003:0000ac00       ??_R1A@?0A@EA@Storage@Persistence@technical_services_layer@@8 000000014005dc00     Storage.obj
 0003:0000ac30       ??_R4ViewHandler@view@ui_layer@@6B@ 000000014005dc30     View.obj
 0003:0000ac60       ??_R3ViewHandler@view@ui_layer@@8 000000014005dc60     View.obj
 0003:0000ac78       ??_R2ViewHandler@view@ui_layer@@8 000000014005dc78     View.obj
 0003:0000ac88       ??_R1A@?0A@EA@ViewHandler@view@ui_layer@@8 000000014005dc88     View.obj
 0003:0000acb8       ??_R4View@view@ui_layer@@6B@ 000000014005dcb8     View.obj
 0003:0000ace8       ??_R3View@view@ui_layer@@8 000000014005dce8     View.obj
 0003:0000ad00       ??_R2View@view@ui_layer@@8 000000014005dd00     View.obj
 0003:0000ad18       ??_R1A@?0A@EA@View@view@ui_layer@@8 000000014005dd18     View.obj
 0003:0000ad48       ??_R4type_info@@6B@        000000014005dd48     MSVCRTD:std_type_info_static.obj
 0003:0000ad78       ??_R3type_info@@8          000000014005dd78     MSVCRTD:std_type_info_static.obj
 0003:0000ad90       ??_R2type_info@@8          000000014005dd90     MSVCRTD:std_type_info_static.obj
 0003:0000ada0       ??_R1A@?0A@EA@type_info@@8 000000014005dda0     MSVCRTD:std_type_info_static.obj
 0003:0000b120       __rtc_iaa                  000000014005e120     MSVCRTD:initsect.obj
 0003:0000b3d0       __rtc_izz                  000000014005e3d0     MSVCRTD:initsect.obj
 0003:0000b4e0       __rtc_taa                  000000014005e4e0     MSVCRTD:initsect.obj
 0003:0000b790       __rtc_tzz                  000000014005e790     MSVCRTD:initsect.obj
 0003:000120d0       _TI3?AVbad_array_new_length@std@@ 00000001400650d0     Game.obj
 0003:000120f0       _CTA3?AVbad_array_new_length@std@@ 00000001400650f0     Game.obj
 0003:00012110       _CT??_R0?AVbad_array_new_length@std@@@8??0bad_array_new_length@std@@QEAA@AEBV01@@Z24 0000000140065110     Game.obj
 0003:00012138       _CT??_R0?AVbad_alloc@std@@@8??0bad_alloc@std@@QEAA@AEBV01@@Z24 0000000140065138     Game.obj
 0003:00012160       _CT??_R0?AVexception@std@@@8??0exception@std@@QEAA@AEBV01@@Z24 0000000140065160     Game.obj
 0003:00012188       _TI2?AVbad_cast@std@@      0000000140065188     CreditCard.obj
 0003:000121a8       _CTA2?AVbad_cast@std@@     00000001400651a8     CreditCard.obj
 0003:000121c0       _CT??_R0?AVbad_cast@std@@@8??0bad_cast@std@@QEAA@AEBV01@@Z24 00000001400651c0     CreditCard.obj
 0003:000121e8       _TI2?AVbad_alloc@std@@     00000001400651e8     MSVCRTD:throw_bad_alloc.obj
 0003:00012208       _CTA2?AVbad_alloc@std@@    0000000140065208     MSVCRTD:throw_bad_alloc.obj
 0004:00000000       ?__LINE__Var@?0??_Adjust_manually_vector_aligned@std@@YAXAEAPEAXAEA_K@Z@4JA 0000000140066000     Game.obj
 0004:00000004       ?__LINE__Var@?0??_Maklocwcs@std@@YAPEA_WPEB_W@Z@4JA 0000000140066004     main.obj
 0004:00000040       __security_cookie_complement 0000000140066040     MSVCRTD:gs_cookie.obj
 0004:00000048       __security_cookie          0000000140066048     MSVCRTD:gs_cookie.obj
 0004:00000054       _fltused                   0000000140066054     MSVCRTD:fltused.obj
 0004:00000060       __scrt_native_dllmain_reason 0000000140066060     MSVCRTD:utility.obj
 0004:00000068       ?_RTC_ErrorLevels@@3PAHA   0000000140066068     MSVCRTD:error.obj
 0004:00000080       __scrt_default_matherr     0000000140066080     MSVCRTD:matherr.obj
 0004:00000088       __isa_available            0000000140066088     MSVCRTD:cpu_disp.obj
 0004:0000008c       __isa_enabled              000000014006608c     MSVCRTD:cpu_disp.obj
 0004:00000090       __memcpy_nt_iters          0000000140066090     MSVCRTD:cpu_disp.obj
 0004:00000098       __memset_nt_iters          0000000140066098     MSVCRTD:cpu_disp.obj
 0004:000000b0       __scrt_ucrt_dll_is_in_use  00000001400660b0     MSVCRTD:ucrt_stubs.obj
 0004:000001d0       ??_R0?AVbad_array_new_length@std@@@8 00000001400661d0     Game.obj
 0004:00000208       ??_R0?AVbad_alloc@std@@@8  0000000140066208     Game.obj
 0004:00000238       ??_R0?AVexception@std@@@8  0000000140066238     Game.obj
 0004:00000268       ??_R0?AVPlayerHandler@player@domain_layer@@@8 0000000140066268     Player.obj
 0004:000002b0       ??_R0?AVPlayer@player@domain_layer@@@8 00000001400662b0     Player.obj
 0004:000002f0       ??_R0?AVbad_cast@std@@@8   00000001400662f0     CreditCard.obj
 0004:00000320       ??_R0?AV?$basic_filebuf@DU?$char_traits@D@std@@@std@@@8 0000000140066320     CreditCard.obj
 0004:00000370       ??_R0?AV?$basic_streambuf@DU?$char_traits@D@std@@@std@@@8 0000000140066370     CreditCard.obj
 0004:000003d0       ??_R0?AV?$basic_ifstream@DU?$char_traits@D@std@@@std@@@8 00000001400663d0     CreditCard.obj
 0004:00000420       ??_R0?AV?$basic_istream@DU?$char_traits@D@std@@@std@@@8 0000000140066420     CreditCard.obj
 0004:00000470       ??_R0?AV?$basic_ios@DU?$char_traits@D@std@@@std@@@8 0000000140066470     CreditCard.obj
 0004:000004c0       ??_R0?AVios_base@std@@@8   00000001400664c0     CreditCard.obj
 0004:000004f0       ??_R0?AV?$_Iosb@H@std@@@8  00000001400664f0     CreditCard.obj
 0004:00000520       ??_R0?AVLoggerHandler@Logging@technical_services_layer@@@8 0000000140066520     CreditCard.obj
 0004:00000580       ??_R0?AVSimpleLogger@Logging@technical_services_layer@@@8 0000000140066580     CreditCard.obj
 0004:000005e0       ??_R0?AVCreditCard@payment@technical_services_layer@@@8 00000001400665e0     CreditCard.obj
 0004:00000630       ??_R0?AVVisaCard@payment@technical_services_layer@@@8 0000000140066630     CreditCard.obj
 0004:00000680       ??_R0?AVMasterCard@payment@technical_services_layer@@@8 0000000140066680     CreditCard.obj
 0004:000006d0       ??_R0?AVCreditCardFactory@payment@technical_services_layer@@@8 00000001400666d0     CreditCard.obj
 0004:00000730       ??_R0?AVVisaCardFactory@payment@technical_services_layer@@@8 0000000140066730     CreditCard.obj
 0004:00000790       ??_R0?AVMasterCardFactory@payment@technical_services_layer@@@8 0000000140066790     CreditCard.obj
 0004:000007f0       ??_R0?AV?$basic_stringbuf@DU?$char_traits@D@std@@V?$allocator@D@2@@std@@@8 00000001400667f0     Storage.obj
 0004:00000860       ??_R0?AV?$basic_istringstream@DU?$char_traits@D@std@@V?$allocator@D@2@@std@@@8 0000000140066860     Storage.obj
 0004:000008d0       ??_R0?AV?$basic_ofstream@DU?$char_traits@D@std@@@std@@@8 00000001400668d0     Storage.obj
 0004:00000920       ??_R0?AV?$basic_ostream@DU?$char_traits@D@std@@@std@@@8 0000000140066920     Storage.obj
 0004:00000970       ??_R0?AUPersistenceHandler@Persistence@technical_services_layer@@@8 0000000140066970     Storage.obj
 0004:000009d0       ??_R0?AVStorage@Persistence@technical_services_layer@@@8 00000001400669d0     Storage.obj
 0004:00000a20       ??_R0?AVViewHandler@view@ui_layer@@@8 0000000140066a20     View.obj
 0004:00000a60       ??_R0?AVView@view@ui_layer@@@8 0000000140066a60     View.obj
 0004:00000a98       ??_R0?AVtype_info@@@8      0000000140066a98     MSVCRTD:std_type_info_static.obj
 0004:00000bf8       ?_Stinit@?1??_Init@?$basic_filebuf@DU?$char_traits@D@std@@@std@@IEAAXPEAU_iobuf@@W4_Initfl@23@@Z@4U_Mbstatet@@A 0000000140066bf8     CreditCard.obj
 0004:00000c08       ?_Psave@?$_Facetptr@V?$codecvt@DDU_Mbstatet@@@std@@@std@@2PEBVfacet@locale@2@EB 0000000140066c08     CreditCard.obj
 0004:00000c18       ?_Psave@?$_Facetptr@V?$time_put@DV?$ostreambuf_iterator@DU?$char_traits@D@std@@@std@@@std@@@std@@2PEBVfacet@locale@2@EB 0000000140066c18     CreditCard.obj
 0004:00000c28       ?_Psave@?$_Facetptr@V?$ctype@D@std@@@std@@2PEBVfacet@locale@2@EB 0000000140066c28     Storage.obj
 0004:00000c38       ?_OptionsStorage@?1??__local_stdio_printf_options@@9@4_KA 0000000140066c38     View.obj
 0004:00000c78       ?defaultAttributes@?1??win_change_attributes@_internal@termcolor@@YAXAEAV?$basic_ostream@DU?$char_traits@D@std@@@std@@HH@Z@4GA 0000000140066c78     View.obj
 0004:00000c98       __scrt_current_native_startup_state 0000000140066c98     MSVCRTD:utility.obj
 0004:00000ca0       __scrt_native_startup_lock 0000000140066ca0     MSVCRTD:utility.obj
 0004:000013a0       ?__type_info_root_node@@3U__type_info_node@@A 00000001400673a0     MSVCRTD:tncleanup.obj
 0004:000013b8       ?_OptionsStorage@?1??__local_stdio_scanf_options@@9@4_KA 00000001400673b8     MSVCRTD:default_local_stdio_options.obj
 0004:000013c4       __scrt_debugger_hook_flag  00000001400673c4     MSVCRTD:utility_desktop.obj
 0004:000013c8       __favor                    00000001400673c8     MSVCRTD:cpu_disp.obj
 0004:000013e0       __dyn_tls_dtor_callback    00000001400673e0     <common>
 0004:000013f8       __dyn_tls_init_callback    00000001400673f8     <common>
 0004:0000140c       __DebuggerCurrentSteppingThreadId 000000014006740c     <common>
 0006:00000000       __imp_GetCurrentThreadId   000000014006d000     kernel32:KERNEL32.dll
 0006:00000008       __imp_IsDebuggerPresent    000000014006d008     kernel32:KERNEL32.dll
 0006:00000010       __imp_RaiseException       000000014006d010     kernel32:KERNEL32.dll
 0006:00000018       __imp_MultiByteToWideChar  000000014006d018     kernel32:KERNEL32.dll
 0006:00000020       __imp_WideCharToMultiByte  000000014006d020     kernel32:KERNEL32.dll
 0006:00000028       __imp_RtlCaptureContext    000000014006d028     kernel32:KERNEL32.dll
 0006:00000030       __imp_RtlLookupFunctionEntry 000000014006d030     kernel32:KERNEL32.dll
 0006:00000038       __imp_RtlVirtualUnwind     000000014006d038     kernel32:KERNEL32.dll
 0006:00000040       __imp_UnhandledExceptionFilter 000000014006d040     kernel32:KERNEL32.dll
 0006:00000048       __imp_SetUnhandledExceptionFilter 000000014006d048     kernel32:KERNEL32.dll
 0006:00000050       __imp_GetCurrentProcess    000000014006d050     kernel32:KERNEL32.dll
 0006:00000058       __imp_TerminateProcess     000000014006d058     kernel32:KERNEL32.dll
 0006:00000060       __imp_IsProcessorFeaturePresent 000000014006d060     kernel32:KERNEL32.dll
 0006:00000068       __imp_QueryPerformanceCounter 000000014006d068     kernel32:KERNEL32.dll
 0006:00000070       __imp_GetCurrentProcessId  000000014006d070     kernel32:KERNEL32.dll
 0006:00000078       __imp_GetSystemTimeAsFileTime 000000014006d078     kernel32:KERNEL32.dll
 0006:00000080       __imp_InitializeSListHead  000000014006d080     kernel32:KERNEL32.dll
 0006:00000088       __imp_GetStartupInfoW      000000014006d088     kernel32:KERNEL32.dll
 0006:00000090       __imp_GetModuleHandleW     000000014006d090     kernel32:KERNEL32.dll
 0006:00000098       __imp_GetLastError         000000014006d098     kernel32:KERNEL32.dll
 0006:000000a0       __imp_HeapAlloc            000000014006d0a0     kernel32:KERNEL32.dll
 0006:000000a8       __imp_HeapFree             000000014006d0a8     kernel32:KERNEL32.dll
 0006:000000b0       __imp_GetProcessHeap       000000014006d0b0     kernel32:KERNEL32.dll
 0006:000000b8       __imp_VirtualQuery         000000014006d0b8     kernel32:KERNEL32.dll
 0006:000000c0       __imp_FreeLibrary          000000014006d0c0     kernel32:KERNEL32.dll
 0006:000000c8       __imp_GetStdHandle         000000014006d0c8     kernel32:KERNEL32.dll
 0006:000000d0       __imp_GetConsoleScreenBufferInfo 000000014006d0d0     kernel32:KERNEL32.dll
 0006:000000d8       __imp_SetConsoleTextAttribute 000000014006d0d8     kernel32:KERNEL32.dll
 0006:000000e0       __imp_GetProcAddress       000000014006d0e0     kernel32:KERNEL32.dll
 0006:000000e8       __imp_GetCommandLineW      000000014006d0e8     kernel32:KERNEL32.dll
 0006:000000f0       \177KERNEL32_NULL_THUNK_DATA 000000014006d0f0     kernel32:KERNEL32.dll
 0006:00000178       __imp_?_Random_device@std@@YAIXZ 000000014006d178     msvcprtd:MSVCP140D.dll
 0006:00000180       __imp_?_Xlength_error@std@@YAXPEBD@Z 000000014006d180     msvcprtd:MSVCP140D.dll
 0006:00000188       __imp_?uncaught_exception@std@@YA_NXZ 000000014006d188     msvcprtd:MSVCP140D.dll
 0006:00000190       __imp_?_Xout_of_range@std@@YAXPEBD@Z 000000014006d190     msvcprtd:MSVCP140D.dll
 0006:00000198       __imp_?good@ios_base@std@@QEBA_NXZ 000000014006d198     msvcprtd:MSVCP140D.dll
 0006:000001a0       __imp_?flags@ios_base@std@@QEBAHXZ 000000014006d1a0     msvcprtd:MSVCP140D.dll
 0006:000001a8       __imp_?width@ios_base@std@@QEBA_JXZ 000000014006d1a8     msvcprtd:MSVCP140D.dll
 0006:000001b0       __imp_?width@ios_base@std@@QEAA_J_J@Z 000000014006d1b0     msvcprtd:MSVCP140D.dll
 0006:000001b8       __imp_?sputc@?$basic_streambuf@DU?$char_traits@D@std@@@std@@QEAAHD@Z 000000014006d1b8     msvcprtd:MSVCP140D.dll
 0006:000001c0       __imp_?sputn@?$basic_streambuf@DU?$char_traits@D@std@@@std@@QEAA_JPEBD_J@Z 000000014006d1c0     msvcprtd:MSVCP140D.dll
 0006:000001c8       __imp_?setstate@?$basic_ios@DU?$char_traits@D@std@@@std@@QEAAXH_N@Z 000000014006d1c8     msvcprtd:MSVCP140D.dll
 0006:000001d0       __imp_?tie@?$basic_ios@DU?$char_traits@D@std@@@std@@QEBAPEAV?$basic_ostream@DU?$char_traits@D@std@@@2@XZ 000000014006d1d0     msvcprtd:MSVCP140D.dll
 0006:000001d8       __imp_?rdbuf@?$basic_ios@DU?$char_traits@D@std@@@std@@QEBAPEAV?$basic_streambuf@DU?$char_traits@D@std@@@2@XZ 000000014006d1d8     msvcprtd:MSVCP140D.dll
 0006:000001e0       __imp_?fill@?$basic_ios@DU?$char_traits@D@std@@@std@@QEBADXZ 000000014006d1e0     msvcprtd:MSVCP140D.dll
 0006:000001e8       __imp_?_Osfx@?$basic_ostream@DU?$char_traits@D@std@@@std@@QEAAXXZ 000000014006d1e8     msvcprtd:MSVCP140D.dll
 0006:000001f0       __imp_?flush@?$basic_ostream@DU?$char_traits@D@std@@@std@@QEAAAEAV12@XZ 000000014006d1f0     msvcprtd:MSVCP140D.dll
 0006:000001f8       __imp_?cerr@std@@3V?$basic_ostream@DU?$char_traits@D@std@@@1@A 000000014006d1f8     msvcprtd:MSVCP140D.dll
 0006:00000200       __imp_?_Xbad_alloc@std@@YAXXZ 000000014006d200     msvcprtd:MSVCP140D.dll
 0006:00000208       __imp__Mbrtowc             000000014006d208     msvcprtd:MSVCP140D.dll
 0006:00000210       __imp_?_Getcvt@_Locinfo@std@@QEBA?AU_Cvtvec@@XZ 000000014006d210     msvcprtd:MSVCP140D.dll
 0006:00000218       __imp_?_Getdays@_Locinfo@std@@QEBAPEBDXZ 000000014006d218     msvcprtd:MSVCP140D.dll
 0006:00000220       __imp_?_Getmonths@_Locinfo@std@@QEBAPEBDXZ 000000014006d220     msvcprtd:MSVCP140D.dll
 0006:00000228       __imp_?_W_Getdays@_Locinfo@std@@QEBAPEBGXZ 000000014006d228     msvcprtd:MSVCP140D.dll
 0006:00000230       __imp_?_W_Getmonths@_Locinfo@std@@QEBAPEBGXZ 000000014006d230     msvcprtd:MSVCP140D.dll
 0006:00000238       __imp_?xalloc@ios_base@std@@SAHXZ 000000014006d238     msvcprtd:MSVCP140D.dll
 0006:00000240       __imp_??Bid@locale@std@@QEAA_KXZ 000000014006d240     msvcprtd:MSVCP140D.dll
 0006:00000248       __imp_?_Getgloballocale@locale@std@@CAPEAV_Locimp@12@XZ 000000014006d248     msvcprtd:MSVCP140D.dll
 0006:00000250       __imp_?always_noconv@codecvt_base@std@@QEBA_NXZ 000000014006d250     msvcprtd:MSVCP140D.dll
 0006:00000258       __imp_?in@?$codecvt@DDU_Mbstatet@@@std@@QEBAHAEAU_Mbstatet@@PEBD1AEAPEBDPEAD3AEAPEAD@Z 000000014006d258     msvcprtd:MSVCP140D.dll
 0006:00000260       __imp_?out@?$codecvt@DDU_Mbstatet@@@std@@QEBAHAEAU_Mbstatet@@PEBD1AEAPEBDPEAD3AEAPEAD@Z 000000014006d260     msvcprtd:MSVCP140D.dll
 0006:00000268       __imp_?unshift@?$codecvt@DDU_Mbstatet@@@std@@QEBAHAEAU_Mbstatet@@PEAD1AEAPEAD@Z 000000014006d268     msvcprtd:MSVCP140D.dll
 0006:00000270       __imp_??0_Lockit@std@@QEAA@H@Z 000000014006d270     msvcprtd:MSVCP140D.dll
 0006:00000278       __imp_?getloc@ios_base@std@@QEBA?AVlocale@2@XZ 000000014006d278     msvcprtd:MSVCP140D.dll
 0006:00000280       __imp_??0?$basic_streambuf@DU?$char_traits@D@std@@@std@@IEAA@XZ 000000014006d280     msvcprtd:MSVCP140D.dll
 0006:00000288       __imp_??1?$basic_streambuf@DU?$char_traits@D@std@@@std@@UEAA@XZ 000000014006d288     msvcprtd:MSVCP140D.dll
 0006:00000290       __imp_?getloc@?$basic_streambuf@DU?$char_traits@D@std@@@std@@QEBA?AVlocale@2@XZ 000000014006d290     msvcprtd:MSVCP140D.dll
 0006:00000298       __imp_?sbumpc@?$basic_streambuf@DU?$char_traits@D@std@@@std@@QEAAHXZ 000000014006d298     msvcprtd:MSVCP140D.dll
 0006:000002a0       __imp_?sgetc@?$basic_streambuf@DU?$char_traits@D@std@@@std@@QEAAHXZ 000000014006d2a0     msvcprtd:MSVCP140D.dll
 0006:000002a8       __imp_?snextc@?$basic_streambuf@DU?$char_traits@D@std@@@std@@QEAAHXZ 000000014006d2a8     msvcprtd:MSVCP140D.dll
 0006:000002b0       __imp_?eback@?$basic_streambuf@DU?$char_traits@D@std@@@std@@IEBAPEADXZ 000000014006d2b0     msvcprtd:MSVCP140D.dll
 0006:000002b8       __imp_?gptr@?$basic_streambuf@DU?$char_traits@D@std@@@std@@IEBAPEADXZ 000000014006d2b8     msvcprtd:MSVCP140D.dll
 0006:000002c0       __imp_?pptr@?$basic_streambuf@DU?$char_traits@D@std@@@std@@IEBAPEADXZ 000000014006d2c0     msvcprtd:MSVCP140D.dll
 0006:000002c8       __imp_?egptr@?$basic_streambuf@DU?$char_traits@D@std@@@std@@IEBAPEADXZ 000000014006d2c8     msvcprtd:MSVCP140D.dll
 0006:000002d0       __imp_?gbump@?$basic_streambuf@DU?$char_traits@D@std@@@std@@IEAAXH@Z 000000014006d2d0     msvcprtd:MSVCP140D.dll
 0006:000002d8       __imp_?setg@?$basic_streambuf@DU?$char_traits@D@std@@@std@@IEAAXPEAD00@Z 000000014006d2d8     msvcprtd:MSVCP140D.dll
 0006:000002e0       __imp_?epptr@?$basic_streambuf@DU?$char_traits@D@std@@@std@@IEBAPEADXZ 000000014006d2e0     msvcprtd:MSVCP140D.dll
 0006:000002e8       __imp_?_Gndec@?$basic_streambuf@DU?$char_traits@D@std@@@std@@IEAAPEADXZ 000000014006d2e8     msvcprtd:MSVCP140D.dll
 0006:000002f0       __imp_?_Gninc@?$basic_streambuf@DU?$char_traits@D@std@@@std@@IEAAPEADXZ 000000014006d2f0     msvcprtd:MSVCP140D.dll
 0006:000002f8       __imp_?_Gnavail@?$basic_streambuf@DU?$char_traits@D@std@@@std@@IEBA_JXZ 000000014006d2f8     msvcprtd:MSVCP140D.dll
 0006:00000300       __imp_?pbump@?$basic_streambuf@DU?$char_traits@D@std@@@std@@IEAAXH@Z 000000014006d300     msvcprtd:MSVCP140D.dll
 0006:00000308       __imp_?_Pninc@?$basic_streambuf@DU?$char_traits@D@std@@@std@@IEAAPEADXZ 000000014006d308     msvcprtd:MSVCP140D.dll
 0006:00000310       __imp_?_Pnavail@?$basic_streambuf@DU?$char_traits@D@std@@@std@@IEBA_JXZ 000000014006d310     msvcprtd:MSVCP140D.dll
 0006:00000318       __imp_?_Init@?$basic_streambuf@DU?$char_traits@D@std@@@std@@IEAAXXZ 000000014006d318     msvcprtd:MSVCP140D.dll
 0006:00000320       __imp_?_Init@?$basic_streambuf@DU?$char_traits@D@std@@@std@@IEAAXPEAPEAD0PEAH001@Z 000000014006d320     msvcprtd:MSVCP140D.dll
 0006:00000328       __imp_?xsgetn@?$basic_streambuf@DU?$char_traits@D@std@@@std@@MEAA_JPEAD_J@Z 000000014006d328     msvcprtd:MSVCP140D.dll
 0006:00000330       __imp_?xsputn@?$basic_streambuf@DU?$char_traits@D@std@@@std@@MEAA_JPEBD_J@Z 000000014006d330     msvcprtd:MSVCP140D.dll
 0006:00000338       __imp_??1?$basic_ios@DU?$char_traits@D@std@@@std@@UEAA@XZ 000000014006d338     msvcprtd:MSVCP140D.dll
 0006:00000340       __imp_?widen@?$basic_ios@DU?$char_traits@D@std@@@std@@QEBADD@Z 000000014006d340     msvcprtd:MSVCP140D.dll
 0006:00000348       __imp_??0?$basic_ios@DU?$char_traits@D@std@@@std@@IEAA@XZ 000000014006d348     msvcprtd:MSVCP140D.dll
 0006:00000350       __imp_??6?$basic_ostream@DU?$char_traits@D@std@@@std@@QEAAAEAV01@P6AAEAV01@AEAV01@@Z@Z 000000014006d350     msvcprtd:MSVCP140D.dll
 0006:00000358       __imp_?put@?$basic_ostream@DU?$char_traits@D@std@@@std@@QEAAAEAV12@D@Z 000000014006d358     msvcprtd:MSVCP140D.dll
 0006:00000360       __imp_??0?$basic_istream@DU?$char_traits@D@std@@@std@@QEAA@PEAV?$basic_streambuf@DU?$char_traits@D@std@@@1@_N@Z 000000014006d360     msvcprtd:MSVCP140D.dll
 0006:00000368       __imp_??1?$basic_istream@DU?$char_traits@D@std@@@std@@UEAA@XZ 000000014006d368     msvcprtd:MSVCP140D.dll
 0006:00000370       __imp_?_Ipfx@?$basic_istream@DU?$char_traits@D@std@@@std@@QEAA_N_N@Z 000000014006d370     msvcprtd:MSVCP140D.dll
 0006:00000378       __imp_?_Fiopen@std@@YAPEAU_iobuf@@PEBDHH@Z 000000014006d378     msvcprtd:MSVCP140D.dll
 0006:00000380       __imp__Xtime_get_ticks     000000014006d380     msvcprtd:MSVCP140D.dll
 0006:00000388       __imp_?put@?$time_put@DV?$ostreambuf_iterator@DU?$char_traits@D@std@@@std@@@std@@QEBA?AV?$ostreambuf_iterator@DU?$char_traits@D@std@@@2@V32@AEAVios_base@2@DPEBUtm@@PEBD3@Z 000000014006d388     msvcprtd:MSVCP140D.dll
 0006:00000390       __imp_?_Getcat@?$time_put@DV?$ostreambuf_iterator@DU?$char_traits@D@std@@@std@@@std@@SA_KPEAPEBVfacet@locale@2@PEBV42@@Z 000000014006d390     msvcprtd:MSVCP140D.dll
 0006:00000398       __imp_?showmanyc@?$basic_streambuf@DU?$char_traits@D@std@@@std@@MEAA_JXZ 000000014006d398     msvcprtd:MSVCP140D.dll
 0006:000003a0       __imp_?id@?$codecvt@DDU_Mbstatet@@@std@@2V0locale@2@A 000000014006d3a0     msvcprtd:MSVCP140D.dll
 0006:000003a8       __imp_?cout@std@@3V?$basic_ostream@DU?$char_traits@D@std@@@1@A 000000014006d3a8     msvcprtd:MSVCP140D.dll
 0006:000003b0       __imp_?clog@std@@3V?$basic_ostream@DU?$char_traits@D@std@@@1@A 000000014006d3b0     msvcprtd:MSVCP140D.dll
 0006:000003b8       __imp_?id@?$time_put@DV?$ostreambuf_iterator@DU?$char_traits@D@std@@@std@@@std@@2V0locale@2@A 000000014006d3b8     msvcprtd:MSVCP140D.dll
 0006:000003c0       __imp_?is@?$ctype@D@std@@QEBA_NFD@Z 000000014006d3c0     msvcprtd:MSVCP140D.dll
 0006:000003c8       __imp_?_Getcat@?$ctype@D@std@@SA_KPEAPEBVfacet@locale@2@PEBV42@@Z 000000014006d3c8     msvcprtd:MSVCP140D.dll
 0006:000003d0       __imp_??Bios_base@std@@QEBA_NXZ 000000014006d3d0     msvcprtd:MSVCP140D.dll
 0006:000003d8       __imp_?setp@?$basic_streambuf@DU?$char_traits@D@std@@@std@@IEAAXPEAD0@Z 000000014006d3d8     msvcprtd:MSVCP140D.dll
 0006:000003e0       __imp_?setp@?$basic_streambuf@DU?$char_traits@D@std@@@std@@IEAAXPEAD00@Z 000000014006d3e0     msvcprtd:MSVCP140D.dll
 0006:000003e8       __imp_??0?$basic_ostream@DU?$char_traits@D@std@@@std@@QEAA@PEAV?$basic_streambuf@DU?$char_traits@D@std@@@1@_N@Z 000000014006d3e8     msvcprtd:MSVCP140D.dll
 0006:000003f0       __imp_??1?$basic_ostream@DU?$char_traits@D@std@@@std@@UEAA@XZ 000000014006d3f0     msvcprtd:MSVCP140D.dll
 0006:000003f8       __imp_??6?$basic_ostream@DU?$char_traits@D@std@@@std@@QEAAAEAV01@I@Z 000000014006d3f8     msvcprtd:MSVCP140D.dll
 0006:00000400       __imp_??5?$basic_istream@DU?$char_traits@D@std@@@std@@QEAAAEAV01@AEAI@Z 000000014006d400     msvcprtd:MSVCP140D.dll
 0006:00000408       __imp_?_Lock@?$basic_streambuf@DU?$char_traits@D@std@@@std@@UEAAXXZ 000000014006d408     msvcprtd:MSVCP140D.dll
 0006:00000410       __imp_?_Unlock@?$basic_streambuf@DU?$char_traits@D@std@@@std@@UEAAXXZ 000000014006d410     msvcprtd:MSVCP140D.dll
 0006:00000418       __imp_?imbue@?$basic_streambuf@DU?$char_traits@D@std@@@std@@MEAAXAEBVlocale@2@@Z 000000014006d418     msvcprtd:MSVCP140D.dll
 0006:00000420       __imp_?setbuf@?$basic_streambuf@DU?$char_traits@D@std@@@std@@MEAAPEAV12@PEAD_J@Z 000000014006d420     msvcprtd:MSVCP140D.dll
 0006:00000428       __imp_?sync@?$basic_streambuf@DU?$char_traits@D@std@@@std@@MEAAHXZ 000000014006d428     msvcprtd:MSVCP140D.dll
 0006:00000430       __imp_?uflow@?$basic_streambuf@DU?$char_traits@D@std@@@std@@MEAAHXZ 000000014006d430     msvcprtd:MSVCP140D.dll
 0006:00000438       __imp_?id@?$ctype@D@std@@2V0locale@2@A 000000014006d438     msvcprtd:MSVCP140D.dll
 0006:00000440       __imp_?iword@ios_base@std@@QEAAAEAJH@Z 000000014006d440     msvcprtd:MSVCP140D.dll
 0006:00000448       __imp_??1_Lockit@std@@QEAA@XZ 000000014006d448     msvcprtd:MSVCP140D.dll
 0006:00000450       __imp_?ignore@?$basic_istream@DU?$char_traits@D@std@@@std@@QEAAAEAV12@_JH@Z 000000014006d450     msvcprtd:MSVCP140D.dll
 0006:00000458       __imp_?cin@std@@3V?$basic_istream@DU?$char_traits@D@std@@@1@A 000000014006d458     msvcprtd:MSVCP140D.dll
 0006:00000460       __imp_?_Getcat@?$codecvt@DDU_Mbstatet@@@std@@SA_KPEAPEBVfacet@locale@2@PEBV42@@Z 000000014006d460     msvcprtd:MSVCP140D.dll
 0006:00000468       __imp_??6?$basic_ostream@DU?$char_traits@D@std@@@std@@QEAAAEAV01@H@Z 000000014006d468     msvcprtd:MSVCP140D.dll
 0006:00000470       \177MSVCP140D_NULL_THUNK_DATA 000000014006d470     msvcprtd:MSVCP140D.dll
 0006:00000560       __imp_SDL_ShowSimpleMessageBox 000000014006d560     SDL2:SDL2.dll
 0006:00000568       __imp_SDL_SetMainReady     000000014006d568     SDL2:SDL2.dll
 0006:00000570       __imp_SDL_free             000000014006d570     SDL2:SDL2.dll
 0006:00000578       __imp_SDL_malloc           000000014006d578     SDL2:SDL2.dll
 0006:00000580       __imp_SDL_iconv_string     000000014006d580     SDL2:SDL2.dll
 0006:00000588       __imp_SDL_DestroyRenderer  000000014006d588     SDL2:SDL2.dll
 0006:00000590       __imp_SDL_DestroyTexture   000000014006d590     SDL2:SDL2.dll
 0006:00000598       __imp_SDL_RenderCopy       000000014006d598     SDL2:SDL2.dll
 0006:000005a0       __imp_SDL_CreateTextureFromSurface 000000014006d5a0     SDL2:SDL2.dll
 0006:000005a8       __imp_SDL_ShowMessageBox   000000014006d5a8     SDL2:SDL2.dll
 0006:000005b0       __imp_SDL_Log              000000014006d5b0     SDL2:SDL2.dll
 0006:000005b8       __imp_SDL_GetTicks         000000014006d5b8     SDL2:SDL2.dll
 0006:000005c0       __imp_SDL_Quit             000000014006d5c0     SDL2:SDL2.dll
 0006:000005c8       __imp_SDL_Init             000000014006d5c8     SDL2:SDL2.dll
 0006:000005d0       __imp_SDL_RenderPresent    000000014006d5d0     SDL2:SDL2.dll
 0006:000005d8       __imp_SDL_RenderFillRect   000000014006d5d8     SDL2:SDL2.dll
 0006:000005e0       __imp_SDL_RenderClear      000000014006d5e0     SDL2:SDL2.dll
 0006:000005e8       __imp_SDL_SetRenderDrawColor 000000014006d5e8     SDL2:SDL2.dll
 0006:000005f0       __imp_SDL_CreateRenderer   000000014006d5f0     SDL2:SDL2.dll
 0006:000005f8       __imp_SDL_DestroyWindow    000000014006d5f8     SDL2:SDL2.dll
 0006:00000600       __imp_SDL_SetWindowTitle   000000014006d600     SDL2:SDL2.dll
 0006:00000608       __imp_SDL_CreateWindow     000000014006d608     SDL2:SDL2.dll
 0006:00000610       __imp_SDL_GetError         000000014006d610     SDL2:SDL2.dll
 0006:00000618       __imp_SDL_Delay            000000014006d618     SDL2:SDL2.dll
 0006:00000620       __imp_SDL_PollEvent        000000014006d620     SDL2:SDL2.dll
 0006:00000628       __imp_SDL_wcslen           000000014006d628     SDL2:SDL2.dll
 0006:00000630       \177SDL2_NULL_THUNK_DATA   000000014006d630     SDL2:SDL2.dll
 0006:000006b0       __imp_TTF_Quit             000000014006d6b0     SDL2_ttf:SDL2_ttf.dll
 0006:000006b8       __imp_TTF_CloseFont        000000014006d6b8     SDL2_ttf:SDL2_ttf.dll
 0006:000006c0       __imp_TTF_RenderText_Solid 000000014006d6c0     SDL2_ttf:SDL2_ttf.dll
 0006:000006c8       \177SDL2_ttf_NULL_THUNK_DATA 000000014006d6c8     SDL2_ttf:SDL2_ttf.dll
 0006:00000720       __imp___std_exception_copy 000000014006d720     vcruntimed:VCRUNTIME140D.dll
 0006:00000728       __imp___std_exception_destroy 000000014006d728     vcruntimed:VCRUNTIME140D.dll
 0006:00000730       __imp__CxxThrowException   000000014006d730     vcruntimed:VCRUNTIME140D.dll
 0006:00000738       __imp__purecall            000000014006d738     vcruntimed:VCRUNTIME140D.dll
 0006:00000740       __imp_memcpy               000000014006d740     vcruntimed:VCRUNTIME140D.dll
 0006:00000748       __imp_memcmp               000000014006d748     vcruntimed:VCRUNTIME140D.dll
 0006:00000750       __imp___CxxFrameHandler3   000000014006d750     vcruntimed:VCRUNTIME140D.dll
 0006:00000758       __imp___C_specific_handler 000000014006d758     vcruntimed:VCRUNTIME140D.dll
 0006:00000760       __imp___C_specific_handler_noexcept 000000014006d760     vcruntimed:VCRUNTIME140D.dll
 0006:00000768       __imp___std_type_info_destroy_list 000000014006d768     vcruntimed:VCRUNTIME140D.dll
 0006:00000770       __imp___current_exception  000000014006d770     vcruntimed:VCRUNTIME140D.dll
 0006:00000778       __imp___current_exception_context 000000014006d778     vcruntimed:VCRUNTIME140D.dll
 0006:00000780       __imp___vcrt_GetModuleFileNameW 000000014006d780     vcruntimed:VCRUNTIME140D.dll
 0006:00000788       __imp___vcrt_GetModuleHandleW 000000014006d788     vcruntimed:VCRUNTIME140D.dll
 0006:00000790       __imp___vcrt_LoadLibraryExW 000000014006d790     vcruntimed:VCRUNTIME140D.dll
 0006:00000798       __imp_memmove              000000014006d798     vcruntimed:VCRUNTIME140D.dll
 0006:000007a0       \177VCRUNTIME140D_NULL_THUNK_DATA 000000014006d7a0     vcruntimed:VCRUNTIME140D.dll
 0006:00000810       __imp___CxxFrameHandler4   000000014006d810     vcruntimed:VCRUNTIME140_1D.dll
 0006:00000818       \177VCRUNTIME140_1D_NULL_THUNK_DATA 000000014006d818     vcruntimed:VCRUNTIME140_1D.dll
 0006:00000870       __imp__seh_filter_exe      000000014006d870     ucrtd:ucrtbased.dll
 0006:00000878       __imp__set_app_type        000000014006d878     ucrtd:ucrtbased.dll
 0006:00000880       __imp___setusermatherr     000000014006d880     ucrtd:ucrtbased.dll
 0006:00000888       __imp__configure_narrow_argv 000000014006d888     ucrtd:ucrtbased.dll
 0006:00000890       __imp__initialize_narrow_environment 000000014006d890     ucrtd:ucrtbased.dll
 0006:00000898       __imp__get_initial_narrow_environment 000000014006d898     ucrtd:ucrtbased.dll
 0006:000008a0       __imp__initterm            000000014006d8a0     ucrtd:ucrtbased.dll
 0006:000008a8       __imp__initterm_e          000000014006d8a8     ucrtd:ucrtbased.dll
 0006:000008b0       __imp_exit                 000000014006d8b0     ucrtd:ucrtbased.dll
 0006:000008b8       __imp__exit                000000014006d8b8     ucrtd:ucrtbased.dll
 0006:000008c0       __imp__set_fmode           000000014006d8c0     ucrtd:ucrtbased.dll
 0006:000008c8       __imp___p___argc           000000014006d8c8     ucrtd:ucrtbased.dll
 0006:000008d0       __imp___p___argv           000000014006d8d0     ucrtd:ucrtbased.dll
 0006:000008d8       __imp__cexit               000000014006d8d8     ucrtd:ucrtbased.dll
 0006:000008e0       __imp__c_exit              000000014006d8e0     ucrtd:ucrtbased.dll
 0006:000008e8       __imp__register_thread_local_exe_atexit_callback 000000014006d8e8     ucrtd:ucrtbased.dll
 0006:000008f0       __imp__configthreadlocale  000000014006d8f0     ucrtd:ucrtbased.dll
 0006:000008f8       __imp__set_new_mode        000000014006d8f8     ucrtd:ucrtbased.dll
 0006:00000900       __imp___p__commode         000000014006d900     ucrtd:ucrtbased.dll
 0006:00000908       __imp_malloc               000000014006d908     ucrtd:ucrtbased.dll
 0006:00000910       __imp__initialize_onexit_table 000000014006d910     ucrtd:ucrtbased.dll
 0006:00000918       __imp__register_onexit_function 000000014006d918     ucrtd:ucrtbased.dll
 0006:00000920       __imp__execute_onexit_table 000000014006d920     ucrtd:ucrtbased.dll
 0006:00000928       __imp__crt_atexit          000000014006d928     ucrtd:ucrtbased.dll
 0006:00000930       __imp__crt_at_quick_exit   000000014006d930     ucrtd:ucrtbased.dll
 0006:00000938       __imp_strcpy_s             000000014006d938     ucrtd:ucrtbased.dll
 0006:00000940       __imp_strcat_s             000000014006d940     ucrtd:ucrtbased.dll
 0006:00000948       __imp_terminate            000000014006d948     ucrtd:ucrtbased.dll
 0006:00000950       __imp__wmakepath_s         000000014006d950     ucrtd:ucrtbased.dll
 0006:00000958       __imp__wsplitpath_s        000000014006d958     ucrtd:ucrtbased.dll
 0006:00000960       __imp_wcscpy_s             000000014006d960     ucrtd:ucrtbased.dll
 0006:00000968       __imp_fputc                000000014006d968     ucrtd:ucrtbased.dll
 0006:00000970       __imp_fclose               000000014006d970     ucrtd:ucrtbased.dll
 0006:00000978       __imp__get_stream_buffer_pointers 000000014006d978     ucrtd:ucrtbased.dll
 0006:00000980       __imp_strlen               000000014006d980     ucrtd:ucrtbased.dll
 0006:00000988       __imp__calloc_dbg          000000014006d988     ucrtd:ucrtbased.dll
 0006:00000990       __imp_wcslen               000000014006d990     ucrtd:ucrtbased.dll
 0006:00000998       __imp_fmod                 000000014006d998     ucrtd:ucrtbased.dll
 0006:000009a0       __imp__CrtDbgReport        000000014006d9a0     ucrtd:ucrtbased.dll
 0006:000009a8       __imp__invalid_parameter   000000014006d9a8     ucrtd:ucrtbased.dll
 0006:000009b0       __imp__CrtDbgReportW       000000014006d9b0     ucrtd:ucrtbased.dll
 0006:000009b8       __imp__malloc_dbg          000000014006d9b8     ucrtd:ucrtbased.dll
 0006:000009c0       __imp__free_dbg            000000014006d9c0     ucrtd:ucrtbased.dll
 0006:000009c8       __imp__isatty              000000014006d9c8     ucrtd:ucrtbased.dll
 0006:000009d0       __imp___stdio_common_vsprintf_s 000000014006d9d0     ucrtd:ucrtbased.dll
 0006:000009d8       __imp__fileno              000000014006d9d8     ucrtd:ucrtbased.dll
 0006:000009e0       __imp___acrt_iob_func      000000014006d9e0     ucrtd:ucrtbased.dll
 0006:000009e8       __imp_system               000000014006d9e8     ucrtd:ucrtbased.dll
 0006:000009f0       __imp_rename               000000014006d9f0     ucrtd:ucrtbased.dll
 0006:000009f8       __imp_remove               000000014006d9f8     ucrtd:ucrtbased.dll
 0006:00000a00       __imp__localtime64_s       000000014006da00     ucrtd:ucrtbased.dll
 0006:00000a08       __imp__unlock_file         000000014006da08     ucrtd:ucrtbased.dll
 0006:00000a10       __imp__lock_file           000000014006da10     ucrtd:ucrtbased.dll
 0006:00000a18       __imp_ungetc               000000014006da18     ucrtd:ucrtbased.dll
 0006:00000a20       __imp__callnewh            000000014006da20     ucrtd:ucrtbased.dll
 0006:00000a28       __imp_setvbuf              000000014006da28     ucrtd:ucrtbased.dll
 0006:00000a30       __imp_fwrite               000000014006da30     ucrtd:ucrtbased.dll
 0006:00000a38       __imp__fseeki64            000000014006da38     ucrtd:ucrtbased.dll
 0006:00000a40       __imp_fread                000000014006da40     ucrtd:ucrtbased.dll
 0006:00000a48       __imp_fsetpos              000000014006da48     ucrtd:ucrtbased.dll
 0006:00000a50       __imp_fgetpos              000000014006da50     ucrtd:ucrtbased.dll
 0006:00000a58       __imp_fgetc                000000014006da58     ucrtd:ucrtbased.dll
 0006:00000a60       __imp__seh_filter_dll      000000014006da60     ucrtd:ucrtbased.dll
 0006:00000a68       __imp_fflush               000000014006da68     ucrtd:ucrtbased.dll
 0006:00000a70       \177ucrtbased_NULL_THUNK_DATA 000000014006da70     ucrtd:ucrtbased.dll
 0006:00000b28       __IMPORT_DESCRIPTOR_SDL2   000000014006db28     SDL2:SDL2.dll
 0006:00000b3c       __IMPORT_DESCRIPTOR_SDL2_ttf 000000014006db3c     SDL2_ttf:SDL2_ttf.dll
 0006:00000b50       __IMPORT_DESCRIPTOR_KERNEL32 000000014006db50     kernel32:KERNEL32.dll
 0006:00000b64       __IMPORT_DESCRIPTOR_MSVCP140D 000000014006db64     msvcprtd:MSVCP140D.dll
 0006:00000b78       __IMPORT_DESCRIPTOR_VCRUNTIME140D 000000014006db78     vcruntimed:VCRUNTIME140D.dll
 0006:00000b8c       __IMPORT_DESCRIPTOR_VCRUNTIME140_1D 000000014006db8c     vcruntimed:VCRUNTIME140_1D.dll
 0006:00000ba0       __IMPORT_DESCRIPTOR_ucrtbased 000000014006dba0     ucrtd:ucrtbased.dll
 0006:00000bb4       __NULL_IMPORT_DESCRIPTOR   000000014006dbb4     SDL2:SDL2.dll
 0008:00000000       __guard_check_icall_fptr   0000000140072000     MSVCRTD:guard_support.obj
 0008:00000010       __guard_dispatch_icall_fptr 0000000140072010     MSVCRTD:guard_support.obj

 entry point at        0002:000000b4

 Static symbols

 0000:fff8b000       .debug$S                   0000000140000000     kernel32:KERNEL32.dll
 0000:fff8b000       .debug$S                   0000000140000000     kernel32:KERNEL32.dll
 0000:fff8b000       .debug$S                   0000000140000000     kernel32:KERNEL32.dll
 0000:fff8b000       .debug$S                   0000000140000000     kernel32:KERNEL32.dll
 0000:fff8b000       .debug$S                   0000000140000000     kernel32:KERNEL32.dll
 0000:fff8b000       .debug$S                   0000000140000000     kernel32:KERNEL32.dll
 0000:fff8b000       .debug$S                   0000000140000000     kernel32:KERNEL32.dll
 0000:fff8b000       .debug$S                   0000000140000000     kernel32:KERNEL32.dll
 0000:fff8b000       .debug$S                   0000000140000000     kernel32:KERNEL32.dll
 0000:fff8b000       .debug$S                   0000000140000000     kernel32:KERNEL32.dll
 0000:fff8b000       .debug$S                   0000000140000000     kernel32:KERNEL32.dll
 0000:fff8b000       .debug$S                   0000000140000000     kernel32:KERNEL32.dll
 0000:fff8b000       .debug$S                   0000000140000000     kernel32:KERNEL32.dll
 0000:fff8b000       .debug$S                   0000000140000000     kernel32:KERNEL32.dll
 0000:fff8b000       .debug$S                   0000000140000000     kernel32:KERNEL32.dll
 0000:fff8b000       .debug$S                   0000000140000000     kernel32:KERNEL32.dll
 0000:fff8b000       .debug$S                   0000000140000000     kernel32:KERNEL32.dll
 0000:fff8b000       .debug$S                   0000000140000000     kernel32:KERNEL32.dll
 0000:fff8b000       .debug$S                   0000000140000000     kernel32:KERNEL32.dll
 0000:fff8b000       .debug$S                   0000000140000000     kernel32:KERNEL32.dll
 0000:fff8b000       .debug$S                   0000000140000000     kernel32:KERNEL32.dll
 0000:fff8b000       .debug$S                   0000000140000000     kernel32:KERNEL32.dll
 0000:fff8b000       .debug$S                   0000000140000000     kernel32:KERNEL32.dll
 0000:fff8b000       .debug$S                   0000000140000000     kernel32:KERNEL32.dll
 0000:fff8b000       .debug$S                   0000000140000000     kernel32:KERNEL32.dll
 0000:fff8b000       .debug$S                   0000000140000000     kernel32:KERNEL32.dll
 0000:fff8b000       .debug$S                   0000000140000000     kernel32:KERNEL32.dll
 0000:fff8b000       .debug$S                   0000000140000000     kernel32:KERNEL32.dll
 0000:fff8b000       .debug$S                   0000000140000000     kernel32:KERNEL32.dll
 0000:fff8b000       .debug$S                   0000000140000000     kernel32:KERNEL32.dll
 0000:fff8b000       .debug$S                   0000000140000000     msvcprtd:MSVCP140D.dll
 0000:fff8b000       .debug$S                   0000000140000000     msvcprtd:MSVCP140D.dll
 0000:fff8b000       .debug$S                   0000000140000000     msvcprtd:MSVCP140D.dll
 0000:fff8b000       .debug$S                   0000000140000000     msvcprtd:MSVCP140D.dll
 0000:fff8b000       .debug$S                   0000000140000000     msvcprtd:MSVCP140D.dll
 0000:fff8b000       .debug$S                   0000000140000000     msvcprtd:MSVCP140D.dll
 0000:fff8b000       .debug$S                   0000000140000000     msvcprtd:MSVCP140D.dll
 0000:fff8b000       .debug$S                   0000000140000000     msvcprtd:MSVCP140D.dll
 0000:fff8b000       .debug$S                   0000000140000000     msvcprtd:MSVCP140D.dll
 0000:fff8b000       .debug$S                   0000000140000000     msvcprtd:MSVCP140D.dll
 0000:fff8b000       .debug$S                   0000000140000000     msvcprtd:MSVCP140D.dll
 0000:fff8b000       .debug$S                   0000000140000000     msvcprtd:MSVCP140D.dll
 0000:fff8b000       .debug$S                   0000000140000000     msvcprtd:MSVCP140D.dll
 0000:fff8b000       .debug$S                   0000000140000000     msvcprtd:MSVCP140D.dll
 0000:fff8b000       .debug$S                   0000000140000000     msvcprtd:MSVCP140D.dll
 0000:fff8b000       .debug$S                   0000000140000000     msvcprtd:MSVCP140D.dll
 0000:fff8b000       .debug$S                   0000000140000000     msvcprtd:MSVCP140D.dll
 0000:fff8b000       .debug$S                   0000000140000000     msvcprtd:MSVCP140D.dll
 0000:fff8b000       .debug$S                   0000000140000000     msvcprtd:MSVCP140D.dll
 0000:fff8b000       .debug$S                   0000000140000000     msvcprtd:MSVCP140D.dll
 0000:fff8b000       .debug$S                   0000000140000000     msvcprtd:MSVCP140D.dll
 0000:fff8b000       .debug$S                   0000000140000000     msvcprtd:MSVCP140D.dll
 0000:fff8b000       .debug$S                   0000000140000000     msvcprtd:MSVCP140D.dll
 0000:fff8b000       .debug$S                   0000000140000000     msvcprtd:MSVCP140D.dll
 0000:fff8b000       .debug$S                   0000000140000000     msvcprtd:MSVCP140D.dll
 0000:fff8b000       .debug$S                   0000000140000000     msvcprtd:MSVCP140D.dll
 0000:fff8b000       .debug$S                   0000000140000000     msvcprtd:MSVCP140D.dll
 0000:fff8b000       .debug$S                   0000000140000000     msvcprtd:MSVCP140D.dll
 0000:fff8b000       .debug$S                   0000000140000000     msvcprtd:MSVCP140D.dll
 0000:fff8b000       .debug$S                   0000000140000000     msvcprtd:MSVCP140D.dll
 0000:fff8b000       .debug$S                   0000000140000000     msvcprtd:MSVCP140D.dll
 0000:fff8b000       .debug$S                   0000000140000000     msvcprtd:MSVCP140D.dll
 0000:fff8b000       .debug$S                   0000000140000000     msvcprtd:MSVCP140D.dll
 0000:fff8b000       .debug$S                   0000000140000000     msvcprtd:MSVCP140D.dll
 0000:fff8b000       .debug$S                   0000000140000000     msvcprtd:MSVCP140D.dll
 0000:fff8b000       .debug$S                   0000000140000000     msvcprtd:MSVCP140D.dll
 0000:fff8b000       .debug$S                   0000000140000000     msvcprtd:MSVCP140D.dll
 0000:fff8b000       .debug$S                   0000000140000000     msvcprtd:MSVCP140D.dll
 0000:fff8b000       .debug$S                   0000000140000000     msvcprtd:MSVCP140D.dll
 0000:fff8b000       .debug$S                   0000000140000000     msvcprtd:MSVCP140D.dll
 0000:fff8b000       .debug$S                   0000000140000000     msvcprtd:MSVCP140D.dll
 0000:fff8b000       .debug$S                   0000000140000000     msvcprtd:MSVCP140D.dll
 0000:fff8b000       .debug$S                   0000000140000000     msvcprtd:MSVCP140D.dll
 0000:fff8b000       .debug$S                   0000000140000000     msvcprtd:MSVCP140D.dll
 0000:fff8b000       .debug$S                   0000000140000000     msvcprtd:MSVCP140D.dll
 0000:fff8b000       .debug$S                   0000000140000000     msvcprtd:MSVCP140D.dll
 0000:fff8b000       .debug$S                   0000000140000000     msvcprtd:MSVCP140D.dll
 0000:fff8b000       .debug$S                   0000000140000000     msvcprtd:MSVCP140D.dll
 0000:fff8b000       .debug$S                   0000000140000000     msvcprtd:MSVCP140D.dll
 0000:fff8b000       .debug$S                   0000000140000000     msvcprtd:MSVCP140D.dll
 0000:fff8b000       .debug$S                   0000000140000000     msvcprtd:MSVCP140D.dll
 0000:fff8b000       .debug$S                   0000000140000000     msvcprtd:MSVCP140D.dll
 0000:fff8b000       .debug$S                   0000000140000000     msvcprtd:MSVCP140D.dll
 0000:fff8b000       .debug$S                   0000000140000000     msvcprtd:MSVCP140D.dll
 0000:fff8b000       .debug$S                   0000000140000000     msvcprtd:MSVCP140D.dll
 0000:fff8b000       .debug$S                   0000000140000000     msvcprtd:MSVCP140D.dll
 0000:fff8b000       .debug$S                   0000000140000000     msvcprtd:MSVCP140D.dll
 0000:fff8b000       .debug$S                   0000000140000000     msvcprtd:MSVCP140D.dll
 0000:fff8b000       .debug$S                   0000000140000000     msvcprtd:MSVCP140D.dll
 0000:fff8b000       .debug$S                   0000000140000000     msvcprtd:MSVCP140D.dll
 0000:fff8b000       .debug$S                   0000000140000000     msvcprtd:MSVCP140D.dll
 0000:fff8b000       .debug$S                   0000000140000000     msvcprtd:MSVCP140D.dll
 0000:fff8b000       .debug$S                   0000000140000000     msvcprtd:MSVCP140D.dll
 0000:fff8b000       .debug$S                   0000000140000000     msvcprtd:MSVCP140D.dll
 0000:fff8b000       .debug$S                   0000000140000000     msvcprtd:MSVCP140D.dll
 0000:fff8b000       .debug$S                   0000000140000000     msvcprtd:MSVCP140D.dll
 0000:fff8b000       .debug$S                   0000000140000000     msvcprtd:MSVCP140D.dll
 0000:fff8b000       .debug$S                   0000000140000000     msvcprtd:MSVCP140D.dll
 0000:fff8b000       .debug$S                   0000000140000000     msvcprtd:MSVCP140D.dll
 0000:fff8b000       .debug$S                   0000000140000000     msvcprtd:MSVCP140D.dll
 0000:fff8b000       .debug$S                   0000000140000000     msvcprtd:MSVCP140D.dll
 0000:fff8b000       .debug$S                   0000000140000000     msvcprtd:MSVCP140D.dll
 0000:fff8b000       .debug$S                   0000000140000000     msvcprtd:MSVCP140D.dll
 0000:fff8b000       .debug$S                   0000000140000000     msvcprtd:MSVCP140D.dll
 0000:fff8b000       .debug$S                   0000000140000000     msvcprtd:MSVCP140D.dll
 0000:fff8b000       .debug$S                   0000000140000000     msvcprtd:MSVCP140D.dll
 0000:fff8b000       .debug$S                   0000000140000000     msvcprtd:MSVCP140D.dll
 0000:fff8b000       .debug$S                   0000000140000000     msvcprtd:MSVCP140D.dll
 0000:fff8b000       .debug$S                   0000000140000000     msvcprtd:MSVCP140D.dll
 0000:fff8b000       .debug$S                   0000000140000000     msvcprtd:MSVCP140D.dll
 0000:fff8b000       .debug$S                   0000000140000000     msvcprtd:MSVCP140D.dll
 0000:fff8b000       .debug$S                   0000000140000000     msvcprtd:MSVCP140D.dll
 0000:fff8b000       .debug$S                   0000000140000000     msvcprtd:MSVCP140D.dll
 0000:fff8b000       .debug$S                   0000000140000000     msvcprtd:MSVCP140D.dll
 0000:fff8b000       .debug$S                   0000000140000000     msvcprtd:MSVCP140D.dll
 0000:fff8b000       .debug$S                   0000000140000000     msvcprtd:MSVCP140D.dll
 0000:fff8b000       .debug$S                   0000000140000000     msvcprtd:MSVCP140D.dll
 0000:fff8b000       .debug$S                   0000000140000000     msvcprtd:MSVCP140D.dll
 0000:fff8b000       .debug$S                   0000000140000000     msvcprtd:MSVCP140D.dll
 0000:fff8b000       .debug$S                   0000000140000000     msvcprtd:MSVCP140D.dll
 0000:fff8b000       .debug$S                   0000000140000000     msvcprtd:MSVCP140D.dll
 0000:fff8b000       .debug$S                   0000000140000000     msvcprtd:MSVCP140D.dll
 0000:fff8b000       .debug$S                   0000000140000000     msvcprtd:MSVCP140D.dll
 0000:fff8b000       .debug$S                   0000000140000000     msvcprtd:MSVCP140D.dll
 0000:fff8b000       .debug$S                   0000000140000000     msvcprtd:MSVCP140D.dll
 0000:fff8b000       .debug$S                   0000000140000000     SDL2:SDL2.dll
 0000:fff8b000       .debug$S                   0000000140000000     SDL2:SDL2.dll
 0000:fff8b000       .debug$S                   0000000140000000     SDL2:SDL2.dll
 0000:fff8b000       .debug$S                   0000000140000000     SDL2:SDL2.dll
 0000:fff8b000       .debug$S                   0000000140000000     SDL2:SDL2.dll
 0000:fff8b000       .debug$S                   0000000140000000     SDL2:SDL2.dll
 0000:fff8b000       .debug$S                   0000000140000000     SDL2:SDL2.dll
 0000:fff8b000       .debug$S                   0000000140000000     SDL2:SDL2.dll
 0000:fff8b000       .debug$S                   0000000140000000     SDL2:SDL2.dll
 0000:fff8b000       .debug$S                   0000000140000000     SDL2:SDL2.dll
 0000:fff8b000       .debug$S                   0000000140000000     SDL2:SDL2.dll
 0000:fff8b000       .debug$S                   0000000140000000     SDL2:SDL2.dll
 0000:fff8b000       .debug$S                   0000000140000000     SDL2:SDL2.dll
 0000:fff8b000       .debug$S                   0000000140000000     SDL2:SDL2.dll
 0000:fff8b000       .debug$S                   0000000140000000     SDL2:SDL2.dll
 0000:fff8b000       .debug$S                   0000000140000000     SDL2:SDL2.dll
 0000:fff8b000       .debug$S                   0000000140000000     SDL2:SDL2.dll
 0000:fff8b000       .debug$S                   0000000140000000     SDL2:SDL2.dll
 0000:fff8b000       .debug$S                   0000000140000000     SDL2:SDL2.dll
 0000:fff8b000       .debug$S                   0000000140000000     SDL2:SDL2.dll
 0000:fff8b000       .debug$S                   0000000140000000     SDL2:SDL2.dll
 0000:fff8b000       .debug$S                   0000000140000000     SDL2:SDL2.dll
 0000:fff8b000       .debug$S                   0000000140000000     SDL2:SDL2.dll
 0000:fff8b000       .debug$S                   0000000140000000     SDL2:SDL2.dll
 0000:fff8b000       .debug$S                   0000000140000000     SDL2:SDL2.dll
 0000:fff8b000       .debug$S                   0000000140000000     SDL2:SDL2.dll
 0000:fff8b000       .debug$S                   0000000140000000     SDL2_ttf:SDL2_ttf.dll
 0000:fff8b000       .debug$S                   0000000140000000     SDL2_ttf:SDL2_ttf.dll
 0000:fff8b000       .debug$S                   0000000140000000     SDL2_ttf:SDL2_ttf.dll
 0000:fff8b000       .debug$S                   0000000140000000     vcruntimed:VCRUNTIME140D.dll
 0000:fff8b000       .debug$S                   0000000140000000     vcruntimed:VCRUNTIME140D.dll
 0000:fff8b000       .debug$S                   0000000140000000     vcruntimed:VCRUNTIME140D.dll
 0000:fff8b000       .debug$S                   0000000140000000     vcruntimed:VCRUNTIME140D.dll
 0000:fff8b000       .debug$S                   0000000140000000     vcruntimed:VCRUNTIME140D.dll
 0000:fff8b000       .debug$S                   0000000140000000     vcruntimed:VCRUNTIME140D.dll
 0000:fff8b000       .debug$S                   0000000140000000     vcruntimed:VCRUNTIME140D.dll
 0000:fff8b000       .debug$S                   0000000140000000     vcruntimed:VCRUNTIME140D.dll
 0000:fff8b000       .debug$S                   0000000140000000     vcruntimed:VCRUNTIME140D.dll
 0000:fff8b000       .debug$S                   0000000140000000     vcruntimed:VCRUNTIME140D.dll
 0000:fff8b000       .debug$S                   0000000140000000     vcruntimed:VCRUNTIME140D.dll
 0000:fff8b000       .debug$S                   0000000140000000     vcruntimed:VCRUNTIME140D.dll
 0000:fff8b000       .debug$S                   0000000140000000     vcruntimed:VCRUNTIME140D.dll
 0000:fff8b000       .debug$S                   0000000140000000     vcruntimed:VCRUNTIME140D.dll
 0000:fff8b000       .debug$S                   0000000140000000     vcruntimed:VCRUNTIME140D.dll
 0000:fff8b000       .debug$S                   0000000140000000     vcruntimed:VCRUNTIME140D.dll
 0000:fff8b000       .debug$S                   0000000140000000     vcruntimed:VCRUNTIME140_1D.dll
 0000:fff8f000       __guard_fids_??__E_Fac_tidy_reg@std@@YAXXZ 0000000140000000     msvcprtd:locale0_implib.obj
 0000:fff8f000       __guard_fids__             0000000140000000     msvcprtd:locale0_implib.obj
 0005:fff98000       $pdata$_vsprintf_s_l       0000000140000000     MSVCRTD:error.obj
 0003:fffad000       $unwind$_vsprintf_s_l      0000000140000000     MSVCRTD:error.obj
 0000:fff8f000       __guard_fids_?pre_c_initialization@@YAHXZ 0000000140000000     MSVCRTD:exe_main.obj
 0000:fff8f000       __guard_fids__             0000000140000000     MSVCRTD:exe_main.obj
 0000:fff8f000       __guard_fids__             0000000140000000     MSVCRTD:guard_support.obj
 0000:fff8f000       __guard_fids__guard_icall_checks_enforced 0000000140000000     MSVCRTD:guard_support.obj
 0000:fff8f000       __guard_fids__CRT_RTC_INIT 0000000140000000     MSVCRTD:init.obj
 0000:fff8f000       __guard_fids__CRT_RTC_INITW 0000000140000000     MSVCRTD:init.obj
 0000:fff8f000       __guard_fids__             0000000140000000     MSVCRTD:std_type_info_static.obj
 0005:fff98000       $pdata$??0bad_alloc@std@@AEAA@QEBD@Z 0000000140000000     MSVCRTD:throw_bad_alloc.obj
 0005:fff98000       $pdata$??0bad_alloc@std@@QEAA@AEBV01@@Z 0000000140000000     MSVCRTD:throw_bad_alloc.obj
 0005:fff98000       $pdata$??0bad_array_new_length@std@@QEAA@AEBV01@@Z 0000000140000000     MSVCRTD:throw_bad_alloc.obj
 0005:fff98000       $pdata$??0bad_array_new_length@std@@QEAA@XZ 0000000140000000     MSVCRTD:throw_bad_alloc.obj
 0005:fff98000       $pdata$??0exception@std@@QEAA@AEBV01@@Z 0000000140000000     MSVCRTD:throw_bad_alloc.obj
 0005:fff98000       $pdata$??0exception@std@@QEAA@QEBDH@Z 0000000140000000     MSVCRTD:throw_bad_alloc.obj
 0005:fff98000       $pdata$??1bad_alloc@std@@UEAA@XZ 0000000140000000     MSVCRTD:throw_bad_alloc.obj
 0005:fff98000       $pdata$??1bad_array_new_length@std@@UEAA@XZ 0000000140000000     MSVCRTD:throw_bad_alloc.obj
 0005:fff98000       $pdata$??1exception@std@@UEAA@XZ 0000000140000000     MSVCRTD:throw_bad_alloc.obj
 0005:fff98000       $pdata$??_Gbad_alloc@std@@UEAAPEAXI@Z 0000000140000000     MSVCRTD:throw_bad_alloc.obj
 0005:fff98000       $pdata$??_Gbad_array_new_length@std@@UEAAPEAXI@Z 0000000140000000     MSVCRTD:throw_bad_alloc.obj
 0005:fff98000       $pdata$??_Gexception@std@@UEAAPEAXI@Z 0000000140000000     MSVCRTD:throw_bad_alloc.obj
 0005:fff98000       $pdata$?what@exception@std@@UEBAPEBDXZ 0000000140000000     MSVCRTD:throw_bad_alloc.obj
 0003:fffad000       $unwind$??0bad_alloc@std@@AEAA@QEBD@Z 0000000140000000     MSVCRTD:throw_bad_alloc.obj
 0003:fffad000       $unwind$??0bad_alloc@std@@QEAA@AEBV01@@Z 0000000140000000     MSVCRTD:throw_bad_alloc.obj
 0003:fffad000       $unwind$??0bad_array_new_length@std@@QEAA@AEBV01@@Z 0000000140000000     MSVCRTD:throw_bad_alloc.obj
 0003:fffad000       $unwind$??0bad_array_new_length@std@@QEAA@XZ 0000000140000000     MSVCRTD:throw_bad_alloc.obj
 0003:fffad000       $unwind$??0exception@std@@QEAA@AEBV01@@Z 0000000140000000     MSVCRTD:throw_bad_alloc.obj
 0003:fffad000       $unwind$??0exception@std@@QEAA@QEBDH@Z 0000000140000000     MSVCRTD:throw_bad_alloc.obj
 0003:fffad000       $unwind$??1bad_alloc@std@@UEAA@XZ 0000000140000000     MSVCRTD:throw_bad_alloc.obj
 0003:fffad000       $unwind$??1bad_array_new_length@std@@UEAA@XZ 0000000140000000     MSVCRTD:throw_bad_alloc.obj
 0003:fffad000       $unwind$??1exception@std@@UEAA@XZ 0000000140000000     MSVCRTD:throw_bad_alloc.obj
 0003:fffad000       $unwind$??_Gbad_alloc@std@@UEAAPEAXI@Z 0000000140000000     MSVCRTD:throw_bad_alloc.obj
 0003:fffad000       $unwind$??_Gbad_array_new_length@std@@UEAAPEAXI@Z 0000000140000000     MSVCRTD:throw_bad_alloc.obj
 0003:fffad000       $unwind$??_Gexception@std@@UEAAPEAXI@Z 0000000140000000     MSVCRTD:throw_bad_alloc.obj
 0003:fffad000       $unwind$?what@exception@std@@UEBAPEBDXZ 0000000140000000     MSVCRTD:throw_bad_alloc.obj
 0000:fff8f000       __guard_fids__             0000000140000000     MSVCRTD:throw_bad_alloc.obj
 0000:fff8f000       __guard_fids__             0000000140000000     MSVCRTD:throw_bad_alloc.obj
 0000:fff8f000       __guard_fids__             0000000140000000     MSVCRTD:throw_bad_alloc.obj
 0005:fff98000       $pdata$?configure_argv@__scrt_narrow_argv_policy@@SAHXZ 0000000140000000     MSVCRTD:utility.obj
 0005:fff98000       $pdata$?initialize_environment@__scrt_narrow_environment_policy@@SAHXZ 0000000140000000     MSVCRTD:utility.obj
 0003:fffad000       $unwind$?configure_argv@__scrt_narrow_argv_policy@@SAHXZ 0000000140000000     MSVCRTD:utility.obj
 0003:fffad000       $unwind$?initialize_environment@__scrt_narrow_environment_policy@@SAHXZ 0000000140000000     MSVCRTD:utility.obj
 0000:fff8f000       __guard_fids___scrt_set_unhandled_exception_filter 0000000140000000     MSVCRTD:utility_desktop.obj
 0000:fff8b000       .debug$S                   0000000140000000     ucrtd:ucrtbased.dll
 0000:fff8b000       .debug$S                   0000000140000000     ucrtd:ucrtbased.dll
 0000:fff8b000       .debug$S                   0000000140000000     ucrtd:ucrtbased.dll
 0000:fff8b000       .debug$S                   0000000140000000     ucrtd:ucrtbased.dll
 0000:fff8b000       .debug$S                   0000000140000000     ucrtd:ucrtbased.dll
 0000:fff8b000       .debug$S                   0000000140000000     ucrtd:ucrtbased.dll
 0000:fff8b000       .debug$S                   0000000140000000     ucrtd:ucrtbased.dll
 0000:fff8b000       .debug$S                   0000000140000000     ucrtd:ucrtbased.dll
 0000:fff8b000       .debug$S                   0000000140000000     ucrtd:ucrtbased.dll
 0000:fff8b000       .debug$S                   0000000140000000     ucrtd:ucrtbased.dll
 0000:fff8b000       .debug$S                   0000000140000000     ucrtd:ucrtbased.dll
 0000:fff8b000       .debug$S                   0000000140000000     ucrtd:ucrtbased.dll
 0000:fff8b000       .debug$S                   0000000140000000     ucrtd:ucrtbased.dll
 0000:fff8b000       .debug$S                   0000000140000000     ucrtd:ucrtbased.dll
 0000:fff8b000       .debug$S                   0000000140000000     ucrtd:ucrtbased.dll
 0000:fff8b000       .debug$S                   0000000140000000     ucrtd:ucrtbased.dll
 0000:fff8b000       .debug$S                   0000000140000000     ucrtd:ucrtbased.dll
 0000:fff8b000       .debug$S                   0000000140000000     ucrtd:ucrtbased.dll
 0000:fff8b000       .debug$S                   0000000140000000     ucrtd:ucrtbased.dll
 0000:fff8b000       .debug$S                   0000000140000000     ucrtd:ucrtbased.dll
 0000:fff8b000       .debug$S                   0000000140000000     ucrtd:ucrtbased.dll
 0000:fff8b000       .debug$S                   0000000140000000     ucrtd:ucrtbased.dll
 0000:fff8b000       .debug$S                   0000000140000000     ucrtd:ucrtbased.dll
 0000:fff8b000       .debug$S                   0000000140000000     ucrtd:ucrtbased.dll
 0000:fff8b000       .debug$S                   0000000140000000     ucrtd:ucrtbased.dll
 0000:fff8b000       .debug$S                   0000000140000000     ucrtd:ucrtbased.dll
 0000:fff8b000       .debug$S                   0000000140000000     ucrtd:ucrtbased.dll
 0000:fff8b000       .debug$S                   0000000140000000     ucrtd:ucrtbased.dll
 0000:fff8b000       .debug$S                   0000000140000000     ucrtd:ucrtbased.dll
 0000:fff8b000       .debug$S                   0000000140000000     ucrtd:ucrtbased.dll
 0000:fff8b000       .debug$S                   0000000140000000     ucrtd:ucrtbased.dll
 0000:fff8b000       .debug$S                   0000000140000000     ucrtd:ucrtbased.dll
 0000:fff8b000       .debug$S                   0000000140000000     ucrtd:ucrtbased.dll
 0000:fff8b000       .debug$S                   0000000140000000     ucrtd:ucrtbased.dll
 0000:fff8b000       .debug$S                   0000000140000000     ucrtd:ucrtbased.dll
 0000:fff8b000       .debug$S                   0000000140000000     ucrtd:ucrtbased.dll
 0000:fff8b000       .debug$S                   0000000140000000     ucrtd:ucrtbased.dll
 0000:fff8b000       .debug$S                   0000000140000000     ucrtd:ucrtbased.dll
 0000:fff8b000       .debug$S                   0000000140000000     ucrtd:ucrtbased.dll
 0000:fff8b000       .debug$S                   0000000140000000     ucrtd:ucrtbased.dll
 0000:fff8b000       .debug$S                   0000000140000000     ucrtd:ucrtbased.dll
 0000:fff8b000       .debug$S                   0000000140000000     ucrtd:ucrtbased.dll
 0000:fff8b000       .debug$S                   0000000140000000     ucrtd:ucrtbased.dll
 0000:fff8b000       .debug$S                   0000000140000000     ucrtd:ucrtbased.dll
 0000:fff8b000       .debug$S                   0000000140000000     ucrtd:ucrtbased.dll
 0000:fff8b000       .debug$S                   0000000140000000     ucrtd:ucrtbased.dll
 0000:fff8b000       .debug$S                   0000000140000000     ucrtd:ucrtbased.dll
 0000:fff8b000       .debug$S                   0000000140000000     ucrtd:ucrtbased.dll
 0000:fff8b000       .debug$S                   0000000140000000     ucrtd:ucrtbased.dll
 0000:fff8b000       .debug$S                   0000000140000000     ucrtd:ucrtbased.dll
 0000:fff8b000       .debug$S                   0000000140000000     ucrtd:ucrtbased.dll
 0000:fff8b000       .debug$S                   0000000140000000     ucrtd:ucrtbased.dll
 0000:fff8b000       .debug$S                   0000000140000000     ucrtd:ucrtbased.dll
 0000:fff8b000       .debug$S                   0000000140000000     ucrtd:ucrtbased.dll
 0000:fff8b000       .debug$S                   0000000140000000     ucrtd:ucrtbased.dll
 0000:fff8b000       .debug$S                   0000000140000000     ucrtd:ucrtbased.dll
 0000:fff8b000       .debug$S                   0000000140000000     ucrtd:ucrtbased.dll
 0000:fff8b000       .debug$S                   0000000140000000     ucrtd:ucrtbased.dll
 0000:fff8b000       .debug$S                   0000000140000000     ucrtd:ucrtbased.dll
 0000:fff8b000       .debug$S                   0000000140000000     ucrtd:ucrtbased.dll
 0000:fff8b000       .debug$S                   0000000140000000     ucrtd:ucrtbased.dll
 0000:fff8b000       .debug$S                   0000000140000000     ucrtd:ucrtbased.dll
 0000:fff8b000       .debug$S                   0000000140000000     ucrtd:ucrtbased.dll
 0000:fff8b000       .debug$S                   0000000140000000     ucrtd:ucrtbased.dll
 0003:fffad000       $cppxdata$??$?0D@?$allocator@U_Container_proxy@std@@@std@@QEAA@AEBV?$allocator@D@1@@Z 0000000140000000     PlayZone.obj
 0003:fffad000       $cppxdata$??$?0USDL_Point@@@?$allocator@U_Container_proxy@std@@@std@@QEAA@AEBV?$allocator@USDL_Point@@@1@@Z 0000000140000000     PlayZone.obj
 0003:fffad000       $cppxdata$??$_Construct_in_place@PEADAEBQEAD@std@@YAXAEAPEADAEBQEAD@Z 0000000140000000     PlayZone.obj
 0003:fffad000       $cppxdata$??$_Construct_in_place@U_Container_proxy@std@@PEAU_Container_base12@2@@std@@YAXAEAU_Container_proxy@0@$$QEAPEAU_Container_base12@0@@Z 0000000140000000     PlayZone.obj
 0003:fffad000       $cppxdata$??$_Deallocate@$0BA@$0A@@std@@YAXPEAX_K@Z 0000000140000000     PlayZone.obj
 0003:fffad000       $cppxdata$??$_Deallocate_plain@V?$allocator@U_Container_proxy@std@@@std@@@std@@YAXAEAV?$allocator@U_Container_proxy@std@@@0@QEAU_Container_proxy@0@@Z 0000000140000000     PlayZone.obj
 0003:fffad000       $cppxdata$??$_Delete_plain_internal@V?$allocator@U_Container_proxy@std@@@std@@@std@@YAXAEAV?$allocator@U_Container_proxy@std@@@0@QEAU_Container_proxy@0@@Z 0000000140000000     PlayZone.obj
 0003:fffad000       $cppxdata$??$_Destroy_in_place@PEAD@std@@YAXAEAPEAD@Z 0000000140000000     PlayZone.obj
 0003:fffad000       $cppxdata$??$_Destroy_range@V?$allocator@USDL_Point@@@std@@@std@@YAXPEAUSDL_Point@@QEAU1@AEAV?$allocator@USDL_Point@@@0@@Z 0000000140000000     PlayZone.obj
 0003:fffad000       $cppxdata$??$_Max_value@_K@std@@YAAEB_KAEB_K0@Z 0000000140000000     PlayZone.obj
 0003:fffad000       $cppxdata$??$_Min_value@_K@std@@YAAEB_KAEB_K0@Z 0000000140000000     PlayZone.obj
 0003:fffad000       $cppxdata$??$addressof@PEAD@std@@YAPEAPEADAEAPEAD@Z 0000000140000000     PlayZone.obj
 0003:fffad000       $cppxdata$??$addressof@U_Container_base12@std@@@std@@YAPEAU_Container_base12@0@AEAU10@@Z 0000000140000000     PlayZone.obj
 0003:fffad000       $cppxdata$??$addressof@U_Container_proxy@std@@@std@@YAPEAU_Container_proxy@0@AEAU10@@Z 0000000140000000     PlayZone.obj
 0003:fffad000       $cppxdata$??$forward@AEBQEAD@std@@YAAEBQEADAEBQEAD@Z 0000000140000000     PlayZone.obj
 0003:fffad000       $cppxdata$??$forward@PEAU_Container_base12@std@@@std@@YA$$QEAPEAU_Container_base12@0@AEAPEAU10@@Z 0000000140000000     PlayZone.obj
 0003:fffad000       $cppxdata$??$forward@V?$allocator@D@std@@@std@@YA$$QEAV?$allocator@D@0@AEAV10@@Z 0000000140000000     PlayZone.obj
 0003:fffad000       $cppxdata$??0?$allocator@D@std@@QEAA@XZ 0000000140000000     PlayZone.obj
 0003:fffad000       $cppxdata$??0_Container_proxy@std@@QEAA@PEAU_Container_base12@1@@Z 0000000140000000     PlayZone.obj
 0003:fffad000       $cppxdata$??0bad_alloc@std@@AEAA@QEBD@Z 0000000140000000     PlayZone.obj
 0003:fffad000       $cppxdata$??0bad_array_new_length@std@@QEAA@XZ 0000000140000000     PlayZone.obj
 0003:fffad000       $cppxdata$??0exception@std@@QEAA@AEBV01@@Z 0000000140000000     PlayZone.obj
 0003:fffad000       $cppxdata$??0exception@std@@QEAA@QEBDH@Z 0000000140000000     PlayZone.obj
 0003:fffad000       $cppxdata$??1?$_Container_proxy_ptr12@V?$allocator@U_Container_proxy@std@@@std@@@std@@QEAA@XZ 0000000140000000     PlayZone.obj
 0003:fffad000       $cppxdata$??1?$basic_string@DU?$char_traits@D@std@@V?$allocator@D@2@@std@@QEAA@XZ 0000000140000000     PlayZone.obj
 0003:fffad000       $cppxdata$??1?$vector@USDL_Point@@V?$allocator@USDL_Point@@@std@@@std@@QEAA@XZ 0000000140000000     PlayZone.obj
 0003:fffad000       $cppxdata$??1_Bxty@?$_String_val@U?$_Simple_types@D@std@@@std@@QEAA@XZ 0000000140000000     PlayZone.obj
 0003:fffad000       $cppxdata$??1exception@std@@UEAA@XZ 0000000140000000     PlayZone.obj
 0003:fffad000       $cppxdata$??2@YAPEAX_KPEAX@Z 0000000140000000     PlayZone.obj
 0003:fffad000       $cppxdata$?_Calculate_growth@?$basic_string@DU?$char_traits@D@std@@V?$allocator@D@2@@std@@AEBA_K_K@Z 0000000140000000     PlayZone.obj
 0003:fffad000       $cppxdata$?_Calculate_growth@?$basic_string@DU?$char_traits@D@std@@V?$allocator@D@2@@std@@CA_K_K00@Z 0000000140000000     PlayZone.obj
 0003:fffad000       $cppxdata$?_Get_first@?$_Compressed_pair@V?$allocator@D@std@@V?$_String_val@U?$_Simple_types@D@std@@@2@$00@std@@QEAAAEAV?$allocator@D@2@XZ 0000000140000000     PlayZone.obj
 0003:fffad000       $cppxdata$?_Get_first@?$_Compressed_pair@V?$allocator@D@std@@V?$_String_val@U?$_Simple_types@D@std@@@2@$00@std@@QEBAAEBV?$allocator@D@2@XZ 0000000140000000     PlayZone.obj
 0003:fffad000       $cppxdata$?_Get_first@?$_Compressed_pair@V?$allocator@USDL_Point@@@std@@V?$_Vector_val@U?$_Simple_types@USDL_Point@@@std@@@2@$00@std@@QEAAAEAV?$allocator@USDL_Point@@@2@XZ 0000000140000000     PlayZone.obj
 0003:fffad000       $cppxdata$?_Getal@?$basic_string@DU?$char_traits@D@std@@V?$allocator@D@2@@std@@AEAAAEAV?$allocator@D@2@XZ 0000000140000000     PlayZone.obj
 0003:fffad000       $cppxdata$?_Getal@?$basic_string@DU?$char_traits@D@std@@V?$allocator@D@2@@std@@AEBAAEBV?$allocator@D@2@XZ 0000000140000000     PlayZone.obj
 0003:fffad000       $cppxdata$?_Getal@?$vector@USDL_Point@@V?$allocator@USDL_Point@@@std@@@std@@AEAAAEAV?$allocator@USDL_Point@@@2@XZ 0000000140000000     PlayZone.obj
 0003:fffad000       $cppxdata$?_Orphan_all@_Container_base12@std@@QEAAXXZ 0000000140000000     PlayZone.obj
 0003:fffad000       $cppxdata$?_Release@_Basic_container_proxy_ptr12@std@@QEAAXXZ 0000000140000000     PlayZone.obj
 0003:fffad000       $cppxdata$?_Tidy@?$vector@USDL_Point@@V?$allocator@USDL_Point@@@std@@@std@@AEAAXXZ 0000000140000000     PlayZone.obj
 0003:fffad000       $cppxdata$?_Tidy_deallocate@?$basic_string@DU?$char_traits@D@std@@V?$allocator@D@2@@std@@AEAAXXZ 0000000140000000     PlayZone.obj
 0003:fffad000       $cppxdata$?_Tidy_init@?$basic_string@DU?$char_traits@D@std@@V?$allocator@D@2@@std@@AEAAXXZ 0000000140000000     PlayZone.obj
 0003:fffad000       $cppxdata$?__empty_global_delete@@YAXPEAX@Z 0000000140000000     PlayZone.obj
 0003:fffad000       $cppxdata$?__empty_global_delete@@YAXPEAXW4align_val_t@std@@@Z 0000000140000000     PlayZone.obj
 0003:fffad000       $cppxdata$?__empty_global_delete@@YAXPEAX_K@Z 0000000140000000     PlayZone.obj
 0003:fffad000       $cppxdata$?__empty_global_delete@@YAXPEAX_KW4align_val_t@std@@@Z 0000000140000000     PlayZone.obj
 0003:fffad000       $cppxdata$?assign@?$_Narrow_char_traits@DH@std@@SAXAEADAEBD@Z 0000000140000000     PlayZone.obj
 0003:fffad000       $cppxdata$?copy@?$_Narrow_char_traits@DH@std@@SAPEADQEADQEBD_K@Z 0000000140000000     PlayZone.obj
 0003:fffad000       $cppxdata$?max@?$numeric_limits@_J@std@@SA_JXZ 0000000140000000     PlayZone.obj
 0003:fffad000       $cppxdata$?max_size@?$_Default_allocator_traits@V?$allocator@D@std@@@std@@SA_KAEBV?$allocator@D@2@@Z 0000000140000000     PlayZone.obj
 0003:fffad000       $cppxdata$?max_size@?$basic_string@DU?$char_traits@D@std@@V?$allocator@D@2@@std@@QEBA_KXZ 0000000140000000     PlayZone.obj
 0003:fffad000       $cppxdata$?move@?$_Narrow_char_traits@DH@std@@SAPEADQEADQEBD_K@Z 0000000140000000     PlayZone.obj
 0003:fffad000       $ip2state$??$?0D@?$allocator@U_Container_proxy@std@@@std@@QEAA@AEBV?$allocator@D@1@@Z 0000000140000000     PlayZone.obj
 0003:fffad000       $ip2state$??$?0USDL_Point@@@?$allocator@U_Container_proxy@std@@@std@@QEAA@AEBV?$allocator@USDL_Point@@@1@@Z 0000000140000000     PlayZone.obj
 0003:fffad000       $ip2state$??$_Construct_in_place@PEADAEBQEAD@std@@YAXAEAPEADAEBQEAD@Z 0000000140000000     PlayZone.obj
 0003:fffad000       $ip2state$??$_Construct_in_place@U_Container_proxy@std@@PEAU_Container_base12@2@@std@@YAXAEAU_Container_proxy@0@$$QEAPEAU_Container_base12@0@@Z 0000000140000000     PlayZone.obj
 0003:fffad000       $ip2state$??$_Deallocate@$0BA@$0A@@std@@YAXPEAX_K@Z 0000000140000000     PlayZone.obj
 0003:fffad000       $ip2state$??$_Deallocate_plain@V?$allocator@U_Container_proxy@std@@@std@@@std@@YAXAEAV?$allocator@U_Container_proxy@std@@@0@QEAU_Container_proxy@0@@Z 0000000140000000     PlayZone.obj
 0003:fffad000       $ip2state$??$_Delete_plain_internal@V?$allocator@U_Container_proxy@std@@@std@@@std@@YAXAEAV?$allocator@U_Container_proxy@std@@@0@QEAU_Container_proxy@0@@Z 0000000140000000     PlayZone.obj
 0003:fffad000       $ip2state$??$_Destroy_in_place@PEAD@std@@YAXAEAPEAD@Z 0000000140000000     PlayZone.obj
 0003:fffad000       $ip2state$??$_Destroy_range@V?$allocator@USDL_Point@@@std@@@std@@YAXPEAUSDL_Point@@QEAU1@AEAV?$allocator@USDL_Point@@@0@@Z 0000000140000000     PlayZone.obj
 0003:fffad000       $ip2state$??$_Max_value@_K@std@@YAAEB_KAEB_K0@Z 0000000140000000     PlayZone.obj
 0003:fffad000       $ip2state$??$_Min_value@_K@std@@YAAEB_KAEB_K0@Z 0000000140000000     PlayZone.obj
 0003:fffad000       $ip2state$??$addressof@PEAD@std@@YAPEAPEADAEAPEAD@Z 0000000140000000     PlayZone.obj
 0003:fffad000       $ip2state$??$addressof@U_Container_base12@std@@@std@@YAPEAU_Container_base12@0@AEAU10@@Z 0000000140000000     PlayZone.obj
 0003:fffad000       $ip2state$??$addressof@U_Container_proxy@std@@@std@@YAPEAU_Container_proxy@0@AEAU10@@Z 0000000140000000     PlayZone.obj
 0003:fffad000       $ip2state$??$forward@AEBQEAD@std@@YAAEBQEADAEBQEAD@Z 0000000140000000     PlayZone.obj
 0003:fffad000       $ip2state$??$forward@PEAU_Container_base12@std@@@std@@YA$$QEAPEAU_Container_base12@0@AEAPEAU10@@Z 0000000140000000     PlayZone.obj
 0003:fffad000       $ip2state$??$forward@V?$allocator@D@std@@@std@@YA$$QEAV?$allocator@D@0@AEAV10@@Z 0000000140000000     PlayZone.obj
 0003:fffad000       $ip2state$??0?$allocator@D@std@@QEAA@XZ 0000000140000000     PlayZone.obj
 0003:fffad000       $ip2state$??0_Container_proxy@std@@QEAA@PEAU_Container_base12@1@@Z 0000000140000000     PlayZone.obj
 0003:fffad000       $ip2state$??0bad_alloc@std@@AEAA@QEBD@Z 0000000140000000     PlayZone.obj
 0003:fffad000       $ip2state$??0bad_array_new_length@std@@QEAA@XZ 0000000140000000     PlayZone.obj
 0003:fffad000       $ip2state$??0exception@std@@QEAA@AEBV01@@Z 0000000140000000     PlayZone.obj
 0003:fffad000       $ip2state$??0exception@std@@QEAA@QEBDH@Z 0000000140000000     PlayZone.obj
 0003:fffad000       $ip2state$??1?$_Container_proxy_ptr12@V?$allocator@U_Container_proxy@std@@@std@@@std@@QEAA@XZ 0000000140000000     PlayZone.obj
 0003:fffad000       $ip2state$??1?$basic_string@DU?$char_traits@D@std@@V?$allocator@D@2@@std@@QEAA@XZ 0000000140000000     PlayZone.obj
 0003:fffad000       $ip2state$??1?$vector@USDL_Point@@V?$allocator@USDL_Point@@@std@@@std@@QEAA@XZ 0000000140000000     PlayZone.obj
 0003:fffad000       $ip2state$??1_Bxty@?$_String_val@U?$_Simple_types@D@std@@@std@@QEAA@XZ 0000000140000000     PlayZone.obj
 0003:fffad000       $ip2state$??1exception@std@@UEAA@XZ 0000000140000000     PlayZone.obj
 0003:fffad000       $ip2state$??2@YAPEAX_KPEAX@Z 0000000140000000     PlayZone.obj
 0003:fffad000       $ip2state$?_Calculate_growth@?$basic_string@DU?$char_traits@D@std@@V?$allocator@D@2@@std@@AEBA_K_K@Z 0000000140000000     PlayZone.obj
 0003:fffad000       $ip2state$?_Calculate_growth@?$basic_string@DU?$char_traits@D@std@@V?$allocator@D@2@@std@@CA_K_K00@Z 0000000140000000     PlayZone.obj
 0003:fffad000       $ip2state$?_Get_first@?$_Compressed_pair@V?$allocator@D@std@@V?$_String_val@U?$_Simple_types@D@std@@@2@$00@std@@QEAAAEAV?$allocator@D@2@XZ 0000000140000000     PlayZone.obj
 0003:fffad000       $ip2state$?_Get_first@?$_Compressed_pair@V?$allocator@D@std@@V?$_String_val@U?$_Simple_types@D@std@@@2@$00@std@@QEBAAEBV?$allocator@D@2@XZ 0000000140000000     PlayZone.obj
 0003:fffad000       $ip2state$?_Get_first@?$_Compressed_pair@V?$allocator@USDL_Point@@@std@@V?$_Vector_val@U?$_Simple_types@USDL_Point@@@std@@@2@$00@std@@QEAAAEAV?$allocator@USDL_Point@@@2@XZ 0000000140000000     PlayZone.obj
 0003:fffad000       $ip2state$?_Getal@?$basic_string@DU?$char_traits@D@std@@V?$allocator@D@2@@std@@AEAAAEAV?$allocator@D@2@XZ 0000000140000000     PlayZone.obj
 0003:fffad000       $ip2state$?_Getal@?$basic_string@DU?$char_traits@D@std@@V?$allocator@D@2@@std@@AEBAAEBV?$allocator@D@2@XZ 0000000140000000     PlayZone.obj
 0003:fffad000       $ip2state$?_Getal@?$vector@USDL_Point@@V?$allocator@USDL_Point@@@std@@@std@@AEAAAEAV?$allocator@USDL_Point@@@2@XZ 0000000140000000     PlayZone.obj
 0003:fffad000       $ip2state$?_Orphan_all@_Container_base12@std@@QEAAXXZ 0000000140000000     PlayZone.obj
 0003:fffad000       $ip2state$?_Release@_Basic_container_proxy_ptr12@std@@QEAAXXZ 0000000140000000     PlayZone.obj
 0003:fffad000       $ip2state$?_Tidy@?$vector@USDL_Point@@V?$allocator@USDL_Point@@@std@@@std@@AEAAXXZ 0000000140000000     PlayZone.obj
 0003:fffad000       $ip2state$?_Tidy_deallocate@?$basic_string@DU?$char_traits@D@std@@V?$allocator@D@2@@std@@AEAAXXZ 0000000140000000     PlayZone.obj
 0003:fffad000       $ip2state$?_Tidy_init@?$basic_string@DU?$char_traits@D@std@@V?$allocator@D@2@@std@@AEAAXXZ 0000000140000000     PlayZone.obj
 0003:fffad000       $ip2state$?__empty_global_delete@@YAXPEAX@Z 0000000140000000     PlayZone.obj
 0003:fffad000       $ip2state$?__empty_global_delete@@YAXPEAXW4align_val_t@std@@@Z 0000000140000000     PlayZone.obj
 0003:fffad000       $ip2state$?__empty_global_delete@@YAXPEAX_K@Z 0000000140000000     PlayZone.obj
 0003:fffad000       $ip2state$?__empty_global_delete@@YAXPEAX_KW4align_val_t@std@@@Z 0000000140000000     PlayZone.obj
 0003:fffad000       $ip2state$?assign@?$_Narrow_char_traits@DH@std@@SAXAEADAEBD@Z 0000000140000000     PlayZone.obj
 0003:fffad000       $ip2state$?copy@?$_Narrow_char_traits@DH@std@@SAPEADQEADQEBD_K@Z 0000000140000000     PlayZone.obj
 0003:fffad000       $ip2state$?max@?$numeric_limits@_J@std@@SA_JXZ 0000000140000000     PlayZone.obj
 0003:fffad000       $ip2state$?max_size@?$_Default_allocator_traits@V?$allocator@D@std@@@std@@SA_KAEBV?$allocator@D@2@@Z 0000000140000000     PlayZone.obj
 0003:fffad000       $ip2state$?max_size@?$basic_string@DU?$char_traits@D@std@@V?$allocator@D@2@@std@@QEBA_KXZ 0000000140000000     PlayZone.obj
 0003:fffad000       $ip2state$?move@?$_Narrow_char_traits@DH@std@@SAPEADQEADQEBD_K@Z 0000000140000000     PlayZone.obj
 0005:fff98000       $pdata$??$?0D@?$allocator@U_Container_proxy@std@@@std@@QEAA@AEBV?$allocator@D@1@@Z 0000000140000000     PlayZone.obj
 0005:fff98000       $pdata$??$?0USDL_Point@@@?$allocator@U_Container_proxy@std@@@std@@QEAA@AEBV?$allocator@USDL_Point@@@1@@Z 0000000140000000     PlayZone.obj
 0005:fff98000       $pdata$??$?0V?$allocator@D@std@@$$V@?$_Compressed_pair@V?$allocator@D@std@@V?$_String_val@U?$_Simple_types@D@std@@@2@$00@std@@QEAA@U_One_then_variadic_args_t@1@$$QEAV?$allocator@D@1@@Z 0000000140000000     PlayZone.obj
 0005:fff98000       $pdata$??$?RV?$mersenne_twister_engine@I$0CA@$0CHA@$0BIN@$0BP@$0JJAILANP@$0L@$0PPPPPPPP@$06$0JNCMFGIA@$0P@$0OPMGAAAA@$0BC@$0GMAHIJGF@@std@@@?$uniform_int@H@std@@QEBAHAEAV?$mersenne_twister_engine@I$0CA@$0CHA@$0BIN@$0BP@$0JJAILANP@$0L@$0PPPPPPPP@$06$0JNCMFGIA@$0P@$0OPMGAAAA@$0BC@$0GMAHIJGF@@1@@Z 0000000140000000     PlayZone.obj
 0005:fff98000       $pdata$??$_Alloc_proxy@V?$allocator@U_Container_proxy@std@@@std@@@_Container_base12@std@@QEAAX$$QEAV?$allocator@U_Container_proxy@std@@@1@@Z 0000000140000000     PlayZone.obj
 0005:fff98000       $pdata$??$_Allocate@$0BA@U_Default_allocate_traits@std@@$0A@@std@@YAPEAX_K@Z 0000000140000000     PlayZone.obj
 0005:fff98000       $pdata$??$_Allocate_manually_vector_aligned@U_Default_allocate_traits@std@@@std@@YAPEAX_K@Z 0000000140000000     PlayZone.obj
 0005:fff98000       $pdata$??$_Construct_in_place@PEADAEBQEAD@std@@YAXAEAPEADAEBQEAD@Z 0000000140000000     PlayZone.obj
 0005:fff98000       $pdata$??$_Construct_in_place@U_Container_proxy@std@@PEAU_Container_base12@2@@std@@YAXAEAU_Container_proxy@0@$$QEAPEAU_Container_base12@0@@Z 0000000140000000     PlayZone.obj
 0005:fff98000       $pdata$??$_Deallocate@$0BA@$0A@@std@@YAXPEAX_K@Z 0000000140000000     PlayZone.obj
 0005:fff98000       $pdata$??$_Deallocate_plain@V?$allocator@U_Container_proxy@std@@@std@@@std@@YAXAEAV?$allocator@U_Container_proxy@std@@@0@QEAU_Container_proxy@0@@Z 0000000140000000     PlayZone.obj
 0005:fff98000       $pdata$??$_Delete_plain_internal@V?$allocator@U_Container_proxy@std@@@std@@@std@@YAXAEAV?$allocator@U_Container_proxy@std@@@0@QEAU_Container_proxy@0@@Z 0000000140000000     PlayZone.obj
 0005:fff98000       $pdata$??$_Destroy_in_place@PEAD@std@@YAXAEAPEAD@Z 0000000140000000     PlayZone.obj
 0005:fff98000       $pdata$??$_Destroy_range@V?$allocator@USDL_Point@@@std@@@std@@YAXPEAUSDL_Point@@QEAU1@AEAV?$allocator@USDL_Point@@@0@@Z 0000000140000000     PlayZone.obj
 0005:fff98000       $pdata$??$_Eval@V?$mersenne_twister_engine@I$0CA@$0CHA@$0BIN@$0BP@$0JJAILANP@$0L@$0PPPPPPPP@$06$0JNCMFGIA@$0P@$0OPMGAAAA@$0BC@$0GMAHIJGF@@std@@@?$uniform_int@H@std@@AEBAHAEAV?$mersenne_twister_engine@I$0CA@$0CHA@$0BIN@$0BP@$0JJAILANP@$0L@$0PPPPPPPP@$06$0JNCMFGIA@$0P@$0OPMGAAAA@$0BC@$0GMAHIJGF@@1@HH@Z 0000000140000000     PlayZone.obj
 0005:fff98000       $pdata$??$_Get_size_of_n@$00@std@@YA_K_K@Z 0000000140000000     PlayZone.obj
 0005:fff98000       $pdata$??$_Get_size_of_n@$0BA@@std@@YA_K_K@Z 0000000140000000     PlayZone.obj
 0005:fff98000       $pdata$??$_Max_value@_K@std@@YAAEB_KAEB_K0@Z 0000000140000000     PlayZone.obj
 0005:fff98000       $pdata$??$_Min_value@_K@std@@YAAEB_KAEB_K0@Z 0000000140000000     PlayZone.obj
 0005:fff98000       $pdata$??$_Reallocate_for@V<lambda_66f57f934f28d61049862f64df852ff0>@@PEBD@?$basic_string@DU?$char_traits@D@std@@V?$allocator@D@2@@std@@AEAAAEAV01@_KV<lambda_66f57f934f28d61049862f64df852ff0>@@PEBD@Z 0000000140000000     PlayZone.obj
 0005:fff98000       $pdata$??$_Unfancy@D@std@@YAPEADPEAD@Z 0000000140000000     PlayZone.obj
 0005:fff98000       $pdata$??$_Unfancy@U_Container_proxy@std@@@std@@YAPEAU_Container_proxy@0@PEAU10@@Z 0000000140000000     PlayZone.obj
 0005:fff98000       $pdata$??$addressof@PEAD@std@@YAPEAPEADAEAPEAD@Z 0000000140000000     PlayZone.obj
 0005:fff98000       $pdata$??$addressof@U_Container_base12@std@@@std@@YAPEAU_Container_base12@0@AEAU10@@Z 0000000140000000     PlayZone.obj
 0005:fff98000       $pdata$??$addressof@U_Container_proxy@std@@@std@@YAPEAU_Container_proxy@0@AEAU10@@Z 0000000140000000     PlayZone.obj
 0005:fff98000       $pdata$??$exchange@PEAU_Container_proxy@std@@$$T@std@@YAPEAU_Container_proxy@0@AEAPEAU10@$$QEA$$T@Z 0000000140000000     PlayZone.obj
 0005:fff98000       $pdata$??$forward@AEBQEAD@std@@YAAEBQEADAEBQEAD@Z 0000000140000000     PlayZone.obj
 0005:fff98000       $pdata$??$forward@PEAU_Container_base12@std@@@std@@YA$$QEAPEAU_Container_base12@0@AEAPEAU10@@Z 0000000140000000     PlayZone.obj
 0005:fff98000       $pdata$??$forward@V?$allocator@D@std@@@std@@YA$$QEAV?$allocator@D@0@AEAV10@@Z 0000000140000000     PlayZone.obj
 0005:fff98000       $pdata$??0?$_Container_proxy_ptr12@V?$allocator@U_Container_proxy@std@@@std@@@std@@QEAA@AEAV?$allocator@U_Container_proxy@std@@@1@AEAU_Container_base12@1@@Z 0000000140000000     PlayZone.obj
 0005:fff98000       $pdata$??0?$_Rng_from_urng@IV?$mersenne_twister_engine@I$0CA@$0CHA@$0BIN@$0BP@$0JJAILANP@$0L@$0PPPPPPPP@$06$0JNCMFGIA@$0P@$0OPMGAAAA@$0BC@$0GMAHIJGF@@std@@@std@@QEAA@AEAV?$mersenne_twister_engine@I$0CA@$0CHA@$0BIN@$0BP@$0JJAILANP@$0L@$0PPPPPPPP@$06$0JNCMFGIA@$0P@$0OPMGAAAA@$0BC@$0GMAHIJGF@@1@@Z 0000000140000000     PlayZone.obj
 0005:fff98000       $pdata$??0?$_String_val@U?$_Simple_types@D@std@@@std@@QEAA@XZ 0000000140000000     PlayZone.obj
 0005:fff98000       $pdata$??0?$allocator@D@std@@QEAA@XZ 0000000140000000     PlayZone.obj
 0005:fff98000       $pdata$??0?$mersenne_twister@I$0CA@$0CHA@$0BIN@$0BP@$0JJAILANP@$0L@$06$0JNCMFGIA@$0P@$0OPMGAAAA@$0BC@@std@@QEAA@III@Z 0000000140000000     PlayZone.obj
 0005:fff98000       $pdata$??0?$mersenne_twister_engine@I$0CA@$0CHA@$0BIN@$0BP@$0JJAILANP@$0L@$0PPPPPPPP@$06$0JNCMFGIA@$0P@$0OPMGAAAA@$0BC@$0GMAHIJGF@@std@@QEAA@I@Z 0000000140000000     PlayZone.obj
 0005:fff98000       $pdata$??0?$uniform_int@H@std@@QEAA@HH@Z 0000000140000000     PlayZone.obj
 0005:fff98000       $pdata$??0?$uniform_int_distribution@H@std@@QEAA@HH@Z 0000000140000000     PlayZone.obj
 0005:fff98000       $pdata$??0_Bxty@?$_String_val@U?$_Simple_types@D@std@@@std@@QEAA@XZ 0000000140000000     PlayZone.obj
 0005:fff98000       $pdata$??0_Container_base12@std@@QEAA@XZ 0000000140000000     PlayZone.obj
 0005:fff98000       $pdata$??0_Container_proxy@std@@QEAA@PEAU_Container_base12@1@@Z 0000000140000000     PlayZone.obj
 0005:fff98000       $pdata$??0bad_alloc@std@@AEAA@QEBD@Z 0000000140000000     PlayZone.obj
 0005:fff98000       $pdata$??0bad_alloc@std@@QEAA@AEBV01@@Z 0000000140000000     PlayZone.obj
 0005:fff98000       $pdata$??0bad_array_new_length@std@@QEAA@AEBV01@@Z 0000000140000000     PlayZone.obj
 0005:fff98000       $pdata$??0bad_array_new_length@std@@QEAA@XZ 0000000140000000     PlayZone.obj
 0005:fff98000       $pdata$??0exception@std@@QEAA@AEBV01@@Z 0000000140000000     PlayZone.obj
 0005:fff98000       $pdata$??0exception@std@@QEAA@QEBDH@Z 0000000140000000     PlayZone.obj
 0005:fff98000       $pdata$??0param_type@?$uniform_int@H@std@@QEAA@HH@Z 0000000140000000     PlayZone.obj
 0005:fff98000       $pdata$??0random_device@std@@QEAA@XZ 0000000140000000     PlayZone.obj
 0005:fff98000       $pdata$??1?$_Compressed_pair@V?$allocator@D@std@@V?$_String_val@U?$_Simple_types@D@std@@@2@$00@std@@QEAA@XZ 0000000140000000     PlayZone.obj
 0005:fff98000       $pdata$??1?$_Container_proxy_ptr12@V?$allocator@U_Container_proxy@std@@@std@@@std@@QEAA@XZ 0000000140000000     PlayZone.obj
 0005:fff98000       $pdata$??1?$_String_val@U?$_Simple_types@D@std@@@std@@QEAA@XZ 0000000140000000     PlayZone.obj
 0005:fff98000       $pdata$??1?$basic_string@DU?$char_traits@D@std@@V?$allocator@D@2@@std@@QEAA@XZ 0000000140000000     PlayZone.obj
 0005:fff98000       $pdata$??1?$vector@USDL_Point@@V?$allocator@USDL_Point@@@std@@@std@@QEAA@XZ 0000000140000000     PlayZone.obj
 0005:fff98000       $pdata$??1Snake@@QEAA@XZ   0000000140000000     PlayZone.obj
 0005:fff98000       $pdata$??1_Bxty@?$_String_val@U?$_Simple_types@D@std@@@std@@QEAA@XZ 0000000140000000     PlayZone.obj
 0005:fff98000       $pdata$??1bad_alloc@std@@UEAA@XZ 0000000140000000     PlayZone.obj
 0005:fff98000       $pdata$??1bad_array_new_length@std@@UEAA@XZ 0000000140000000     PlayZone.obj
 0005:fff98000       $pdata$??1exception@std@@UEAA@XZ 0000000140000000     PlayZone.obj
 0005:fff98000       $pdata$??2@YAPEAX_KPEAX@Z  0000000140000000     PlayZone.obj
 0005:fff98000       $pdata$??R<lambda_66f57f934f28d61049862f64df852ff0>@@QEBA@QEAD_KQEBD@Z 0000000140000000     PlayZone.obj
 0005:fff98000       $pdata$??R?$_Rng_from_urng@IV?$mersenne_twister_engine@I$0CA@$0CHA@$0BIN@$0BP@$0JJAILANP@$0L@$0PPPPPPPP@$06$0JNCMFGIA@$0P@$0OPMGAAAA@$0BC@$0GMAHIJGF@@std@@@std@@QEAAII@Z 0000000140000000     PlayZone.obj
 0005:fff98000       $pdata$??R?$mersenne_twister@I$0CA@$0CHA@$0BIN@$0BP@$0JJAILANP@$0L@$06$0JNCMFGIA@$0P@$0OPMGAAAA@$0BC@@std@@QEAAIXZ 0000000140000000     PlayZone.obj
 0005:fff98000       $pdata$??_Gbad_alloc@std@@UEAAPEAXI@Z 0000000140000000     PlayZone.obj
 0005:fff98000       $pdata$??_Gbad_array_new_length@std@@UEAAPEAXI@Z 0000000140000000     PlayZone.obj
 0005:fff98000       $pdata$??_Gexception@std@@UEAAPEAXI@Z 0000000140000000     PlayZone.obj
 0005:fff98000       $pdata$?_Adjust@?$uniform_int@H@std@@CAII@Z 0000000140000000     PlayZone.obj
 0005:fff98000       $pdata$?_Adjust@?$uniform_int@H@std@@CAIIU?$integral_constant@_N$00@2@@Z 0000000140000000     PlayZone.obj
 0005:fff98000       $pdata$?_Adjust_manually_vector_aligned@std@@YAXAEAPEAXAEA_K@Z 0000000140000000     PlayZone.obj
 0005:fff98000       $pdata$?_Allocate@_Default_allocate_traits@std@@SAPEAX_K@Z 0000000140000000     PlayZone.obj
 0005:fff98000       $pdata$?_Calculate_growth@?$basic_string@DU?$char_traits@D@std@@V?$allocator@D@2@@std@@AEBA_K_K@Z 0000000140000000     PlayZone.obj
 0005:fff98000       $pdata$?_Calculate_growth@?$basic_string@DU?$char_traits@D@std@@V?$allocator@D@2@@std@@CA_K_K00@Z 0000000140000000     PlayZone.obj
 0005:fff98000       $pdata$?_Destroy@?$vector@USDL_Point@@V?$allocator@USDL_Point@@@std@@@std@@AEAAXPEAUSDL_Point@@0@Z 0000000140000000     PlayZone.obj
 0005:fff98000       $pdata$?_Get_all_bits@?$_Rng_from_urng@IV?$mersenne_twister_engine@I$0CA@$0CHA@$0BIN@$0BP@$0JJAILANP@$0L@$0PPPPPPPP@$06$0JNCMFGIA@$0P@$0OPMGAAAA@$0BC@$0GMAHIJGF@@std@@@std@@QEAAIXZ 0000000140000000     PlayZone.obj
 0005:fff98000       $pdata$?_Get_bits@?$_Rng_from_urng@IV?$mersenne_twister_engine@I$0CA@$0CHA@$0BIN@$0BP@$0JJAILANP@$0L@$0PPPPPPPP@$06$0JNCMFGIA@$0P@$0OPMGAAAA@$0BC@$0GMAHIJGF@@std@@@std@@AEAAIXZ 0000000140000000     PlayZone.obj
 0005:fff98000       $pdata$?_Get_first@?$_Compressed_pair@V?$allocator@D@std@@V?$_String_val@U?$_Simple_types@D@std@@@2@$00@std@@QEAAAEAV?$allocator@D@2@XZ 0000000140000000     PlayZone.obj
 0005:fff98000       $pdata$?_Get_first@?$_Compressed_pair@V?$allocator@D@std@@V?$_String_val@U?$_Simple_types@D@std@@@2@$00@std@@QEBAAEBV?$allocator@D@2@XZ 0000000140000000     PlayZone.obj
 0005:fff98000       $pdata$?_Get_first@?$_Compressed_pair@V?$allocator@USDL_Point@@@std@@V?$_Vector_val@U?$_Simple_types@USDL_Point@@@std@@@2@$00@std@@QEAAAEAV?$allocator@USDL_Point@@@2@XZ 0000000140000000     PlayZone.obj
 0005:fff98000       $pdata$?_Getal@?$basic_string@DU?$char_traits@D@std@@V?$allocator@D@2@@std@@AEAAAEAV?$allocator@D@2@XZ 0000000140000000     PlayZone.obj
 0005:fff98000       $pdata$?_Getal@?$basic_string@DU?$char_traits@D@std@@V?$allocator@D@2@@std@@AEBAAEBV?$allocator@D@2@XZ 0000000140000000     PlayZone.obj
 0005:fff98000       $pdata$?_Getal@?$vector@USDL_Point@@V?$allocator@USDL_Point@@@std@@@std@@AEAAAEAV?$allocator@USDL_Point@@@2@XZ 0000000140000000     PlayZone.obj
 0005:fff98000       $pdata$?_Init@param_type@?$uniform_int@H@std@@QEAAXHH@Z 0000000140000000     PlayZone.obj
 0005:fff98000       $pdata$?_Large_string_engaged@?$_String_val@U?$_Simple_types@D@std@@@std@@QEBA_NXZ 0000000140000000     PlayZone.obj
 0005:fff98000       $pdata$?_Myptr@?$_String_val@U?$_Simple_types@D@std@@@std@@QEAAPEADXZ 0000000140000000     PlayZone.obj
 0005:fff98000       $pdata$?_Myptr@?$_String_val@U?$_Simple_types@D@std@@@std@@QEBAPEBDXZ 0000000140000000     PlayZone.obj
 0005:fff98000       $pdata$?_Orphan_all@_Container_base12@std@@QEAAXXZ 0000000140000000     PlayZone.obj
 0005:fff98000       $pdata$?_Refill_lower@?$mersenne_twister@I$0CA@$0CHA@$0BIN@$0BP@$0JJAILANP@$0L@$06$0JNCMFGIA@$0P@$0OPMGAAAA@$0BC@@std@@IEAAXXZ 0000000140000000     PlayZone.obj
 0005:fff98000       $pdata$?_Refill_upper@?$mersenne_twister@I$0CA@$0CHA@$0BIN@$0BP@$0JJAILANP@$0L@$06$0JNCMFGIA@$0P@$0OPMGAAAA@$0BC@@std@@IEAAXXZ 0000000140000000     PlayZone.obj
 0005:fff98000       $pdata$?_Release@_Basic_container_proxy_ptr12@std@@QEAAXXZ 0000000140000000     PlayZone.obj
 0005:fff98000       $pdata$?_Throw_bad_array_new_length@std@@YAXXZ 0000000140000000     PlayZone.obj
 0005:fff98000       $pdata$?_Tidy@?$vector@USDL_Point@@V?$allocator@USDL_Point@@@std@@@std@@AEAAXXZ 0000000140000000     PlayZone.obj
 0005:fff98000       $pdata$?_Tidy_deallocate@?$basic_string@DU?$char_traits@D@std@@V?$allocator@D@2@@std@@AEAAXXZ 0000000140000000     PlayZone.obj
 0005:fff98000       $pdata$?_Tidy_init@?$basic_string@DU?$char_traits@D@std@@V?$allocator@D@2@@std@@AEAAXXZ 0000000140000000     PlayZone.obj
 0005:fff98000       $pdata$?_Xlen@?$basic_string@DU?$char_traits@D@std@@V?$allocator@D@2@@std@@CAXXZ 0000000140000000     PlayZone.obj
 0005:fff98000       $pdata$?__empty_global_delete@@YAXPEAX@Z 0000000140000000     PlayZone.obj
 0005:fff98000       $pdata$?__empty_global_delete@@YAXPEAXW4align_val_t@std@@@Z 0000000140000000     PlayZone.obj
 0005:fff98000       $pdata$?__empty_global_delete@@YAXPEAX_K@Z 0000000140000000     PlayZone.obj
 0005:fff98000       $pdata$?__empty_global_delete@@YAXPEAX_KW4align_val_t@std@@@Z 0000000140000000     PlayZone.obj
 0005:fff98000       $pdata$?allocate@?$allocator@D@std@@QEAAPEAD_K@Z 0000000140000000     PlayZone.obj
 0005:fff98000       $pdata$?allocate@?$allocator@U_Container_proxy@std@@@std@@QEAAPEAU_Container_proxy@2@_K@Z 0000000140000000     PlayZone.obj
 0005:fff98000       $pdata$?assign@?$_Narrow_char_traits@DH@std@@SAXAEADAEBD@Z 0000000140000000     PlayZone.obj
 0005:fff98000       $pdata$?assign@?$basic_string@DU?$char_traits@D@std@@V?$allocator@D@2@@std@@QEAAAEAV12@QEBD_K@Z 0000000140000000     PlayZone.obj
 0005:fff98000       $pdata$?copy@?$_Narrow_char_traits@DH@std@@SAPEADQEADQEBD_K@Z 0000000140000000     PlayZone.obj
 0005:fff98000       $pdata$?deallocate@?$_Default_allocator_traits@V?$allocator@U_Container_proxy@std@@@std@@@std@@SAXAEAV?$allocator@U_Container_proxy@std@@@2@QEAU_Container_proxy@2@_K@Z 0000000140000000     PlayZone.obj
 0005:fff98000       $pdata$?deallocate@?$allocator@D@std@@QEAAXQEAD_K@Z 0000000140000000     PlayZone.obj
 0005:fff98000       $pdata$?deallocate@?$allocator@USDL_Point@@@std@@QEAAXQEAUSDL_Point@@_K@Z 0000000140000000     PlayZone.obj
 0005:fff98000       $pdata$?max@?$mersenne_twister_engine@I$0CA@$0CHA@$0BIN@$0BP@$0JJAILANP@$0L@$0PPPPPPPP@$06$0JNCMFGIA@$0P@$0OPMGAAAA@$0BC@$0GMAHIJGF@@std@@SAIXZ 0000000140000000     PlayZone.obj
 0005:fff98000       $pdata$?max@?$numeric_limits@_J@std@@SA_JXZ 0000000140000000     PlayZone.obj
 0005:fff98000       $pdata$?max_size@?$_Default_allocator_traits@V?$allocator@D@std@@@std@@SA_KAEBV?$allocator@D@2@@Z 0000000140000000     PlayZone.obj
 0005:fff98000       $pdata$?max_size@?$basic_string@DU?$char_traits@D@std@@V?$allocator@D@2@@std@@QEBA_KXZ 0000000140000000     PlayZone.obj
 0005:fff98000       $pdata$?min@?$mersenne_twister_engine@I$0CA@$0CHA@$0BIN@$0BP@$0JJAILANP@$0L@$0PPPPPPPP@$06$0JNCMFGIA@$0P@$0OPMGAAAA@$0BC@$0GMAHIJGF@@std@@SAIXZ 0000000140000000     PlayZone.obj
 0005:fff98000       $pdata$?move@?$_Narrow_char_traits@DH@std@@SAPEADQEADQEBD_K@Z 0000000140000000     PlayZone.obj
 0005:fff98000       $pdata$?seed@?$mersenne_twister@I$0CA@$0CHA@$0BIN@$0BP@$0JJAILANP@$0L@$06$0JNCMFGIA@$0P@$0OPMGAAAA@$0BC@@std@@QEAAXII@Z 0000000140000000     PlayZone.obj
 0005:fff98000       $pdata$?what@exception@std@@UEBAPEBDXZ 0000000140000000     PlayZone.obj
 0003:fffad000       $unwind$??$?0D@?$allocator@U_Container_proxy@std@@@std@@QEAA@AEBV?$allocator@D@1@@Z 0000000140000000     PlayZone.obj
 0003:fffad000       $unwind$??$?0USDL_Point@@@?$allocator@U_Container_proxy@std@@@std@@QEAA@AEBV?$allocator@USDL_Point@@@1@@Z 0000000140000000     PlayZone.obj
 0003:fffad000       $unwind$??$?0V?$allocator@D@std@@$$V@?$_Compressed_pair@V?$allocator@D@std@@V?$_String_val@U?$_Simple_types@D@std@@@2@$00@std@@QEAA@U_One_then_variadic_args_t@1@$$QEAV?$allocator@D@1@@Z 0000000140000000     PlayZone.obj
 0003:fffad000       $unwind$??$?RV?$mersenne_twister_engine@I$0CA@$0CHA@$0BIN@$0BP@$0JJAILANP@$0L@$0PPPPPPPP@$06$0JNCMFGIA@$0P@$0OPMGAAAA@$0BC@$0GMAHIJGF@@std@@@?$uniform_int@H@std@@QEBAHAEAV?$mersenne_twister_engine@I$0CA@$0CHA@$0BIN@$0BP@$0JJAILANP@$0L@$0PPPPPPPP@$06$0JNCMFGIA@$0P@$0OPMGAAAA@$0BC@$0GMAHIJGF@@1@@Z 0000000140000000     PlayZone.obj
 0003:fffad000       $unwind$??$_Alloc_proxy@V?$allocator@U_Container_proxy@std@@@std@@@_Container_base12@std@@QEAAX$$QEAV?$allocator@U_Container_proxy@std@@@1@@Z 0000000140000000     PlayZone.obj
 0003:fffad000       $unwind$??$_Allocate@$0BA@U_Default_allocate_traits@std@@$0A@@std@@YAPEAX_K@Z 0000000140000000     PlayZone.obj
 0003:fffad000       $unwind$??$_Allocate_manually_vector_aligned@U_Default_allocate_traits@std@@@std@@YAPEAX_K@Z 0000000140000000     PlayZone.obj
 0003:fffad000       $unwind$??$_Construct_in_place@PEADAEBQEAD@std@@YAXAEAPEADAEBQEAD@Z 0000000140000000     PlayZone.obj
 0003:fffad000       $unwind$??$_Construct_in_place@U_Container_proxy@std@@PEAU_Container_base12@2@@std@@YAXAEAU_Container_proxy@0@$$QEAPEAU_Container_base12@0@@Z 0000000140000000     PlayZone.obj
 0003:fffad000       $unwind$??$_Deallocate@$0BA@$0A@@std@@YAXPEAX_K@Z 0000000140000000     PlayZone.obj
 0003:fffad000       $unwind$??$_Deallocate_plain@V?$allocator@U_Container_proxy@std@@@std@@@std@@YAXAEAV?$allocator@U_Container_proxy@std@@@0@QEAU_Container_proxy@0@@Z 0000000140000000     PlayZone.obj
 0003:fffad000       $unwind$??$_Delete_plain_internal@V?$allocator@U_Container_proxy@std@@@std@@@std@@YAXAEAV?$allocator@U_Container_proxy@std@@@0@QEAU_Container_proxy@0@@Z 0000000140000000     PlayZone.obj
 0003:fffad000       $unwind$??$_Destroy_in_place@PEAD@std@@YAXAEAPEAD@Z 0000000140000000     PlayZone.obj
 0003:fffad000       $unwind$??$_Destroy_range@V?$allocator@USDL_Point@@@std@@@std@@YAXPEAUSDL_Point@@QEAU1@AEAV?$allocator@USDL_Point@@@0@@Z 0000000140000000     PlayZone.obj
 0003:fffad000       $unwind$??$_Eval@V?$mersenne_twister_engine@I$0CA@$0CHA@$0BIN@$0BP@$0JJAILANP@$0L@$0PPPPPPPP@$06$0JNCMFGIA@$0P@$0OPMGAAAA@$0BC@$0GMAHIJGF@@std@@@?$uniform_int@H@std@@AEBAHAEAV?$mersenne_twister_engine@I$0CA@$0CHA@$0BIN@$0BP@$0JJAILANP@$0L@$0PPPPPPPP@$06$0JNCMFGIA@$0P@$0OPMGAAAA@$0BC@$0GMAHIJGF@@1@HH@Z 0000000140000000     PlayZone.obj
 0003:fffad000       $unwind$??$_Get_size_of_n@$00@std@@YA_K_K@Z 0000000140000000     PlayZone.obj
 0003:fffad000       $unwind$??$_Get_size_of_n@$0BA@@std@@YA_K_K@Z 0000000140000000     PlayZone.obj
 0003:fffad000       $unwind$??$_Max_value@_K@std@@YAAEB_KAEB_K0@Z 0000000140000000     PlayZone.obj
 0003:fffad000       $unwind$??$_Min_value@_K@std@@YAAEB_KAEB_K0@Z 0000000140000000     PlayZone.obj
 0003:fffad000       $unwind$??$_Reallocate_for@V<lambda_66f57f934f28d61049862f64df852ff0>@@PEBD@?$basic_string@DU?$char_traits@D@std@@V?$allocator@D@2@@std@@AEAAAEAV01@_KV<lambda_66f57f934f28d61049862f64df852ff0>@@PEBD@Z 0000000140000000     PlayZone.obj
 0003:fffad000       $unwind$??$_Unfancy@D@std@@YAPEADPEAD@Z 0000000140000000     PlayZone.obj
 0003:fffad000       $unwind$??$_Unfancy@U_Container_proxy@std@@@std@@YAPEAU_Container_proxy@0@PEAU10@@Z 0000000140000000     PlayZone.obj
 0003:fffad000       $unwind$??$addressof@PEAD@std@@YAPEAPEADAEAPEAD@Z 0000000140000000     PlayZone.obj
 0003:fffad000       $unwind$??$addressof@U_Container_base12@std@@@std@@YAPEAU_Container_base12@0@AEAU10@@Z 0000000140000000     PlayZone.obj
 0003:fffad000       $unwind$??$addressof@U_Container_proxy@std@@@std@@YAPEAU_Container_proxy@0@AEAU10@@Z 0000000140000000     PlayZone.obj
 0003:fffad000       $unwind$??$exchange@PEAU_Container_proxy@std@@$$T@std@@YAPEAU_Container_proxy@0@AEAPEAU10@$$QEA$$T@Z 0000000140000000     PlayZone.obj
 0003:fffad000       $unwind$??$forward@AEBQEAD@std@@YAAEBQEADAEBQEAD@Z 0000000140000000     PlayZone.obj
 0003:fffad000       $unwind$??$forward@PEAU_Container_base12@std@@@std@@YA$$QEAPEAU_Container_base12@0@AEAPEAU10@@Z 0000000140000000     PlayZone.obj
 0003:fffad000       $unwind$??$forward@V?$allocator@D@std@@@std@@YA$$QEAV?$allocator@D@0@AEAV10@@Z 0000000140000000     PlayZone.obj
 0003:fffad000       $unwind$??0?$_Container_proxy_ptr12@V?$allocator@U_Container_proxy@std@@@std@@@std@@QEAA@AEAV?$allocator@U_Container_proxy@std@@@1@AEAU_Container_base12@1@@Z 0000000140000000     PlayZone.obj
 0003:fffad000       $unwind$??0?$_Rng_from_urng@IV?$mersenne_twister_engine@I$0CA@$0CHA@$0BIN@$0BP@$0JJAILANP@$0L@$0PPPPPPPP@$06$0JNCMFGIA@$0P@$0OPMGAAAA@$0BC@$0GMAHIJGF@@std@@@std@@QEAA@AEAV?$mersenne_twister_engine@I$0CA@$0CHA@$0BIN@$0BP@$0JJAILANP@$0L@$0PPPPPPPP@$06$0JNCMFGIA@$0P@$0OPMGAAAA@$0BC@$0GMAHIJGF@@1@@Z 0000000140000000     PlayZone.obj
 0003:fffad000       $unwind$??0?$_String_val@U?$_Simple_types@D@std@@@std@@QEAA@XZ 0000000140000000     PlayZone.obj
 0003:fffad000       $unwind$??0?$allocator@D@std@@QEAA@XZ 0000000140000000     PlayZone.obj
 0003:fffad000       $unwind$??0?$mersenne_twister@I$0CA@$0CHA@$0BIN@$0BP@$0JJAILANP@$0L@$06$0JNCMFGIA@$0P@$0OPMGAAAA@$0BC@@std@@QEAA@III@Z 0000000140000000     PlayZone.obj
 0003:fffad000       $unwind$??0?$mersenne_twister_engine@I$0CA@$0CHA@$0BIN@$0BP@$0JJAILANP@$0L@$0PPPPPPPP@$06$0JNCMFGIA@$0P@$0OPMGAAAA@$0BC@$0GMAHIJGF@@std@@QEAA@I@Z 0000000140000000     PlayZone.obj
 0003:fffad000       $unwind$??0?$uniform_int@H@std@@QEAA@HH@Z 0000000140000000     PlayZone.obj
 0003:fffad000       $unwind$??0?$uniform_int_distribution@H@std@@QEAA@HH@Z 0000000140000000     PlayZone.obj
 0003:fffad000       $unwind$??0_Bxty@?$_String_val@U?$_Simple_types@D@std@@@std@@QEAA@XZ 0000000140000000     PlayZone.obj
 0003:fffad000       $unwind$??0_Container_base12@std@@QEAA@XZ 0000000140000000     PlayZone.obj
 0003:fffad000       $unwind$??0_Container_proxy@std@@QEAA@PEAU_Container_base12@1@@Z 0000000140000000     PlayZone.obj
 0003:fffad000       $unwind$??0bad_alloc@std@@AEAA@QEBD@Z 0000000140000000     PlayZone.obj
 0003:fffad000       $unwind$??0bad_alloc@std@@QEAA@AEBV01@@Z 0000000140000000     PlayZone.obj
 0003:fffad000       $unwind$??0bad_array_new_length@std@@QEAA@AEBV01@@Z 0000000140000000     PlayZone.obj
 0003:fffad000       $unwind$??0bad_array_new_length@std@@QEAA@XZ 0000000140000000     PlayZone.obj
 0003:fffad000       $unwind$??0exception@std@@QEAA@AEBV01@@Z 0000000140000000     PlayZone.obj
 0003:fffad000       $unwind$??0exception@std@@QEAA@QEBDH@Z 0000000140000000     PlayZone.obj
 0003:fffad000       $unwind$??0param_type@?$uniform_int@H@std@@QEAA@HH@Z 0000000140000000     PlayZone.obj
 0003:fffad000       $unwind$??0random_device@std@@QEAA@XZ 0000000140000000     PlayZone.obj
 0003:fffad000       $unwind$??1?$_Compressed_pair@V?$allocator@D@std@@V?$_String_val@U?$_Simple_types@D@std@@@2@$00@std@@QEAA@XZ 0000000140000000     PlayZone.obj
 0003:fffad000       $unwind$??1?$_Container_proxy_ptr12@V?$allocator@U_Container_proxy@std@@@std@@@std@@QEAA@XZ 0000000140000000     PlayZone.obj
 0003:fffad000       $unwind$??1?$_String_val@U?$_Simple_types@D@std@@@std@@QEAA@XZ 0000000140000000     PlayZone.obj
 0003:fffad000       $unwind$??1?$basic_string@DU?$char_traits@D@std@@V?$allocator@D@2@@std@@QEAA@XZ 0000000140000000     PlayZone.obj
 0003:fffad000       $unwind$??1?$vector@USDL_Point@@V?$allocator@USDL_Point@@@std@@@std@@QEAA@XZ 0000000140000000     PlayZone.obj
 0003:fffad000       $unwind$??1Snake@@QEAA@XZ  0000000140000000     PlayZone.obj
 0003:fffad000       $unwind$??1_Bxty@?$_String_val@U?$_Simple_types@D@std@@@std@@QEAA@XZ 0000000140000000     PlayZone.obj
 0003:fffad000       $unwind$??1bad_alloc@std@@UEAA@XZ 0000000140000000     PlayZone.obj
 0003:fffad000       $unwind$??1bad_array_new_length@std@@UEAA@XZ 0000000140000000     PlayZone.obj
 0003:fffad000       $unwind$??1exception@std@@UEAA@XZ 0000000140000000     PlayZone.obj
 0003:fffad000       $unwind$??2@YAPEAX_KPEAX@Z 0000000140000000     PlayZone.obj
 0003:fffad000       $unwind$??R<lambda_66f57f934f28d61049862f64df852ff0>@@QEBA@QEAD_KQEBD@Z 0000000140000000     PlayZone.obj
 0003:fffad000       $unwind$??R?$_Rng_from_urng@IV?$mersenne_twister_engine@I$0CA@$0CHA@$0BIN@$0BP@$0JJAILANP@$0L@$0PPPPPPPP@$06$0JNCMFGIA@$0P@$0OPMGAAAA@$0BC@$0GMAHIJGF@@std@@@std@@QEAAII@Z 0000000140000000     PlayZone.obj
 0003:fffad000       $unwind$??R?$mersenne_twister@I$0CA@$0CHA@$0BIN@$0BP@$0JJAILANP@$0L@$06$0JNCMFGIA@$0P@$0OPMGAAAA@$0BC@@std@@QEAAIXZ 0000000140000000     PlayZone.obj
 0003:fffad000       $unwind$??_Gbad_alloc@std@@UEAAPEAXI@Z 0000000140000000     PlayZone.obj
 0003:fffad000       $unwind$??_Gbad_array_new_length@std@@UEAAPEAXI@Z 0000000140000000     PlayZone.obj
 0003:fffad000       $unwind$??_Gexception@std@@UEAAPEAXI@Z 0000000140000000     PlayZone.obj
 0003:fffad000       $unwind$?_Adjust@?$uniform_int@H@std@@CAII@Z 0000000140000000     PlayZone.obj
 0003:fffad000       $unwind$?_Adjust@?$uniform_int@H@std@@CAIIU?$integral_constant@_N$00@2@@Z 0000000140000000     PlayZone.obj
 0003:fffad000       $unwind$?_Adjust_manually_vector_aligned@std@@YAXAEAPEAXAEA_K@Z 0000000140000000     PlayZone.obj
 0003:fffad000       $unwind$?_Allocate@_Default_allocate_traits@std@@SAPEAX_K@Z 0000000140000000     PlayZone.obj
 0003:fffad000       $unwind$?_Calculate_growth@?$basic_string@DU?$char_traits@D@std@@V?$allocator@D@2@@std@@AEBA_K_K@Z 0000000140000000     PlayZone.obj
 0003:fffad000       $unwind$?_Calculate_growth@?$basic_string@DU?$char_traits@D@std@@V?$allocator@D@2@@std@@CA_K_K00@Z 0000000140000000     PlayZone.obj
 0003:fffad000       $unwind$?_Destroy@?$vector@USDL_Point@@V?$allocator@USDL_Point@@@std@@@std@@AEAAXPEAUSDL_Point@@0@Z 0000000140000000     PlayZone.obj
 0003:fffad000       $unwind$?_Get_all_bits@?$_Rng_from_urng@IV?$mersenne_twister_engine@I$0CA@$0CHA@$0BIN@$0BP@$0JJAILANP@$0L@$0PPPPPPPP@$06$0JNCMFGIA@$0P@$0OPMGAAAA@$0BC@$0GMAHIJGF@@std@@@std@@QEAAIXZ 0000000140000000     PlayZone.obj
 0003:fffad000       $unwind$?_Get_bits@?$_Rng_from_urng@IV?$mersenne_twister_engine@I$0CA@$0CHA@$0BIN@$0BP@$0JJAILANP@$0L@$0PPPPPPPP@$06$0JNCMFGIA@$0P@$0OPMGAAAA@$0BC@$0GMAHIJGF@@std@@@std@@AEAAIXZ 0000000140000000     PlayZone.obj
 0003:fffad000       $unwind$?_Get_first@?$_Compressed_pair@V?$allocator@D@std@@V?$_String_val@U?$_Simple_types@D@std@@@2@$00@std@@QEAAAEAV?$allocator@D@2@XZ 0000000140000000     PlayZone.obj
 0003:fffad000       $unwind$?_Get_first@?$_Compressed_pair@V?$allocator@D@std@@V?$_String_val@U?$_Simple_types@D@std@@@2@$00@std@@QEBAAEBV?$allocator@D@2@XZ 0000000140000000     PlayZone.obj
 0003:fffad000       $unwind$?_Get_first@?$_Compressed_pair@V?$allocator@USDL_Point@@@std@@V?$_Vector_val@U?$_Simple_types@USDL_Point@@@std@@@2@$00@std@@QEAAAEAV?$allocator@USDL_Point@@@2@XZ 0000000140000000     PlayZone.obj
 0003:fffad000       $unwind$?_Getal@?$basic_string@DU?$char_traits@D@std@@V?$allocator@D@2@@std@@AEAAAEAV?$allocator@D@2@XZ 0000000140000000     PlayZone.obj
 0003:fffad000       $unwind$?_Getal@?$basic_string@DU?$char_traits@D@std@@V?$allocator@D@2@@std@@AEBAAEBV?$allocator@D@2@XZ 0000000140000000     PlayZone.obj
 0003:fffad000       $unwind$?_Getal@?$vector@USDL_Point@@V?$allocator@USDL_Point@@@std@@@std@@AEAAAEAV?$allocator@USDL_Point@@@2@XZ 0000000140000000     PlayZone.obj
 0003:fffad000       $unwind$?_Init@param_type@?$uniform_int@H@std@@QEAAXHH@Z 0000000140000000     PlayZone.obj
 0003:fffad000       $unwind$?_Large_string_engaged@?$_String_val@U?$_Simple_types@D@std@@@std@@QEBA_NXZ 0000000140000000     PlayZone.obj
 0003:fffad000       $unwind$?_Myptr@?$_String_val@U?$_Simple_types@D@std@@@std@@QEAAPEADXZ 0000000140000000     PlayZone.obj
 0003:fffad000       $unwind$?_Myptr@?$_String_val@U?$_Simple_types@D@std@@@std@@QEBAPEBDXZ 0000000140000000     PlayZone.obj
 0003:fffad000       $unwind$?_Orphan_all@_Container_base12@std@@QEAAXXZ 0000000140000000     PlayZone.obj
 0003:fffad000       $unwind$?_Refill_lower@?$mersenne_twister@I$0CA@$0CHA@$0BIN@$0BP@$0JJAILANP@$0L@$06$0JNCMFGIA@$0P@$0OPMGAAAA@$0BC@@std@@IEAAXXZ 0000000140000000     PlayZone.obj
 0003:fffad000       $unwind$?_Refill_upper@?$mersenne_twister@I$0CA@$0CHA@$0BIN@$0BP@$0JJAILANP@$0L@$06$0JNCMFGIA@$0P@$0OPMGAAAA@$0BC@@std@@IEAAXXZ 0000000140000000     PlayZone.obj
 0003:fffad000       $unwind$?_Release@_Basic_container_proxy_ptr12@std@@QEAAXXZ 0000000140000000     PlayZone.obj
 0003:fffad000       $unwind$?_Throw_bad_array_new_length@std@@YAXXZ 0000000140000000     PlayZone.obj
 0003:fffad000       $unwind$?_Tidy@?$vector@USDL_Point@@V?$allocator@USDL_Point@@@std@@@std@@AEAAXXZ 0000000140000000     PlayZone.obj
 0003:fffad000       $unwind$?_Tidy_deallocate@?$basic_string@DU?$char_traits@D@std@@V?$allocator@D@2@@std@@AEAAXXZ 0000000140000000     PlayZone.obj
 0003:fffad000       $unwind$?_Tidy_init@?$basic_string@DU?$char_traits@D@std@@V?$allocator@D@2@@std@@AEAAXXZ 0000000140000000     PlayZone.obj
 0003:fffad000       $unwind$?_Xlen@?$basic_string@DU?$char_traits@D@std@@V?$allocator@D@2@@std@@CAXXZ 0000000140000000     PlayZone.obj
 0003:fffad000       $unwind$?__empty_global_delete@@YAXPEAX@Z 0000000140000000     PlayZone.obj
 0003:fffad000       $unwind$?__empty_global_delete@@YAXPEAXW4align_val_t@std@@@Z 0000000140000000     PlayZone.obj
 0003:fffad000       $unwind$?__empty_global_delete@@YAXPEAX_K@Z 0000000140000000     PlayZone.obj
 0003:fffad000       $unwind$?__empty_global_delete@@YAXPEAX_KW4align_val_t@std@@@Z 0000000140000000     PlayZone.obj
 0003:fffad000       $unwind$?allocate@?$allocator@D@std@@QEAAPEAD_K@Z 0000000140000000     PlayZone.obj
 0003:fffad000       $unwind$?allocate@?$allocator@U_Container_proxy@std@@@std@@QEAAPEAU_Container_proxy@2@_K@Z 0000000140000000     PlayZone.obj
 0003:fffad000       $unwind$?assign@?$_Narrow_char_traits@DH@std@@SAXAEADAEBD@Z 0000000140000000     PlayZone.obj
 0003:fffad000       $unwind$?assign@?$basic_string@DU?$char_traits@D@std@@V?$allocator@D@2@@std@@QEAAAEAV12@QEBD_K@Z 0000000140000000     PlayZone.obj
 0003:fffad000       $unwind$?copy@?$_Narrow_char_traits@DH@std@@SAPEADQEADQEBD_K@Z 0000000140000000     PlayZone.obj
 0003:fffad000       $unwind$?deallocate@?$_Default_allocator_traits@V?$allocator@U_Container_proxy@std@@@std@@@std@@SAXAEAV?$allocator@U_Container_proxy@std@@@2@QEAU_Container_proxy@2@_K@Z 0000000140000000     PlayZone.obj
 0003:fffad000       $unwind$?deallocate@?$allocator@D@std@@QEAAXQEAD_K@Z 0000000140000000     PlayZone.obj
 0003:fffad000       $unwind$?deallocate@?$allocator@USDL_Point@@@std@@QEAAXQEAUSDL_Point@@_K@Z 0000000140000000     PlayZone.obj
 0003:fffad000       $unwind$?max@?$mersenne_twister_engine@I$0CA@$0CHA@$0BIN@$0BP@$0JJAILANP@$0L@$0PPPPPPPP@$06$0JNCMFGIA@$0P@$0OPMGAAAA@$0BC@$0GMAHIJGF@@std@@SAIXZ 0000000140000000     PlayZone.obj
 0003:fffad000       $unwind$?max@?$numeric_limits@_J@std@@SA_JXZ 0000000140000000     PlayZone.obj
 0003:fffad000       $unwind$?max_size@?$_Default_allocator_traits@V?$allocator@D@std@@@std@@SA_KAEBV?$allocator@D@2@@Z 0000000140000000     PlayZone.obj
 0003:fffad000       $unwind$?max_size@?$basic_string@DU?$char_traits@D@std@@V?$allocator@D@2@@std@@QEBA_KXZ 0000000140000000     PlayZone.obj
 0003:fffad000       $unwind$?min@?$mersenne_twister_engine@I$0CA@$0CHA@$0BIN@$0BP@$0JJAILANP@$0L@$0PPPPPPPP@$06$0JNCMFGIA@$0P@$0OPMGAAAA@$0BC@$0GMAHIJGF@@std@@SAIXZ 0000000140000000     PlayZone.obj
 0003:fffad000       $unwind$?move@?$_Narrow_char_traits@DH@std@@SAPEADQEADQEBD_K@Z 0000000140000000     PlayZone.obj
 0003:fffad000       $unwind$?seed@?$mersenne_twister@I$0CA@$0CHA@$0BIN@$0BP@$0JJAILANP@$0L@$06$0JNCMFGIA@$0P@$0OPMGAAAA@$0BC@@std@@QEAAXII@Z 0000000140000000     PlayZone.obj
 0003:fffad000       $unwind$?what@exception@std@@UEBAPEBDXZ 0000000140000000     PlayZone.obj
 0003:fffad000       ??$_Eval@V?$mersenne_twister_engine@I$0CA@$0CHA@$0BIN@$0BP@$0JJAILANP@$0L@$0PPPPPPPP@$06$0JNCMFGIA@$0P@$0OPMGAAAA@$0BC@$0GMAHIJGF@@std@@@?$uniform_int@H@std@@AEBAHAEAV?$mersenne_twister_engine@I$0CA@$0CHA@$0BIN@$0BP@$0JJAILANP@$0L@$0PPPPPPPP@$06$0JNCMFGIA@$0P@$0OPMGAAAA@$0BC@$0GMAHIJGF@@1@HH@Z$rtcName$0 0000000140000000     PlayZone.obj
 0003:fffad000       ??$_Reallocate_for@V<lambda_66f57f934f28d61049862f64df852ff0>@@PEBD@?$basic_string@DU?$char_traits@D@std@@V?$allocator@D@2@@std@@AEAAAEAV01@_KV<lambda_66f57f934f28d61049862f64df852ff0>@@PEBD@Z$rtcName$0 0000000140000000     PlayZone.obj
 0003:fffad000       ??1?$basic_string@DU?$char_traits@D@std@@V?$allocator@D@2@@std@@QEAA@XZ$rtcName$0 0000000140000000     PlayZone.obj
 0003:fffad000       ??1?$vector@USDL_Point@@V?$allocator@USDL_Point@@@std@@@std@@QEAA@XZ$rtcName$0 0000000140000000     PlayZone.obj
 0003:fffad000       ?_Calculate_growth@?$basic_string@DU?$char_traits@D@std@@V?$allocator@D@2@@std@@CA_K_K00@Z$rtcName$0 0000000140000000     PlayZone.obj
 0003:fffad000       ?_Orphan_all@_Container_base12@std@@QEAAXXZ$rtcName$0 0000000140000000     PlayZone.obj
 0003:fffad000       ?max_size@?$basic_string@DU?$char_traits@D@std@@V?$allocator@D@2@@std@@QEBA_KXZ$rtcName$0 0000000140000000     PlayZone.obj
 0003:fffad000       $cppxdata$??$_Construct_in_place@U_Container_proxy@std@@PEAU_Container_base12@2@@std@@YAXAEAU_Container_proxy@0@$$QEAPEAU_Container_base12@0@@Z 0000000140000000     Player.obj
 0003:fffad000       $cppxdata$??$_Deallocate@$0BA@$0A@@std@@YAXPEAX_K@Z 0000000140000000     Player.obj
 0003:fffad000       $cppxdata$??$_Deallocate_plain@V?$allocator@U_Container_proxy@std@@@std@@@std@@YAXAEAV?$allocator@U_Container_proxy@std@@@0@QEAU_Container_proxy@0@@Z 0000000140000000     Player.obj
 0003:fffad000       $cppxdata$??$_Delete_plain_internal@V?$allocator@U_Container_proxy@std@@@std@@@std@@YAXAEAV?$allocator@U_Container_proxy@std@@@0@QEAU_Container_proxy@0@@Z 0000000140000000     Player.obj
 0003:fffad000       $cppxdata$??$addressof@U_Container_base12@std@@@std@@YAPEAU_Container_base12@0@AEAU10@@Z 0000000140000000     Player.obj
 0003:fffad000       $cppxdata$??$addressof@U_Container_proxy@std@@@std@@YAPEAU_Container_proxy@0@AEAU10@@Z 0000000140000000     Player.obj
 0003:fffad000       $cppxdata$??$forward@PEAU_Container_base12@std@@@std@@YA$$QEAPEAU_Container_base12@0@AEAPEAU10@@Z 0000000140000000     Player.obj
 0003:fffad000       $cppxdata$??0_Container_proxy@std@@QEAA@PEAU_Container_base12@1@@Z 0000000140000000     Player.obj
 0003:fffad000       $cppxdata$??0bad_alloc@std@@AEAA@QEBD@Z 0000000140000000     Player.obj
 0003:fffad000       $cppxdata$??0bad_array_new_length@std@@QEAA@XZ 0000000140000000     Player.obj
 0003:fffad000       $cppxdata$??0exception@std@@QEAA@AEBV01@@Z 0000000140000000     Player.obj
 0003:fffad000       $cppxdata$??0exception@std@@QEAA@QEBDH@Z 0000000140000000     Player.obj
 0003:fffad000       $cppxdata$??1?$_Container_proxy_ptr12@V?$allocator@U_Container_proxy@std@@@std@@@std@@QEAA@XZ 0000000140000000     Player.obj
 0003:fffad000       $cppxdata$??1exception@std@@UEAA@XZ 0000000140000000     Player.obj
 0003:fffad000       $cppxdata$??2@YAPEAX_KPEAX@Z 0000000140000000     Player.obj
 0003:fffad000       $cppxdata$?_Orphan_all@_Container_base12@std@@QEAAXXZ 0000000140000000     Player.obj
 0003:fffad000       $cppxdata$?_Release@_Basic_container_proxy_ptr12@std@@QEAAXXZ 0000000140000000     Player.obj
 0003:fffad000       $cppxdata$?__empty_global_delete@@YAXPEAX@Z 0000000140000000     Player.obj
 0003:fffad000       $cppxdata$?__empty_global_delete@@YAXPEAXW4align_val_t@std@@@Z 0000000140000000     Player.obj
 0003:fffad000       $cppxdata$?__empty_global_delete@@YAXPEAX_K@Z 0000000140000000     Player.obj
 0003:fffad000       $cppxdata$?__empty_global_delete@@YAXPEAX_KW4align_val_t@std@@@Z 0000000140000000     Player.obj
 0003:fffad000       $ip2state$??$_Construct_in_place@U_Container_proxy@std@@PEAU_Container_base12@2@@std@@YAXAEAU_Container_proxy@0@$$QEAPEAU_Container_base12@0@@Z 0000000140000000     Player.obj
 0003:fffad000       $ip2state$??$_Deallocate@$0BA@$0A@@std@@YAXPEAX_K@Z 0000000140000000     Player.obj
 0003:fffad000       $ip2state$??$_Deallocate_plain@V?$allocator@U_Container_proxy@std@@@std@@@std@@YAXAEAV?$allocator@U_Container_proxy@std@@@0@QEAU_Container_proxy@0@@Z 0000000140000000     Player.obj
 0003:fffad000       $ip2state$??$_Delete_plain_internal@V?$allocator@U_Container_proxy@std@@@std@@@std@@YAXAEAV?$allocator@U_Container_proxy@std@@@0@QEAU_Container_proxy@0@@Z 0000000140000000     Player.obj
 0003:fffad000       $ip2state$??$addressof@U_Container_base12@std@@@std@@YAPEAU_Container_base12@0@AEAU10@@Z 0000000140000000     Player.obj
 0003:fffad000       $ip2state$??$addressof@U_Container_proxy@std@@@std@@YAPEAU_Container_proxy@0@AEAU10@@Z 0000000140000000     Player.obj
 0003:fffad000       $ip2state$??$forward@PEAU_Container_base12@std@@@std@@YA$$QEAPEAU_Container_base12@0@AEAPEAU10@@Z 0000000140000000     Player.obj
 0003:fffad000       $ip2state$??0_Container_proxy@std@@QEAA@PEAU_Container_base12@1@@Z 0000000140000000     Player.obj
 0003:fffad000       $ip2state$??0bad_alloc@std@@AEAA@QEBD@Z 0000000140000000     Player.obj
 0003:fffad000       $ip2state$??0bad_array_new_length@std@@QEAA@XZ 0000000140000000     Player.obj
 0003:fffad000       $ip2state$??0exception@std@@QEAA@AEBV01@@Z 0000000140000000     Player.obj
 0003:fffad000       $ip2state$??0exception@std@@QEAA@QEBDH@Z 0000000140000000     Player.obj
 0003:fffad000       $ip2state$??1?$_Container_proxy_ptr12@V?$allocator@U_Container_proxy@std@@@std@@@std@@QEAA@XZ 0000000140000000     Player.obj
 0003:fffad000       $ip2state$??1exception@std@@UEAA@XZ 0000000140000000     Player.obj
 0003:fffad000       $ip2state$??2@YAPEAX_KPEAX@Z 0000000140000000     Player.obj
 0003:fffad000       $ip2state$?_Orphan_all@_Container_base12@std@@QEAAXXZ 0000000140000000     Player.obj
 0003:fffad000       $ip2state$?_Release@_Basic_container_proxy_ptr12@std@@QEAAXXZ 0000000140000000     Player.obj
 0003:fffad000       $ip2state$?__empty_global_delete@@YAXPEAX@Z 0000000140000000     Player.obj
 0003:fffad000       $ip2state$?__empty_global_delete@@YAXPEAXW4align_val_t@std@@@Z 0000000140000000     Player.obj
 0003:fffad000       $ip2state$?__empty_global_delete@@YAXPEAX_K@Z 0000000140000000     Player.obj
 0003:fffad000       $ip2state$?__empty_global_delete@@YAXPEAX_KW4align_val_t@std@@@Z 0000000140000000     Player.obj
 0005:fff98000       $pdata$??$_Alloc_proxy@V?$allocator@U_Container_proxy@std@@@std@@@_Container_base12@std@@QEAAX$$QEAV?$allocator@U_Container_proxy@std@@@1@@Z 0000000140000000     Player.obj
 0005:fff98000       $pdata$??$_Allocate@$0BA@U_Default_allocate_traits@std@@$0A@@std@@YAPEAX_K@Z 0000000140000000     Player.obj
 0005:fff98000       $pdata$??$_Allocate_manually_vector_aligned@U_Default_allocate_traits@std@@@std@@YAPEAX_K@Z 0000000140000000     Player.obj
 0005:fff98000       $pdata$??$_Construct_in_place@U_Container_proxy@std@@PEAU_Container_base12@2@@std@@YAXAEAU_Container_proxy@0@$$QEAPEAU_Container_base12@0@@Z 0000000140000000     Player.obj
 0005:fff98000       $pdata$??$_Deallocate@$0BA@$0A@@std@@YAXPEAX_K@Z 0000000140000000     Player.obj
 0005:fff98000       $pdata$??$_Deallocate_plain@V?$allocator@U_Container_proxy@std@@@std@@@std@@YAXAEAV?$allocator@U_Container_proxy@std@@@0@QEAU_Container_proxy@0@@Z 0000000140000000     Player.obj
 0005:fff98000       $pdata$??$_Delete_plain_internal@V?$allocator@U_Container_proxy@std@@@std@@@std@@YAXAEAV?$allocator@U_Container_proxy@std@@@0@QEAU_Container_proxy@0@@Z 0000000140000000     Player.obj
 0005:fff98000       $pdata$??$_Get_size_of_n@$0BA@@std@@YA_K_K@Z 0000000140000000     Player.obj
 0005:fff98000       $pdata$??$_Unfancy@U_Container_proxy@std@@@std@@YAPEAU_Container_proxy@0@PEAU10@@Z 0000000140000000     Player.obj
 0005:fff98000       $pdata$??$addressof@U_Container_base12@std@@@std@@YAPEAU_Container_base12@0@AEAU10@@Z 0000000140000000     Player.obj
 0005:fff98000       $pdata$??$addressof@U_Container_proxy@std@@@std@@YAPEAU_Container_proxy@0@AEAU10@@Z 0000000140000000     Player.obj
 0005:fff98000       $pdata$??$forward@PEAU_Container_base12@std@@@std@@YA$$QEAPEAU_Container_base12@0@AEAPEAU10@@Z 0000000140000000     Player.obj
 0005:fff98000       $pdata$??0?$_Container_proxy_ptr12@V?$allocator@U_Container_proxy@std@@@std@@@std@@QEAA@AEAV?$allocator@U_Container_proxy@std@@@1@AEAU_Container_base12@1@@Z 0000000140000000     Player.obj
 0005:fff98000       $pdata$??0_Container_base12@std@@QEAA@XZ 0000000140000000     Player.obj
 0005:fff98000       $pdata$??0_Container_proxy@std@@QEAA@PEAU_Container_base12@1@@Z 0000000140000000     Player.obj
 0005:fff98000       $pdata$??0bad_alloc@std@@AEAA@QEBD@Z 0000000140000000     Player.obj
 0005:fff98000       $pdata$??0bad_alloc@std@@QEAA@AEBV01@@Z 0000000140000000     Player.obj
 0005:fff98000       $pdata$??0bad_array_new_length@std@@QEAA@AEBV01@@Z 0000000140000000     Player.obj
 0005:fff98000       $pdata$??0bad_array_new_length@std@@QEAA@XZ 0000000140000000     Player.obj
 0005:fff98000       $pdata$??0exception@std@@QEAA@AEBV01@@Z 0000000140000000     Player.obj
 0005:fff98000       $pdata$??0exception@std@@QEAA@QEBDH@Z 0000000140000000     Player.obj
 0005:fff98000       $pdata$??1?$_Container_proxy_ptr12@V?$allocator@U_Container_proxy@std@@@std@@@std@@QEAA@XZ 0000000140000000     Player.obj
 0005:fff98000       $pdata$??1bad_alloc@std@@UEAA@XZ 0000000140000000     Player.obj
 0005:fff98000       $pdata$??1bad_array_new_length@std@@UEAA@XZ 0000000140000000     Player.obj
 0005:fff98000       $pdata$??1exception@std@@UEAA@XZ 0000000140000000     Player.obj
 0005:fff98000       $pdata$??2@YAPEAX_KPEAX@Z  0000000140000000     Player.obj
 0005:fff98000       $pdata$??_Gbad_alloc@std@@UEAAPEAXI@Z 0000000140000000     Player.obj
 0005:fff98000       $pdata$??_Gbad_array_new_length@std@@UEAAPEAXI@Z 0000000140000000     Player.obj
 0005:fff98000       $pdata$??_Gexception@std@@UEAAPEAXI@Z 0000000140000000     Player.obj
 0005:fff98000       $pdata$?_Adjust_manually_vector_aligned@std@@YAXAEAPEAXAEA_K@Z 0000000140000000     Player.obj
 0005:fff98000       $pdata$?_Allocate@_Default_allocate_traits@std@@SAPEAX_K@Z 0000000140000000     Player.obj
 0005:fff98000       $pdata$?_Orphan_all@_Container_base12@std@@QEAAXXZ 0000000140000000     Player.obj
 0005:fff98000       $pdata$?_Release@_Basic_container_proxy_ptr12@std@@QEAAXXZ 0000000140000000     Player.obj
 0005:fff98000       $pdata$?_Throw_bad_array_new_length@std@@YAXXZ 0000000140000000     Player.obj
 0005:fff98000       $pdata$?__empty_global_delete@@YAXPEAX@Z 0000000140000000     Player.obj
 0005:fff98000       $pdata$?__empty_global_delete@@YAXPEAXW4align_val_t@std@@@Z 0000000140000000     Player.obj
 0005:fff98000       $pdata$?__empty_global_delete@@YAXPEAX_K@Z 0000000140000000     Player.obj
 0005:fff98000       $pdata$?__empty_global_delete@@YAXPEAX_KW4align_val_t@std@@@Z 0000000140000000     Player.obj
 0005:fff98000       $pdata$?allocate@?$allocator@U_Container_proxy@std@@@std@@QEAAPEAU_Container_proxy@2@_K@Z 0000000140000000     Player.obj
 0005:fff98000       $pdata$?deallocate@?$_Default_allocator_traits@V?$allocator@U_Container_proxy@std@@@std@@@std@@SAXAEAV?$allocator@U_Container_proxy@std@@@2@QEAU_Container_proxy@2@_K@Z 0000000140000000     Player.obj
 0005:fff98000       $pdata$?what@exception@std@@UEBAPEBDXZ 0000000140000000     Player.obj
 0003:fffad000       $unwind$??$_Alloc_proxy@V?$allocator@U_Container_proxy@std@@@std@@@_Container_base12@std@@QEAAX$$QEAV?$allocator@U_Container_proxy@std@@@1@@Z 0000000140000000     Player.obj
 0003:fffad000       $unwind$??$_Allocate@$0BA@U_Default_allocate_traits@std@@$0A@@std@@YAPEAX_K@Z 0000000140000000     Player.obj
 0003:fffad000       $unwind$??$_Allocate_manually_vector_aligned@U_Default_allocate_traits@std@@@std@@YAPEAX_K@Z 0000000140000000     Player.obj
 0003:fffad000       $unwind$??$_Construct_in_place@U_Container_proxy@std@@PEAU_Container_base12@2@@std@@YAXAEAU_Container_proxy@0@$$QEAPEAU_Container_base12@0@@Z 0000000140000000     Player.obj
 0003:fffad000       $unwind$??$_Deallocate@$0BA@$0A@@std@@YAXPEAX_K@Z 0000000140000000     Player.obj
 0003:fffad000       $unwind$??$_Deallocate_plain@V?$allocator@U_Container_proxy@std@@@std@@@std@@YAXAEAV?$allocator@U_Container_proxy@std@@@0@QEAU_Container_proxy@0@@Z 0000000140000000     Player.obj
 0003:fffad000       $unwind$??$_Delete_plain_internal@V?$allocator@U_Container_proxy@std@@@std@@@std@@YAXAEAV?$allocator@U_Container_proxy@std@@@0@QEAU_Container_proxy@0@@Z 0000000140000000     Player.obj
 0003:fffad000       $unwind$??$_Get_size_of_n@$0BA@@std@@YA_K_K@Z 0000000140000000     Player.obj
 0003:fffad000       $unwind$??$_Unfancy@U_Container_proxy@std@@@std@@YAPEAU_Container_proxy@0@PEAU10@@Z 0000000140000000     Player.obj
 0003:fffad000       $unwind$??$addressof@U_Container_base12@std@@@std@@YAPEAU_Container_base12@0@AEAU10@@Z 0000000140000000     Player.obj
 0003:fffad000       $unwind$??$addressof@U_Container_proxy@std@@@std@@YAPEAU_Container_proxy@0@AEAU10@@Z 0000000140000000     Player.obj
 0003:fffad000       $unwind$??$forward@PEAU_Container_base12@std@@@std@@YA$$QEAPEAU_Container_base12@0@AEAPEAU10@@Z 0000000140000000     Player.obj
 0003:fffad000       $unwind$??0?$_Container_proxy_ptr12@V?$allocator@U_Container_proxy@std@@@std@@@std@@QEAA@AEAV?$allocator@U_Container_proxy@std@@@1@AEAU_Container_base12@1@@Z 0000000140000000     Player.obj
 0003:fffad000       $unwind$??0_Container_base12@std@@QEAA@XZ 0000000140000000     Player.obj
 0003:fffad000       $unwind$??0_Container_proxy@std@@QEAA@PEAU_Container_base12@1@@Z 0000000140000000     Player.obj
 0003:fffad000       $unwind$??0bad_alloc@std@@AEAA@QEBD@Z 0000000140000000     Player.obj
 0003:fffad000       $unwind$??0bad_alloc@std@@QEAA@AEBV01@@Z 0000000140000000     Player.obj
 0003:fffad000       $unwind$??0bad_array_new_length@std@@QEAA@AEBV01@@Z 0000000140000000     Player.obj
 0003:fffad000       $unwind$??0bad_array_new_length@std@@QEAA@XZ 0000000140000000     Player.obj
 0003:fffad000       $unwind$??0exception@std@@QEAA@AEBV01@@Z 0000000140000000     Player.obj
 0003:fffad000       $unwind$??0exception@std@@QEAA@QEBDH@Z 0000000140000000     Player.obj
 0003:fffad000       $unwind$??1?$_Container_proxy_ptr12@V?$allocator@U_Container_proxy@std@@@std@@@std@@QEAA@XZ 0000000140000000     Player.obj
 0003:fffad000       $unwind$??1bad_alloc@std@@UEAA@XZ 0000000140000000     Player.obj
 0003:fffad000       $unwind$??1bad_array_new_length@std@@UEAA@XZ 0000000140000000     Player.obj
 0003:fffad000       $unwind$??1exception@std@@UEAA@XZ 0000000140000000     Player.obj
 0003:fffad000       $unwind$??2@YAPEAX_KPEAX@Z 0000000140000000     Player.obj
 0003:fffad000       $unwind$??_Gbad_alloc@std@@UEAAPEAXI@Z 0000000140000000     Player.obj
 0003:fffad000       $unwind$??_Gbad_array_new_length@std@@UEAAPEAXI@Z 0000000140000000     Player.obj
 0003:fffad000       $unwind$??_Gexception@std@@UEAAPEAXI@Z 0000000140000000     Player.obj
 0003:fffad000       $unwind$?_Adjust_manually_vector_aligned@std@@YAXAEAPEAXAEA_K@Z 0000000140000000     Player.obj
 0003:fffad000       $unwind$?_Allocate@_Default_allocate_traits@std@@SAPEAX_K@Z 0000000140000000     Player.obj
 0003:fffad000       $unwind$?_Orphan_all@_Container_base12@std@@QEAAXXZ 0000000140000000     Player.obj
 0003:fffad000       $unwind$?_Release@_Basic_container_proxy_ptr12@std@@QEAAXXZ 0000000140000000     Player.obj
 0003:fffad000       $unwind$?_Throw_bad_array_new_length@std@@YAXXZ 0000000140000000     Player.obj
 0003:fffad000       $unwind$?__empty_global_delete@@YAXPEAX@Z 0000000140000000     Player.obj
 0003:fffad000       $unwind$?__empty_global_delete@@YAXPEAXW4align_val_t@std@@@Z 0000000140000000     Player.obj
 0003:fffad000       $unwind$?__empty_global_delete@@YAXPEAX_K@Z 0000000140000000     Player.obj
 0003:fffad000       $unwind$?__empty_global_delete@@YAXPEAX_KW4align_val_t@std@@@Z 0000000140000000     Player.obj
 0003:fffad000       $unwind$?allocate@?$allocator@U_Container_proxy@std@@@std@@QEAAPEAU_Container_proxy@2@_K@Z 0000000140000000     Player.obj
 0003:fffad000       $unwind$?deallocate@?$_Default_allocator_traits@V?$allocator@U_Container_proxy@std@@@std@@@std@@SAXAEAV?$allocator@U_Container_proxy@std@@@2@QEAU_Container_proxy@2@_K@Z 0000000140000000     Player.obj
 0003:fffad000       $unwind$?what@exception@std@@UEBAPEBDXZ 0000000140000000     Player.obj
 0003:fffad000       ?_Orphan_all@_Container_base12@std@@QEAAXXZ$rtcName$0 0000000140000000     Player.obj
 0003:fffad000       $cppxdata$??$_Deallocate@$0BA@$0A@@std@@YAXPEAX_K@Z 0000000140000000     Snake.obj
 0003:fffad000       $cppxdata$??$_Destroy_range@V?$allocator@USDL_Point@@@std@@@std@@YAXPEAUSDL_Point@@QEAU1@AEAV?$allocator@USDL_Point@@@0@@Z 0000000140000000     Snake.obj
 0003:fffad000       $cppxdata$??$_Min_value@_K@std@@YAAEB_KAEB_K0@Z 0000000140000000     Snake.obj
 0003:fffad000       $cppxdata$??0bad_alloc@std@@AEAA@QEBD@Z 0000000140000000     Snake.obj
 0003:fffad000       $cppxdata$??0bad_array_new_length@std@@QEAA@XZ 0000000140000000     Snake.obj
 0003:fffad000       $cppxdata$??0exception@std@@QEAA@AEBV01@@Z 0000000140000000     Snake.obj
 0003:fffad000       $cppxdata$??0exception@std@@QEAA@QEBDH@Z 0000000140000000     Snake.obj
 0003:fffad000       $cppxdata$??1exception@std@@UEAA@XZ 0000000140000000     Snake.obj
 0003:fffad000       $cppxdata$??2@YAPEAX_KPEAX@Z 0000000140000000     Snake.obj
 0003:fffad000       $cppxdata$?_Get_first@?$_Compressed_pair@V?$allocator@USDL_Point@@@std@@V?$_Vector_val@U?$_Simple_types@USDL_Point@@@std@@@2@$00@std@@QEAAAEAV?$allocator@USDL_Point@@@2@XZ 0000000140000000     Snake.obj
 0003:fffad000       $cppxdata$?_Get_first@?$_Compressed_pair@V?$allocator@USDL_Point@@@std@@V?$_Vector_val@U?$_Simple_types@USDL_Point@@@std@@@2@$00@std@@QEBAAEBV?$allocator@USDL_Point@@@2@XZ 0000000140000000     Snake.obj
 0003:fffad000       $cppxdata$?_Getal@?$vector@USDL_Point@@V?$allocator@USDL_Point@@@std@@@std@@AEAAAEAV?$allocator@USDL_Point@@@2@XZ 0000000140000000     Snake.obj
 0003:fffad000       $cppxdata$?_Getal@?$vector@USDL_Point@@V?$allocator@USDL_Point@@@std@@@std@@AEBAAEBV?$allocator@USDL_Point@@@2@XZ 0000000140000000     Snake.obj
 0003:fffad000       $cppxdata$?_Orphan_all@_Container_base12@std@@QEAAXXZ 0000000140000000     Snake.obj
 0003:fffad000       $cppxdata$?__empty_global_delete@@YAXPEAX@Z 0000000140000000     Snake.obj
 0003:fffad000       $cppxdata$?__empty_global_delete@@YAXPEAXW4align_val_t@std@@@Z 0000000140000000     Snake.obj
 0003:fffad000       $cppxdata$?__empty_global_delete@@YAXPEAX_K@Z 0000000140000000     Snake.obj
 0003:fffad000       $cppxdata$?__empty_global_delete@@YAXPEAX_KW4align_val_t@std@@@Z 0000000140000000     Snake.obj
 0003:fffad000       $cppxdata$?max@?$numeric_limits@_J@std@@SA_JXZ 0000000140000000     Snake.obj
 0003:fffad000       $ip2state$??$_Deallocate@$0BA@$0A@@std@@YAXPEAX_K@Z 0000000140000000     Snake.obj
 0003:fffad000       $ip2state$??$_Destroy_range@V?$allocator@USDL_Point@@@std@@@std@@YAXPEAUSDL_Point@@QEAU1@AEAV?$allocator@USDL_Point@@@0@@Z 0000000140000000     Snake.obj
 0003:fffad000       $ip2state$??$_Min_value@_K@std@@YAAEB_KAEB_K0@Z 0000000140000000     Snake.obj
 0003:fffad000       $ip2state$??0bad_alloc@std@@AEAA@QEBD@Z 0000000140000000     Snake.obj
 0003:fffad000       $ip2state$??0bad_array_new_length@std@@QEAA@XZ 0000000140000000     Snake.obj
 0003:fffad000       $ip2state$??0exception@std@@QEAA@AEBV01@@Z 0000000140000000     Snake.obj
 0003:fffad000       $ip2state$??0exception@std@@QEAA@QEBDH@Z 0000000140000000     Snake.obj
 0003:fffad000       $ip2state$??1exception@std@@UEAA@XZ 0000000140000000     Snake.obj
 0003:fffad000       $ip2state$??2@YAPEAX_KPEAX@Z 0000000140000000     Snake.obj
 0003:fffad000       $ip2state$?_Get_first@?$_Compressed_pair@V?$allocator@USDL_Point@@@std@@V?$_Vector_val@U?$_Simple_types@USDL_Point@@@std@@@2@$00@std@@QEAAAEAV?$allocator@USDL_Point@@@2@XZ 0000000140000000     Snake.obj
 0003:fffad000       $ip2state$?_Get_first@?$_Compressed_pair@V?$allocator@USDL_Point@@@std@@V?$_Vector_val@U?$_Simple_types@USDL_Point@@@std@@@2@$00@std@@QEBAAEBV?$allocator@USDL_Point@@@2@XZ 0000000140000000     Snake.obj
 0003:fffad000       $ip2state$?_Getal@?$vector@USDL_Point@@V?$allocator@USDL_Point@@@std@@@std@@AEAAAEAV?$allocator@USDL_Point@@@2@XZ 0000000140000000     Snake.obj
 0003:fffad000       $ip2state$?_Getal@?$vector@USDL_Point@@V?$allocator@USDL_Point@@@std@@@std@@AEBAAEBV?$allocator@USDL_Point@@@2@XZ 0000000140000000     Snake.obj
 0003:fffad000       $ip2state$?_Orphan_all@_Container_base12@std@@QEAAXXZ 0000000140000000     Snake.obj
 0003:fffad000       $ip2state$?__empty_global_delete@@YAXPEAX@Z 0000000140000000     Snake.obj
 0003:fffad000       $ip2state$?__empty_global_delete@@YAXPEAXW4align_val_t@std@@@Z 0000000140000000     Snake.obj
 0003:fffad000       $ip2state$?__empty_global_delete@@YAXPEAX_K@Z 0000000140000000     Snake.obj
 0003:fffad000       $ip2state$?__empty_global_delete@@YAXPEAX_KW4align_val_t@std@@@Z 0000000140000000     Snake.obj
 0003:fffad000       $ip2state$?max@?$numeric_limits@_J@std@@SA_JXZ 0000000140000000     Snake.obj
 0005:fff98000       $pdata$??$_Allocate@$0BA@U_Default_allocate_traits@std@@$0A@@std@@YAPEAX_K@Z 0000000140000000     Snake.obj
 0005:fff98000       $pdata$??$_Allocate_manually_vector_aligned@U_Default_allocate_traits@std@@@std@@YAPEAX_K@Z 0000000140000000     Snake.obj
 0005:fff98000       $pdata$??$_Copy_memmove@PEAUSDL_Point@@PEAU1@@std@@YAPEAUSDL_Point@@PEAU1@00@Z 0000000140000000     Snake.obj
 0005:fff98000       $pdata$??$_Deallocate@$0BA@$0A@@std@@YAXPEAX_K@Z 0000000140000000     Snake.obj
 0005:fff98000       $pdata$??$_Destroy_range@V?$allocator@USDL_Point@@@std@@@std@@YAXPEAUSDL_Point@@QEAU1@AEAV?$allocator@USDL_Point@@@0@@Z 0000000140000000     Snake.obj
 0005:fff98000       $pdata$??$_Get_size_of_n@$07@std@@YA_K_K@Z 0000000140000000     Snake.obj
 0005:fff98000       $pdata$??$_Get_unwrapped@USDL_Point@@@std@@YAPEAUSDL_Point@@QEAU1@@Z 0000000140000000     Snake.obj
 0005:fff98000       $pdata$??$_Min_value@_K@std@@YAAEB_KAEB_K0@Z 0000000140000000     Snake.obj
 0005:fff98000       $pdata$??$_Unfancy@USDL_Point@@@std@@YAPEAUSDL_Point@@PEAU1@@Z 0000000140000000     Snake.obj
 0005:fff98000       $pdata$??0bad_alloc@std@@AEAA@QEBD@Z 0000000140000000     Snake.obj
 0005:fff98000       $pdata$??0bad_alloc@std@@QEAA@AEBV01@@Z 0000000140000000     Snake.obj
 0005:fff98000       $pdata$??0bad_array_new_length@std@@QEAA@AEBV01@@Z 0000000140000000     Snake.obj
 0005:fff98000       $pdata$??0bad_array_new_length@std@@QEAA@XZ 0000000140000000     Snake.obj
 0005:fff98000       $pdata$??0exception@std@@QEAA@AEBV01@@Z 0000000140000000     Snake.obj
 0005:fff98000       $pdata$??0exception@std@@QEAA@QEBDH@Z 0000000140000000     Snake.obj
 0005:fff98000       $pdata$??1bad_alloc@std@@UEAA@XZ 0000000140000000     Snake.obj
 0005:fff98000       $pdata$??1bad_array_new_length@std@@UEAA@XZ 0000000140000000     Snake.obj
 0005:fff98000       $pdata$??1exception@std@@UEAA@XZ 0000000140000000     Snake.obj
 0005:fff98000       $pdata$??2@YAPEAX_KPEAX@Z  0000000140000000     Snake.obj
 0005:fff98000       $pdata$??_Gbad_alloc@std@@UEAAPEAXI@Z 0000000140000000     Snake.obj
 0005:fff98000       $pdata$??_Gbad_array_new_length@std@@UEAAPEAXI@Z 0000000140000000     Snake.obj
 0005:fff98000       $pdata$??_Gexception@std@@UEAAPEAXI@Z 0000000140000000     Snake.obj
 0005:fff98000       $pdata$?_Adjust_manually_vector_aligned@std@@YAXAEAPEAXAEA_K@Z 0000000140000000     Snake.obj
 0005:fff98000       $pdata$?_Allocate@_Default_allocate_traits@std@@SAPEAX_K@Z 0000000140000000     Snake.obj
 0005:fff98000       $pdata$?_Destroy@?$vector@USDL_Point@@V?$allocator@USDL_Point@@@std@@@std@@AEAAXPEAUSDL_Point@@0@Z 0000000140000000     Snake.obj
 0005:fff98000       $pdata$?_Get_first@?$_Compressed_pair@V?$allocator@USDL_Point@@@std@@V?$_Vector_val@U?$_Simple_types@USDL_Point@@@std@@@2@$00@std@@QEAAAEAV?$allocator@USDL_Point@@@2@XZ 0000000140000000     Snake.obj
 0005:fff98000       $pdata$?_Get_first@?$_Compressed_pair@V?$allocator@USDL_Point@@@std@@V?$_Vector_val@U?$_Simple_types@USDL_Point@@@std@@@2@$00@std@@QEBAAEBV?$allocator@USDL_Point@@@2@XZ 0000000140000000     Snake.obj
 0005:fff98000       $pdata$?_Getal@?$vector@USDL_Point@@V?$allocator@USDL_Point@@@std@@@std@@AEAAAEAV?$allocator@USDL_Point@@@2@XZ 0000000140000000     Snake.obj
 0005:fff98000       $pdata$?_Getal@?$vector@USDL_Point@@V?$allocator@USDL_Point@@@std@@@std@@AEBAAEBV?$allocator@USDL_Point@@@2@XZ 0000000140000000     Snake.obj
 0005:fff98000       $pdata$?_Orphan_all@_Container_base12@std@@QEAAXXZ 0000000140000000     Snake.obj
 0005:fff98000       $pdata$?_Throw_bad_array_new_length@std@@YAXXZ 0000000140000000     Snake.obj
 0005:fff98000       $pdata$?__empty_global_delete@@YAXPEAX@Z 0000000140000000     Snake.obj
 0005:fff98000       $pdata$?__empty_global_delete@@YAXPEAXW4align_val_t@std@@@Z 0000000140000000     Snake.obj
 0005:fff98000       $pdata$?__empty_global_delete@@YAXPEAX_K@Z 0000000140000000     Snake.obj
 0005:fff98000       $pdata$?__empty_global_delete@@YAXPEAX_KW4align_val_t@std@@@Z 0000000140000000     Snake.obj
 0005:fff98000       $pdata$?allocate@?$allocator@USDL_Point@@@std@@QEAAPEAUSDL_Point@@_K@Z 0000000140000000     Snake.obj
 0005:fff98000       $pdata$?deallocate@?$allocator@USDL_Point@@@std@@QEAAXQEAUSDL_Point@@_K@Z 0000000140000000     Snake.obj
 0005:fff98000       $pdata$?max@?$numeric_limits@_J@std@@SA_JXZ 0000000140000000     Snake.obj
 0005:fff98000       $pdata$?what@exception@std@@UEBAPEBDXZ 0000000140000000     Snake.obj
 0003:fffad000       $unwind$??$_Allocate@$0BA@U_Default_allocate_traits@std@@$0A@@std@@YAPEAX_K@Z 0000000140000000     Snake.obj
 0003:fffad000       $unwind$??$_Allocate_manually_vector_aligned@U_Default_allocate_traits@std@@@std@@YAPEAX_K@Z 0000000140000000     Snake.obj
 0003:fffad000       $unwind$??$_Copy_memmove@PEAUSDL_Point@@PEAU1@@std@@YAPEAUSDL_Point@@PEAU1@00@Z 0000000140000000     Snake.obj
 0003:fffad000       $unwind$??$_Deallocate@$0BA@$0A@@std@@YAXPEAX_K@Z 0000000140000000     Snake.obj
 0003:fffad000       $unwind$??$_Destroy_range@V?$allocator@USDL_Point@@@std@@@std@@YAXPEAUSDL_Point@@QEAU1@AEAV?$allocator@USDL_Point@@@0@@Z 0000000140000000     Snake.obj
 0003:fffad000       $unwind$??$_Get_size_of_n@$07@std@@YA_K_K@Z 0000000140000000     Snake.obj
 0003:fffad000       $unwind$??$_Get_unwrapped@USDL_Point@@@std@@YAPEAUSDL_Point@@QEAU1@@Z 0000000140000000     Snake.obj
 0003:fffad000       $unwind$??$_Min_value@_K@std@@YAAEB_KAEB_K0@Z 0000000140000000     Snake.obj
 0003:fffad000       $unwind$??$_Unfancy@USDL_Point@@@std@@YAPEAUSDL_Point@@PEAU1@@Z 0000000140000000     Snake.obj
 0003:fffad000       $unwind$??0bad_alloc@std@@AEAA@QEBD@Z 0000000140000000     Snake.obj
 0003:fffad000       $unwind$??0bad_alloc@std@@QEAA@AEBV01@@Z 0000000140000000     Snake.obj
 0003:fffad000       $unwind$??0bad_array_new_length@std@@QEAA@AEBV01@@Z 0000000140000000     Snake.obj
 0003:fffad000       $unwind$??0bad_array_new_length@std@@QEAA@XZ 0000000140000000     Snake.obj
 0003:fffad000       $unwind$??0exception@std@@QEAA@AEBV01@@Z 0000000140000000     Snake.obj
 0003:fffad000       $unwind$??0exception@std@@QEAA@QEBDH@Z 0000000140000000     Snake.obj
 0003:fffad000       $unwind$??1bad_alloc@std@@UEAA@XZ 0000000140000000     Snake.obj
 0003:fffad000       $unwind$??1bad_array_new_length@std@@UEAA@XZ 0000000140000000     Snake.obj
 0003:fffad000       $unwind$??1exception@std@@UEAA@XZ 0000000140000000     Snake.obj
 0003:fffad000       $unwind$??2@YAPEAX_KPEAX@Z 0000000140000000     Snake.obj
 0003:fffad000       $unwind$??_Gbad_alloc@std@@UEAAPEAXI@Z 0000000140000000     Snake.obj
 0003:fffad000       $unwind$??_Gbad_array_new_length@std@@UEAAPEAXI@Z 0000000140000000     Snake.obj
 0003:fffad000       $unwind$??_Gexception@std@@UEAAPEAXI@Z 0000000140000000     Snake.obj
 0003:fffad000       $unwind$?_Adjust_manually_vector_aligned@std@@YAXAEAPEAXAEA_K@Z 0000000140000000     Snake.obj
 0003:fffad000       $unwind$?_Allocate@_Default_allocate_traits@std@@SAPEAX_K@Z 0000000140000000     Snake.obj
 0003:fffad000       $unwind$?_Destroy@?$vector@USDL_Point@@V?$allocator@USDL_Point@@@std@@@std@@AEAAXPEAUSDL_Point@@0@Z 0000000140000000     Snake.obj
 0003:fffad000       $unwind$?_Get_first@?$_Compressed_pair@V?$allocator@USDL_Point@@@std@@V?$_Vector_val@U?$_Simple_types@USDL_Point@@@std@@@2@$00@std@@QEAAAEAV?$allocator@USDL_Point@@@2@XZ 0000000140000000     Snake.obj
 0003:fffad000       $unwind$?_Get_first@?$_Compressed_pair@V?$allocator@USDL_Point@@@std@@V?$_Vector_val@U?$_Simple_types@USDL_Point@@@std@@@2@$00@std@@QEBAAEBV?$allocator@USDL_Point@@@2@XZ 0000000140000000     Snake.obj
 0003:fffad000       $unwind$?_Getal@?$vector@USDL_Point@@V?$allocator@USDL_Point@@@std@@@std@@AEAAAEAV?$allocator@USDL_Point@@@2@XZ 0000000140000000     Snake.obj
 0003:fffad000       $unwind$?_Getal@?$vector@USDL_Point@@V?$allocator@USDL_Point@@@std@@@std@@AEBAAEBV?$allocator@USDL_Point@@@2@XZ 0000000140000000     Snake.obj
 0003:fffad000       $unwind$?_Orphan_all@_Container_base12@std@@QEAAXXZ 0000000140000000     Snake.obj
 0003:fffad000       $unwind$?_Throw_bad_array_new_length@std@@YAXXZ 0000000140000000     Snake.obj
 0003:fffad000       $unwind$?__empty_global_delete@@YAXPEAX@Z 0000000140000000     Snake.obj
 0003:fffad000       $unwind$?__empty_global_delete@@YAXPEAXW4align_val_t@std@@@Z 0000000140000000     Snake.obj
 0003:fffad000       $unwind$?__empty_global_delete@@YAXPEAX_K@Z 0000000140000000     Snake.obj
 0003:fffad000       $unwind$?__empty_global_delete@@YAXPEAX_KW4align_val_t@std@@@Z 0000000140000000     Snake.obj
 0003:fffad000       $unwind$?allocate@?$allocator@USDL_Point@@@std@@QEAAPEAUSDL_Point@@_K@Z 0000000140000000     Snake.obj
 0003:fffad000       $unwind$?deallocate@?$allocator@USDL_Point@@@std@@QEAAXQEAUSDL_Point@@_K@Z 0000000140000000     Snake.obj
 0003:fffad000       $unwind$?max@?$numeric_limits@_J@std@@SA_JXZ 0000000140000000     Snake.obj
 0003:fffad000       $unwind$?what@exception@std@@UEBAPEBDXZ 0000000140000000     Snake.obj
 0003:fffad000       ?_Orphan_all@_Container_base12@std@@QEAAXXZ$rtcName$0 0000000140000000     Snake.obj
 0003:fffad000       $cppxdata$?__empty_global_delete@@YAXPEAX@Z 0000000140000000     main.obj
 0003:fffad000       $cppxdata$?__empty_global_delete@@YAXPEAXW4align_val_t@std@@@Z 0000000140000000     main.obj
 0003:fffad000       $cppxdata$?__empty_global_delete@@YAXPEAX_K@Z 0000000140000000     main.obj
 0003:fffad000       $cppxdata$?__empty_global_delete@@YAXPEAX_KW4align_val_t@std@@@Z 0000000140000000     main.obj
 0003:fffad000       $ip2state$?__empty_global_delete@@YAXPEAX@Z 0000000140000000     main.obj
 0003:fffad000       $ip2state$?__empty_global_delete@@YAXPEAXW4align_val_t@std@@@Z 0000000140000000     main.obj
 0003:fffad000       $ip2state$?__empty_global_delete@@YAXPEAX_K@Z 0000000140000000     main.obj
 0003:fffad000       $ip2state$?__empty_global_delete@@YAXPEAX_KW4align_val_t@std@@@Z 0000000140000000     main.obj
 0005:fff98000       $pdata$?__empty_global_delete@@YAXPEAX@Z 0000000140000000     main.obj
 0005:fff98000       $pdata$?__empty_global_delete@@YAXPEAXW4align_val_t@std@@@Z 0000000140000000     main.obj
 0005:fff98000       $pdata$?__empty_global_delete@@YAXPEAX_K@Z 0000000140000000     main.obj
 0005:fff98000       $pdata$?__empty_global_delete@@YAXPEAX_KW4align_val_t@std@@@Z 0000000140000000     main.obj
 0003:fffad000       $unwind$?__empty_global_delete@@YAXPEAX@Z 0000000140000000     main.obj
 0003:fffad000       $unwind$?__empty_global_delete@@YAXPEAXW4align_val_t@std@@@Z 0000000140000000     main.obj
 0003:fffad000       $unwind$?__empty_global_delete@@YAXPEAX_K@Z 0000000140000000     main.obj
 0003:fffad000       $unwind$?__empty_global_delete@@YAXPEAX_KW4align_val_t@std@@@Z 0000000140000000     main.obj
 0003:fffad000       $cppxdata$??$?0D@?$allocator@U_Container_proxy@std@@@std@@QEAA@AEBV?$allocator@D@1@@Z 0000000140000000     CreditCard.obj
 0003:fffad000       $cppxdata$??$?6U?$char_traits@D@std@@@std@@YAAEAV?$basic_ostream@DU?$char_traits@D@std@@@0@AEAV10@PEBD@Z 0000000140000000     CreditCard.obj
 0003:fffad000       $cppxdata$??$_Construct_in_place@PEADAEBQEAD@std@@YAXAEAPEADAEBQEAD@Z 0000000140000000     CreditCard.obj
 0003:fffad000       $cppxdata$??$_Construct_in_place@U_Container_proxy@std@@PEAU_Container_base12@2@@std@@YAXAEAU_Container_proxy@0@$$QEAPEAU_Container_base12@0@@Z 0000000140000000     CreditCard.obj
 0003:fffad000       $cppxdata$??$_Convert_size@_K@std@@YA_K_K@Z 0000000140000000     CreditCard.obj
 0003:fffad000       $cppxdata$??$_Deallocate@$0BA@$0A@@std@@YAXPEAX_K@Z 0000000140000000     CreditCard.obj
 0003:fffad000       $cppxdata$??$_Deallocate_plain@V?$allocator@U_Container_proxy@std@@@std@@@std@@YAXAEAV?$allocator@U_Container_proxy@std@@@0@QEAU_Container_proxy@0@@Z 0000000140000000     CreditCard.obj
 0003:fffad000       $cppxdata$??$_Delete_plain_internal@V?$allocator@U_Container_proxy@std@@@std@@@std@@YAXAEAV?$allocator@U_Container_proxy@std@@@0@QEAU_Container_proxy@0@@Z 0000000140000000     CreditCard.obj
 0003:fffad000       $cppxdata$??$_Destroy_in_place@PEAD@std@@YAXAEAPEAD@Z 0000000140000000     CreditCard.obj
 0003:fffad000       $cppxdata$??$_Max_value@_K@std@@YAAEB_KAEB_K0@Z 0000000140000000     CreditCard.obj
 0003:fffad000       $cppxdata$??$_Min_value@_K@std@@YAAEB_KAEB_K0@Z 0000000140000000     CreditCard.obj
 0003:fffad000       $cppxdata$??$addressof@PEAD@std@@YAPEAPEADAEAPEAD@Z 0000000140000000     CreditCard.obj
 0003:fffad000       $cppxdata$??$addressof@U_Container_base12@std@@@std@@YAPEAU_Container_base12@0@AEAU10@@Z 0000000140000000     CreditCard.obj
 0003:fffad000       $cppxdata$??$addressof@U_Container_proxy@std@@@std@@YAPEAU_Container_proxy@0@AEAU10@@Z 0000000140000000     CreditCard.obj
 0003:fffad000       $cppxdata$??$forward@AEBQEAD@std@@YAAEBQEADAEBQEAD@Z 0000000140000000     CreditCard.obj
 0003:fffad000       $cppxdata$??$forward@PEAU_Container_base12@std@@@std@@YA$$QEAPEAU_Container_base12@0@AEAPEAU10@@Z 0000000140000000     CreditCard.obj
 0003:fffad000       $cppxdata$??$forward@V?$allocator@D@std@@@std@@YA$$QEAV?$allocator@D@0@AEAV10@@Z 0000000140000000     CreditCard.obj
 0003:fffad000       $cppxdata$??0?$allocator@D@std@@QEAA@XZ 0000000140000000     CreditCard.obj
 0003:fffad000       $cppxdata$??0?$basic_string@DU?$char_traits@D@std@@V?$allocator@D@2@@std@@QEAA@AEBV01@@Z 0000000140000000     CreditCard.obj
 0003:fffad000       $cppxdata$??0?$basic_string@DU?$char_traits@D@std@@V?$allocator@D@2@@std@@QEAA@XZ 0000000140000000     CreditCard.obj
 0003:fffad000       $cppxdata$??0_Container_proxy@std@@QEAA@PEAU_Container_base12@1@@Z 0000000140000000     CreditCard.obj
 0003:fffad000       $cppxdata$??0bad_alloc@std@@AEAA@QEBD@Z 0000000140000000     CreditCard.obj
 0003:fffad000       $cppxdata$??0bad_array_new_length@std@@QEAA@XZ 0000000140000000     CreditCard.obj
 0003:fffad000       $cppxdata$??0exception@std@@QEAA@AEBV01@@Z 0000000140000000     CreditCard.obj
 0003:fffad000       $cppxdata$??0exception@std@@QEAA@QEBDH@Z 0000000140000000     CreditCard.obj
 0003:fffad000       $cppxdata$??0sentry@?$basic_ostream@DU?$char_traits@D@std@@@std@@QEAA@AEAV12@@Z 0000000140000000     CreditCard.obj
 0003:fffad000       $cppxdata$??1?$_Container_proxy_ptr12@V?$allocator@U_Container_proxy@std@@@std@@@std@@QEAA@XZ 0000000140000000     CreditCard.obj
 0003:fffad000       $cppxdata$??1?$basic_string@DU?$char_traits@D@std@@V?$allocator@D@2@@std@@QEAA@XZ 0000000140000000     CreditCard.obj
 0003:fffad000       $cppxdata$??1_Bxty@?$_String_val@U?$_Simple_types@D@std@@@std@@QEAA@XZ 0000000140000000     CreditCard.obj
 0003:fffad000       $cppxdata$??1_Sentry_base@?$basic_ostream@DU?$char_traits@D@std@@@std@@QEAA@XZ 0000000140000000     CreditCard.obj
 0003:fffad000       $cppxdata$??1exception@std@@UEAA@XZ 0000000140000000     CreditCard.obj
 0003:fffad000       $cppxdata$??1sentry@?$basic_ostream@DU?$char_traits@D@std@@@std@@QEAA@XZ 0000000140000000     CreditCard.obj
 0003:fffad000       $cppxdata$??2@YAPEAX_KPEAX@Z 0000000140000000     CreditCard.obj
 0003:fffad000       $cppxdata$?_Calculate_growth@?$basic_string@DU?$char_traits@D@std@@V?$allocator@D@2@@std@@AEBA_K_K@Z 0000000140000000     CreditCard.obj
 0003:fffad000       $cppxdata$?_Calculate_growth@?$basic_string@DU?$char_traits@D@std@@V?$allocator@D@2@@std@@CA_K_K00@Z 0000000140000000     CreditCard.obj
 0003:fffad000       $cppxdata$?_Get_first@?$_Compressed_pair@V?$allocator@D@std@@V?$_String_val@U?$_Simple_types@D@std@@@2@$00@std@@QEAAAEAV?$allocator@D@2@XZ 0000000140000000     CreditCard.obj
 0003:fffad000       $cppxdata$?_Get_first@?$_Compressed_pair@V?$allocator@D@std@@V?$_String_val@U?$_Simple_types@D@std@@@2@$00@std@@QEBAAEBV?$allocator@D@2@XZ 0000000140000000     CreditCard.obj
 0003:fffad000       $cppxdata$?_Getal@?$basic_string@DU?$char_traits@D@std@@V?$allocator@D@2@@std@@AEAAAEAV?$allocator@D@2@XZ 0000000140000000     CreditCard.obj
 0003:fffad000       $cppxdata$?_Getal@?$basic_string@DU?$char_traits@D@std@@V?$allocator@D@2@@std@@AEBAAEBV?$allocator@D@2@XZ 0000000140000000     CreditCard.obj
 0003:fffad000       $cppxdata$?_Orphan_all@_Container_base12@std@@QEAAXXZ 0000000140000000     CreditCard.obj
 0003:fffad000       $cppxdata$?_Release@_Basic_container_proxy_ptr12@std@@QEAAXXZ 0000000140000000     CreditCard.obj
 0003:fffad000       $cppxdata$?_Tidy_deallocate@?$basic_string@DU?$char_traits@D@std@@V?$allocator@D@2@@std@@AEAAXXZ 0000000140000000     CreditCard.obj
 0003:fffad000       $cppxdata$?_Tidy_init@?$basic_string@DU?$char_traits@D@std@@V?$allocator@D@2@@std@@AEAAXXZ 0000000140000000     CreditCard.obj
 0003:fffad000       $cppxdata$?__empty_global_delete@@YAXPEAX@Z 0000000140000000     CreditCard.obj
 0003:fffad000       $cppxdata$?__empty_global_delete@@YAXPEAXW4align_val_t@std@@@Z 0000000140000000     CreditCard.obj
 0003:fffad000       $cppxdata$?__empty_global_delete@@YAXPEAX_K@Z 0000000140000000     CreditCard.obj
 0003:fffad000       $cppxdata$?__empty_global_delete@@YAXPEAX_KW4align_val_t@std@@@Z 0000000140000000     CreditCard.obj
 0003:fffad000       $cppxdata$?assign@?$_Narrow_char_traits@DH@std@@SAXAEADAEBD@Z 0000000140000000     CreditCard.obj
 0003:fffad000       $cppxdata$?copy@?$_Narrow_char_traits@DH@std@@SAPEADQEADQEBD_K@Z 0000000140000000     CreditCard.obj
 0003:fffad000       $cppxdata$?eof@?$_Narrow_char_traits@DH@std@@SAHXZ 0000000140000000     CreditCard.obj
 0003:fffad000       $cppxdata$?eq_int_type@?$_Narrow_char_traits@DH@std@@SA_NAEBH0@Z 0000000140000000     CreditCard.obj
 0003:fffad000       $cppxdata$?length@?$_Narrow_char_traits@DH@std@@SA_KQEBD@Z 0000000140000000     CreditCard.obj
 0003:fffad000       $cppxdata$?max@?$numeric_limits@_J@std@@SA_JXZ 0000000140000000     CreditCard.obj
 0003:fffad000       $cppxdata$?max_size@?$_Default_allocator_traits@V?$allocator@D@std@@@std@@SA_KAEBV?$allocator@D@2@@Z 0000000140000000     CreditCard.obj
 0003:fffad000       $cppxdata$?max_size@?$basic_string@DU?$char_traits@D@std@@V?$allocator@D@2@@std@@QEBA_KXZ 0000000140000000     CreditCard.obj
 0003:fffad000       $cppxdata$?move@?$_Narrow_char_traits@DH@std@@SAPEADQEADQEBD_K@Z 0000000140000000     CreditCard.obj
 0003:fffad000       $cppxdata$?size@?$basic_string@DU?$char_traits@D@std@@V?$allocator@D@2@@std@@QEBA_KXZ 0000000140000000     CreditCard.obj
 0003:fffad000       $handlerMap$??$?6U?$char_traits@D@std@@@std@@YAAEAV?$basic_ostream@DU?$char_traits@D@std@@@0@AEAV10@PEBD@Z 0000000140000000     CreditCard.obj
 0003:fffad000       $ip2state$??$?0D@?$allocator@U_Container_proxy@std@@@std@@QEAA@AEBV?$allocator@D@1@@Z 0000000140000000     CreditCard.obj
 0003:fffad000       $ip2state$??$?6U?$char_traits@D@std@@@std@@YAAEAV?$basic_ostream@DU?$char_traits@D@std@@@0@AEAV10@PEBD@Z 0000000140000000     CreditCard.obj
 0003:fffad000       $ip2state$??$_Construct_in_place@PEADAEBQEAD@std@@YAXAEAPEADAEBQEAD@Z 0000000140000000     CreditCard.obj
 0003:fffad000       $ip2state$??$_Construct_in_place@U_Container_proxy@std@@PEAU_Container_base12@2@@std@@YAXAEAU_Container_proxy@0@$$QEAPEAU_Container_base12@0@@Z 0000000140000000     CreditCard.obj
 0003:fffad000       $ip2state$??$_Convert_size@_K@std@@YA_K_K@Z 0000000140000000     CreditCard.obj
 0003:fffad000       $ip2state$??$_Deallocate@$0BA@$0A@@std@@YAXPEAX_K@Z 0000000140000000     CreditCard.obj
 0003:fffad000       $ip2state$??$_Deallocate_plain@V?$allocator@U_Container_proxy@std@@@std@@@std@@YAXAEAV?$allocator@U_Container_proxy@std@@@0@QEAU_Container_proxy@0@@Z 0000000140000000     CreditCard.obj
 0003:fffad000       $ip2state$??$_Delete_plain_internal@V?$allocator@U_Container_proxy@std@@@std@@@std@@YAXAEAV?$allocator@U_Container_proxy@std@@@0@QEAU_Container_proxy@0@@Z 0000000140000000     CreditCard.obj
 0003:fffad000       $ip2state$??$_Destroy_in_place@PEAD@std@@YAXAEAPEAD@Z 0000000140000000     CreditCard.obj
 0003:fffad000       $ip2state$??$_Max_value@_K@std@@YAAEB_KAEB_K0@Z 0000000140000000     CreditCard.obj
 0003:fffad000       $ip2state$??$_Min_value@_K@std@@YAAEB_KAEB_K0@Z 0000000140000000     CreditCard.obj
 0003:fffad000       $ip2state$??$addressof@PEAD@std@@YAPEAPEADAEAPEAD@Z 0000000140000000     CreditCard.obj
 0003:fffad000       $ip2state$??$addressof@U_Container_base12@std@@@std@@YAPEAU_Container_base12@0@AEAU10@@Z 0000000140000000     CreditCard.obj
 0003:fffad000       $ip2state$??$addressof@U_Container_proxy@std@@@std@@YAPEAU_Container_proxy@0@AEAU10@@Z 0000000140000000     CreditCard.obj
 0003:fffad000       $ip2state$??$forward@AEBQEAD@std@@YAAEBQEADAEBQEAD@Z 0000000140000000     CreditCard.obj
 0003:fffad000       $ip2state$??$forward@PEAU_Container_base12@std@@@std@@YA$$QEAPEAU_Container_base12@0@AEAPEAU10@@Z 0000000140000000     CreditCard.obj
 0003:fffad000       $ip2state$??$forward@V?$allocator@D@std@@@std@@YA$$QEAV?$allocator@D@0@AEAV10@@Z 0000000140000000     CreditCard.obj
 0003:fffad000       $ip2state$??0?$allocator@D@std@@QEAA@XZ 0000000140000000     CreditCard.obj
 0003:fffad000       $ip2state$??0?$basic_string@DU?$char_traits@D@std@@V?$allocator@D@2@@std@@QEAA@AEBV01@@Z 0000000140000000     CreditCard.obj
 0003:fffad000       $ip2state$??0?$basic_string@DU?$char_traits@D@std@@V?$allocator@D@2@@std@@QEAA@XZ 0000000140000000     CreditCard.obj
 0003:fffad000       $ip2state$??0_Container_proxy@std@@QEAA@PEAU_Container_base12@1@@Z 0000000140000000     CreditCard.obj
 0003:fffad000       $ip2state$??0bad_alloc@std@@AEAA@QEBD@Z 0000000140000000     CreditCard.obj
 0003:fffad000       $ip2state$??0bad_array_new_length@std@@QEAA@XZ 0000000140000000     CreditCard.obj
 0003:fffad000       $ip2state$??0exception@std@@QEAA@AEBV01@@Z 0000000140000000     CreditCard.obj
 0003:fffad000       $ip2state$??0exception@std@@QEAA@QEBDH@Z 0000000140000000     CreditCard.obj
 0003:fffad000       $ip2state$??0sentry@?$basic_ostream@DU?$char_traits@D@std@@@std@@QEAA@AEAV12@@Z 0000000140000000     CreditCard.obj
 0003:fffad000       $ip2state$??1?$_Container_proxy_ptr12@V?$allocator@U_Container_proxy@std@@@std@@@std@@QEAA@XZ 0000000140000000     CreditCard.obj
 0003:fffad000       $ip2state$??1?$basic_string@DU?$char_traits@D@std@@V?$allocator@D@2@@std@@QEAA@XZ 0000000140000000     CreditCard.obj
 0003:fffad000       $ip2state$??1_Bxty@?$_String_val@U?$_Simple_types@D@std@@@std@@QEAA@XZ 0000000140000000     CreditCard.obj
 0003:fffad000       $ip2state$??1_Sentry_base@?$basic_ostream@DU?$char_traits@D@std@@@std@@QEAA@XZ 0000000140000000     CreditCard.obj
 0003:fffad000       $ip2state$??1exception@std@@UEAA@XZ 0000000140000000     CreditCard.obj
 0003:fffad000       $ip2state$??1sentry@?$basic_ostream@DU?$char_traits@D@std@@@std@@QEAA@XZ 0000000140000000     CreditCard.obj
 0003:fffad000       $ip2state$??2@YAPEAX_KPEAX@Z 0000000140000000     CreditCard.obj
 0003:fffad000       $ip2state$?_Calculate_growth@?$basic_string@DU?$char_traits@D@std@@V?$allocator@D@2@@std@@AEBA_K_K@Z 0000000140000000     CreditCard.obj
 0003:fffad000       $ip2state$?_Calculate_growth@?$basic_string@DU?$char_traits@D@std@@V?$allocator@D@2@@std@@CA_K_K00@Z 0000000140000000     CreditCard.obj
 0003:fffad000       $ip2state$?_Get_first@?$_Compressed_pair@V?$allocator@D@std@@V?$_String_val@U?$_Simple_types@D@std@@@2@$00@std@@QEAAAEAV?$allocator@D@2@XZ 0000000140000000     CreditCard.obj
 0003:fffad000       $ip2state$?_Get_first@?$_Compressed_pair@V?$allocator@D@std@@V?$_String_val@U?$_Simple_types@D@std@@@2@$00@std@@QEBAAEBV?$allocator@D@2@XZ 0000000140000000     CreditCard.obj
 0003:fffad000       $ip2state$?_Getal@?$basic_string@DU?$char_traits@D@std@@V?$allocator@D@2@@std@@AEAAAEAV?$allocator@D@2@XZ 0000000140000000     CreditCard.obj
 0003:fffad000       $ip2state$?_Getal@?$basic_string@DU?$char_traits@D@std@@V?$allocator@D@2@@std@@AEBAAEBV?$allocator@D@2@XZ 0000000140000000     CreditCard.obj
 0003:fffad000       $ip2state$?_Orphan_all@_Container_base12@std@@QEAAXXZ 0000000140000000     CreditCard.obj
 0003:fffad000       $ip2state$?_Release@_Basic_container_proxy_ptr12@std@@QEAAXXZ 0000000140000000     CreditCard.obj
 0003:fffad000       $ip2state$?_Tidy_deallocate@?$basic_string@DU?$char_traits@D@std@@V?$allocator@D@2@@std@@AEAAXXZ 0000000140000000     CreditCard.obj
 0003:fffad000       $ip2state$?_Tidy_init@?$basic_string@DU?$char_traits@D@std@@V?$allocator@D@2@@std@@AEAAXXZ 0000000140000000     CreditCard.obj
 0003:fffad000       $ip2state$?__empty_global_delete@@YAXPEAX@Z 0000000140000000     CreditCard.obj
 0003:fffad000       $ip2state$?__empty_global_delete@@YAXPEAXW4align_val_t@std@@@Z 0000000140000000     CreditCard.obj
 0003:fffad000       $ip2state$?__empty_global_delete@@YAXPEAX_K@Z 0000000140000000     CreditCard.obj
 0003:fffad000       $ip2state$?__empty_global_delete@@YAXPEAX_KW4align_val_t@std@@@Z 0000000140000000     CreditCard.obj
 0003:fffad000       $ip2state$?assign@?$_Narrow_char_traits@DH@std@@SAXAEADAEBD@Z 0000000140000000     CreditCard.obj
 0003:fffad000       $ip2state$?copy@?$_Narrow_char_traits@DH@std@@SAPEADQEADQEBD_K@Z 0000000140000000     CreditCard.obj
 0003:fffad000       $ip2state$?eof@?$_Narrow_char_traits@DH@std@@SAHXZ 0000000140000000     CreditCard.obj
 0003:fffad000       $ip2state$?eq_int_type@?$_Narrow_char_traits@DH@std@@SA_NAEBH0@Z 0000000140000000     CreditCard.obj
 0003:fffad000       $ip2state$?length@?$_Narrow_char_traits@DH@std@@SA_KQEBD@Z 0000000140000000     CreditCard.obj
 0003:fffad000       $ip2state$?max@?$numeric_limits@_J@std@@SA_JXZ 0000000140000000     CreditCard.obj
 0003:fffad000       $ip2state$?max_size@?$_Default_allocator_traits@V?$allocator@D@std@@@std@@SA_KAEBV?$allocator@D@2@@Z 0000000140000000     CreditCard.obj
 0003:fffad000       $ip2state$?max_size@?$basic_string@DU?$char_traits@D@std@@V?$allocator@D@2@@std@@QEBA_KXZ 0000000140000000     CreditCard.obj
 0003:fffad000       $ip2state$?move@?$_Narrow_char_traits@DH@std@@SAPEADQEADQEBD_K@Z 0000000140000000     CreditCard.obj
 0003:fffad000       $ip2state$?size@?$basic_string@DU?$char_traits@D@std@@V?$allocator@D@2@@std@@QEBA_KXZ 0000000140000000     CreditCard.obj
 0005:fff98000       $pdata$??$?0$$V@?$_Compressed_pair@V?$allocator@D@std@@V?$_String_val@U?$_Simple_types@D@std@@@2@$00@std@@QEAA@U_Zero_then_variadic_args_t@1@@Z 0000000140000000     CreditCard.obj
 0005:fff98000       $pdata$??$?0D@?$allocator@U_Container_proxy@std@@@std@@QEAA@AEBV?$allocator@D@1@@Z 0000000140000000     CreditCard.obj
 0005:fff98000       $pdata$??$?0V?$allocator@D@std@@$$V@?$_Compressed_pair@V?$allocator@D@std@@V?$_String_val@U?$_Simple_types@D@std@@@2@$00@std@@QEAA@U_One_then_variadic_args_t@1@$$QEAV?$allocator@D@1@@Z 0000000140000000     CreditCard.obj
 0005:fff98000       $pdata$??$?6U?$char_traits@D@std@@@std@@YAAEAV?$basic_ostream@DU?$char_traits@D@std@@@0@AEAV10@PEBD@Z 0000000140000000     CreditCard.obj
 0005:fff98000       $pdata$??$_Alloc_proxy@V?$allocator@U_Container_proxy@std@@@std@@@_Container_base12@std@@QEAAX$$QEAV?$allocator@U_Container_proxy@std@@@1@@Z 0000000140000000     CreditCard.obj
 0005:fff98000       $pdata$??$_Allocate@$0BA@U_Default_allocate_traits@std@@$0A@@std@@YAPEAX_K@Z 0000000140000000     CreditCard.obj
 0005:fff98000       $pdata$??$_Allocate_manually_vector_aligned@U_Default_allocate_traits@std@@@std@@YAPEAX_K@Z 0000000140000000     CreditCard.obj
 0005:fff98000       $pdata$??$_Construct_in_place@PEADAEBQEAD@std@@YAXAEAPEADAEBQEAD@Z 0000000140000000     CreditCard.obj
 0005:fff98000       $pdata$??$_Construct_in_place@U_Container_proxy@std@@PEAU_Container_base12@2@@std@@YAXAEAU_Container_proxy@0@$$QEAPEAU_Container_base12@0@@Z 0000000140000000     CreditCard.obj
 0005:fff98000       $pdata$??$_Convert_size@_K@std@@YA_K_K@Z 0000000140000000     CreditCard.obj
 0005:fff98000       $pdata$??$_Deallocate@$0BA@$0A@@std@@YAXPEAX_K@Z 0000000140000000     CreditCard.obj
 0005:fff98000       $pdata$??$_Deallocate_plain@V?$allocator@U_Container_proxy@std@@@std@@@std@@YAXAEAV?$allocator@U_Container_proxy@std@@@0@QEAU_Container_proxy@0@@Z 0000000140000000     CreditCard.obj
 0005:fff98000       $pdata$??$_Delete_plain_internal@V?$allocator@U_Container_proxy@std@@@std@@@std@@YAXAEAV?$allocator@U_Container_proxy@std@@@0@QEAU_Container_proxy@0@@Z 0000000140000000     CreditCard.obj
 0005:fff98000       $pdata$??$_Destroy_in_place@PEAD@std@@YAXAEAPEAD@Z 0000000140000000     CreditCard.obj
 0005:fff98000       $pdata$??$_Get_size_of_n@$00@std@@YA_K_K@Z 0000000140000000     CreditCard.obj
 0005:fff98000       $pdata$??$_Get_size_of_n@$0BA@@std@@YA_K_K@Z 0000000140000000     CreditCard.obj
 0005:fff98000       $pdata$??$_Getvals@_W@?$time_get@DV?$istreambuf_iterator@DU?$char_traits@D@std@@@std@@@std@@IEAAX_WAEBV_Locinfo@1@@Z 0000000140000000     CreditCard.obj
 0005:fff98000       $pdata$??$_Getvals@_W@?$time_get@_WV?$istreambuf_iterator@_WU?$char_traits@_W@std@@@std@@@std@@IEAAX_WAEBV_Locinfo@1@@Z 0000000140000000     CreditCard.obj
 0005:fff98000       $pdata$??$_Maklocstr@D@std@@YAPEADPEBDPEADAEBU_Cvtvec@@@Z 0000000140000000     CreditCard.obj
 0005:fff98000       $pdata$??$_Maklocstr@_W@std@@YAPEA_WPEBDPEA_WAEBU_Cvtvec@@@Z 0000000140000000     CreditCard.obj
 0005:fff98000       $pdata$??$_Max_value@_K@std@@YAAEB_KAEB_K0@Z 0000000140000000     CreditCard.obj
 0005:fff98000       $pdata$??$_Min_value@_K@std@@YAAEB_KAEB_K0@Z 0000000140000000     CreditCard.obj
 0005:fff98000       $pdata$??$_Reallocate_for@V<lambda_66f57f934f28d61049862f64df852ff0>@@PEBD@?$basic_string@DU?$char_traits@D@std@@V?$allocator@D@2@@std@@AEAAAEAV01@_KV<lambda_66f57f934f28d61049862f64df852ff0>@@PEBD@Z 0000000140000000     CreditCard.obj
 0005:fff98000       $pdata$??$_Unfancy@D@std@@YAPEADPEAD@Z 0000000140000000     CreditCard.obj
 0005:fff98000       $pdata$??$_Unfancy@U_Container_proxy@std@@@std@@YAPEAU_Container_proxy@0@PEAU10@@Z 0000000140000000     CreditCard.obj
 0005:fff98000       $pdata$??$addressof@PEAD@std@@YAPEAPEADAEAPEAD@Z 0000000140000000     CreditCard.obj
 0005:fff98000       $pdata$??$addressof@U_Container_base12@std@@@std@@YAPEAU_Container_base12@0@AEAU10@@Z 0000000140000000     CreditCard.obj
 0005:fff98000       $pdata$??$addressof@U_Container_proxy@std@@@std@@YAPEAU_Container_proxy@0@AEAU10@@Z 0000000140000000     CreditCard.obj
 0005:fff98000       $pdata$??$forward@AEBQEAD@std@@YAAEBQEADAEBQEAD@Z 0000000140000000     CreditCard.obj
 0005:fff98000       $pdata$??$forward@PEAU_Container_base12@std@@@std@@YA$$QEAPEAU_Container_base12@0@AEAPEAU10@@Z 0000000140000000     CreditCard.obj
 0005:fff98000       $pdata$??$forward@V?$allocator@D@std@@@std@@YA$$QEAV?$allocator@D@0@AEAV10@@Z 0000000140000000     CreditCard.obj
 0005:fff98000       $pdata$??0?$_Container_proxy_ptr12@V?$allocator@U_Container_proxy@std@@@std@@@std@@QEAA@AEAV?$allocator@U_Container_proxy@std@@@1@AEAU_Container_base12@1@@Z 0000000140000000     CreditCard.obj
 0005:fff98000       $pdata$??0?$_String_val@U?$_Simple_types@D@std@@@std@@QEAA@XZ 0000000140000000     CreditCard.obj
 0005:fff98000       $pdata$??0?$allocator@D@std@@QEAA@XZ 0000000140000000     CreditCard.obj
 0005:fff98000       $pdata$??0?$basic_string@DU?$char_traits@D@std@@V?$allocator@D@2@@std@@QEAA@AEBV01@@Z 0000000140000000     CreditCard.obj
 0005:fff98000       $pdata$??0?$basic_string@DU?$char_traits@D@std@@V?$allocator@D@2@@std@@QEAA@XZ 0000000140000000     CreditCard.obj
 0005:fff98000       $pdata$??0_Bxty@?$_String_val@U?$_Simple_types@D@std@@@std@@QEAA@XZ 0000000140000000     CreditCard.obj
 0005:fff98000       $pdata$??0_Container_base12@std@@QEAA@XZ 0000000140000000     CreditCard.obj
 0005:fff98000       $pdata$??0_Container_proxy@std@@QEAA@PEAU_Container_base12@1@@Z 0000000140000000     CreditCard.obj
 0005:fff98000       $pdata$??0_Sentry_base@?$basic_ostream@DU?$char_traits@D@std@@@std@@QEAA@AEAV12@@Z 0000000140000000     CreditCard.obj
 0005:fff98000       $pdata$??0bad_alloc@std@@AEAA@QEBD@Z 0000000140000000     CreditCard.obj
 0005:fff98000       $pdata$??0bad_alloc@std@@QEAA@AEBV01@@Z 0000000140000000     CreditCard.obj
 0005:fff98000       $pdata$??0bad_array_new_length@std@@QEAA@AEBV01@@Z 0000000140000000     CreditCard.obj
 0005:fff98000       $pdata$??0bad_array_new_length@std@@QEAA@XZ 0000000140000000     CreditCard.obj
 0005:fff98000       $pdata$??0exception@std@@QEAA@AEBV01@@Z 0000000140000000     CreditCard.obj
 0005:fff98000       $pdata$??0exception@std@@QEAA@QEBDH@Z 0000000140000000     CreditCard.obj
 0005:fff98000       $pdata$??0sentry@?$basic_ostream@DU?$char_traits@D@std@@@std@@QEAA@AEAV12@@Z 0000000140000000     CreditCard.obj
 0005:fff98000       $pdata$??1?$_Compressed_pair@V?$allocator@D@std@@V?$_String_val@U?$_Simple_types@D@std@@@2@$00@std@@QEAA@XZ 0000000140000000     CreditCard.obj
 0005:fff98000       $pdata$??1?$_Container_proxy_ptr12@V?$allocator@U_Container_proxy@std@@@std@@@std@@QEAA@XZ 0000000140000000     CreditCard.obj
 0005:fff98000       $pdata$??1?$_String_val@U?$_Simple_types@D@std@@@std@@QEAA@XZ 0000000140000000     CreditCard.obj
 0005:fff98000       $pdata$??1?$basic_string@DU?$char_traits@D@std@@V?$allocator@D@2@@std@@QEAA@XZ 0000000140000000     CreditCard.obj
 0005:fff98000       $pdata$??1_Bxty@?$_String_val@U?$_Simple_types@D@std@@@std@@QEAA@XZ 0000000140000000     CreditCard.obj
 0005:fff98000       $pdata$??1_Sentry_base@?$basic_ostream@DU?$char_traits@D@std@@@std@@QEAA@XZ 0000000140000000     CreditCard.obj
 0005:fff98000       $pdata$??1bad_alloc@std@@UEAA@XZ 0000000140000000     CreditCard.obj
 0005:fff98000       $pdata$??1bad_array_new_length@std@@UEAA@XZ 0000000140000000     CreditCard.obj
 0005:fff98000       $pdata$??1exception@std@@UEAA@XZ 0000000140000000     CreditCard.obj
 0005:fff98000       $pdata$??1sentry@?$basic_ostream@DU?$char_traits@D@std@@@std@@QEAA@XZ 0000000140000000     CreditCard.obj
 0005:fff98000       $pdata$??2@YAPEAX_KPEAX@Z  0000000140000000     CreditCard.obj
 0005:fff98000       $pdata$??Bsentry@?$basic_ostream@DU?$char_traits@D@std@@@std@@QEBA_NXZ 0000000140000000     CreditCard.obj
 0005:fff98000       $pdata$??R<lambda_66f57f934f28d61049862f64df852ff0>@@QEBA@QEAD_KQEBD@Z 0000000140000000     CreditCard.obj
 0005:fff98000       $pdata$??_Gbad_alloc@std@@UEAAPEAXI@Z 0000000140000000     CreditCard.obj
 0005:fff98000       $pdata$??_Gbad_array_new_length@std@@UEAAPEAXI@Z 0000000140000000     CreditCard.obj
 0005:fff98000       $pdata$??_Gexception@std@@UEAAPEAXI@Z 0000000140000000     CreditCard.obj
 0005:fff98000       $pdata$?_Adjust_manually_vector_aligned@std@@YAXAEAPEAXAEA_K@Z 0000000140000000     CreditCard.obj
 0005:fff98000       $pdata$?_Allocate@_Default_allocate_traits@std@@SAPEAX_K@Z 0000000140000000     CreditCard.obj
 0005:fff98000       $pdata$?_Calculate_growth@?$basic_string@DU?$char_traits@D@std@@V?$allocator@D@2@@std@@AEBA_K_K@Z 0000000140000000     CreditCard.obj
 0005:fff98000       $pdata$?_Calculate_growth@?$basic_string@DU?$char_traits@D@std@@V?$allocator@D@2@@std@@CA_K_K00@Z 0000000140000000     CreditCard.obj
 0005:fff98000       $pdata$?_Check_offset@?$_String_val@U?$_Simple_types@D@std@@@std@@QEBAX_K@Z 0000000140000000     CreditCard.obj
 0005:fff98000       $pdata$?_Construct_lv_contents@?$basic_string@DU?$char_traits@D@std@@V?$allocator@D@2@@std@@AEAAXAEBV12@@Z 0000000140000000     CreditCard.obj
 0005:fff98000       $pdata$?_Get_first@?$_Compressed_pair@V?$allocator@D@std@@V?$_String_val@U?$_Simple_types@D@std@@@2@$00@std@@QEAAAEAV?$allocator@D@2@XZ 0000000140000000     CreditCard.obj
 0005:fff98000       $pdata$?_Get_first@?$_Compressed_pair@V?$allocator@D@std@@V?$_String_val@U?$_Simple_types@D@std@@@2@$00@std@@QEBAAEBV?$allocator@D@2@XZ 0000000140000000     CreditCard.obj
 0005:fff98000       $pdata$?_Getal@?$basic_string@DU?$char_traits@D@std@@V?$allocator@D@2@@std@@AEAAAEAV?$allocator@D@2@XZ 0000000140000000     CreditCard.obj
 0005:fff98000       $pdata$?_Getal@?$basic_string@DU?$char_traits@D@std@@V?$allocator@D@2@@std@@AEBAAEBV?$allocator@D@2@XZ 0000000140000000     CreditCard.obj
 0005:fff98000       $pdata$?_Large_string_engaged@?$_String_val@U?$_Simple_types@D@std@@@std@@QEBA_NXZ 0000000140000000     CreditCard.obj
 0005:fff98000       $pdata$?_Maklocwcs@std@@YAPEA_WPEB_W@Z 0000000140000000     CreditCard.obj
 0005:fff98000       $pdata$?_Myptr@?$_String_val@U?$_Simple_types@D@std@@@std@@QEAAPEADXZ 0000000140000000     CreditCard.obj
 0005:fff98000       $pdata$?_Myptr@?$_String_val@U?$_Simple_types@D@std@@@std@@QEBAPEBDXZ 0000000140000000     CreditCard.obj
 0005:fff98000       $pdata$?_Orphan_all@_Container_base12@std@@QEAAXXZ 0000000140000000     CreditCard.obj
 0005:fff98000       $pdata$?_Release@_Basic_container_proxy_ptr12@std@@QEAAXXZ 0000000140000000     CreditCard.obj
 0005:fff98000       $pdata$?_Throw_bad_array_new_length@std@@YAXXZ 0000000140000000     CreditCard.obj
 0005:fff98000       $pdata$?_Tidy_deallocate@?$basic_string@DU?$char_traits@D@std@@V?$allocator@D@2@@std@@AEAAXXZ 0000000140000000     CreditCard.obj
 0005:fff98000       $pdata$?_Tidy_init@?$basic_string@DU?$char_traits@D@std@@V?$allocator@D@2@@std@@AEAAXXZ 0000000140000000     CreditCard.obj
 0005:fff98000       $pdata$?_Xlen@?$basic_string@DU?$char_traits@D@std@@V?$allocator@D@2@@std@@CAXXZ 0000000140000000     CreditCard.obj
 0005:fff98000       $pdata$?_Xran@?$_String_val@U?$_Simple_types@D@std@@@std@@SAXXZ 0000000140000000     CreditCard.obj
 0005:fff98000       $pdata$?__empty_global_delete@@YAXPEAX@Z 0000000140000000     CreditCard.obj
 0005:fff98000       $pdata$?__empty_global_delete@@YAXPEAXW4align_val_t@std@@@Z 0000000140000000     CreditCard.obj
 0005:fff98000       $pdata$?__empty_global_delete@@YAXPEAX_K@Z 0000000140000000     CreditCard.obj
 0005:fff98000       $pdata$?__empty_global_delete@@YAXPEAX_KW4align_val_t@std@@@Z 0000000140000000     CreditCard.obj
 0005:fff98000       $pdata$?allocate@?$allocator@D@std@@QEAAPEAD_K@Z 0000000140000000     CreditCard.obj
 0005:fff98000       $pdata$?allocate@?$allocator@U_Container_proxy@std@@@std@@QEAAPEAU_Container_proxy@2@_K@Z 0000000140000000     CreditCard.obj
 0005:fff98000       $pdata$?assign@?$_Narrow_char_traits@DH@std@@SAXAEADAEBD@Z 0000000140000000     CreditCard.obj
 0005:fff98000       $pdata$?assign@?$basic_string@DU?$char_traits@D@std@@V?$allocator@D@2@@std@@QEAAAEAV12@QEBD_K@Z 0000000140000000     CreditCard.obj
 0005:fff98000       $pdata$?catch$1@?0???$?6U?$char_traits@D@std@@@std@@YAAEAV?$basic_ostream@DU?$char_traits@D@std@@@0@AEAV10@PEBD@Z@4HA 0000000140000000     CreditCard.obj
 0005:fff98000       $pdata$?copy@?$_Narrow_char_traits@DH@std@@SAPEADQEADQEBD_K@Z 0000000140000000     CreditCard.obj
 0005:fff98000       $pdata$?deallocate@?$_Default_allocator_traits@V?$allocator@U_Container_proxy@std@@@std@@@std@@SAXAEAV?$allocator@U_Container_proxy@std@@@2@QEAU_Container_proxy@2@_K@Z 0000000140000000     CreditCard.obj
 0005:fff98000       $pdata$?deallocate@?$allocator@D@std@@QEAAXQEAD_K@Z 0000000140000000     CreditCard.obj
 0005:fff98000       $pdata$?dtor$0@?0???$?6U?$char_traits@D@std@@@std@@YAAEAV?$basic_ostream@DU?$char_traits@D@std@@@0@AEAV10@PEBD@Z@4HA 0000000140000000     CreditCard.obj
 0005:fff98000       $pdata$?dtor$0@?0???0?$basic_string@DU?$char_traits@D@std@@V?$allocator@D@2@@std@@QEAA@AEBV01@@Z@4HA 0000000140000000     CreditCard.obj
 0005:fff98000       $pdata$?dtor$0@?0???0sentry@?$basic_ostream@DU?$char_traits@D@std@@@std@@QEAA@AEAV12@@Z@4HA 0000000140000000     CreditCard.obj
 0005:fff98000       $pdata$?dtor$1@?0???0?$basic_string@DU?$char_traits@D@std@@V?$allocator@D@2@@std@@QEAA@AEBV01@@Z@4HA 0000000140000000     CreditCard.obj
 0005:fff98000       $pdata$?eof@?$_Narrow_char_traits@DH@std@@SAHXZ 0000000140000000     CreditCard.obj
 0005:fff98000       $pdata$?eq_int_type@?$_Narrow_char_traits@DH@std@@SA_NAEBH0@Z 0000000140000000     CreditCard.obj
 0005:fff98000       $pdata$?length@?$_Narrow_char_traits@DH@std@@SA_KQEBD@Z 0000000140000000     CreditCard.obj
 0005:fff98000       $pdata$?max@?$numeric_limits@_J@std@@SA_JXZ 0000000140000000     CreditCard.obj
 0005:fff98000       $pdata$?max_size@?$_Default_allocator_traits@V?$allocator@D@std@@@std@@SA_KAEBV?$allocator@D@2@@Z 0000000140000000     CreditCard.obj
 0005:fff98000       $pdata$?max_size@?$basic_string@DU?$char_traits@D@std@@V?$allocator@D@2@@std@@QEBA_KXZ 0000000140000000     CreditCard.obj
 0005:fff98000       $pdata$?move@?$_Narrow_char_traits@DH@std@@SAPEADQEADQEBD_K@Z 0000000140000000     CreditCard.obj
 0005:fff98000       $pdata$?select_on_container_copy_construction@?$_Default_allocator_traits@V?$allocator@D@std@@@std@@SA?AV?$allocator@D@2@AEBV32@@Z 0000000140000000     CreditCard.obj
 0005:fff98000       $pdata$?size@?$basic_string@DU?$char_traits@D@std@@V?$allocator@D@2@@std@@QEBA_KXZ 0000000140000000     CreditCard.obj
 0005:fff98000       $pdata$?what@exception@std@@UEBAPEBDXZ 0000000140000000     CreditCard.obj
 0005:fff98000       $pdata$wmemcpy             0000000140000000     CreditCard.obj
 0003:fffad000       $stateUnwindMap$??$?6U?$char_traits@D@std@@@std@@YAAEAV?$basic_ostream@DU?$char_traits@D@std@@@0@AEAV10@PEBD@Z 0000000140000000     CreditCard.obj
 0003:fffad000       $stateUnwindMap$??0?$basic_string@DU?$char_traits@D@std@@V?$allocator@D@2@@std@@QEAA@AEBV01@@Z 0000000140000000     CreditCard.obj
 0003:fffad000       $stateUnwindMap$??0sentry@?$basic_ostream@DU?$char_traits@D@std@@@std@@QEAA@AEAV12@@Z 0000000140000000     CreditCard.obj
 0003:fffad000       $tryMap$??$?6U?$char_traits@D@std@@@std@@YAAEAV?$basic_ostream@DU?$char_traits@D@std@@@0@AEAV10@PEBD@Z 0000000140000000     CreditCard.obj
 0003:fffad000       $unwind$??$?0$$V@?$_Compressed_pair@V?$allocator@D@std@@V?$_String_val@U?$_Simple_types@D@std@@@2@$00@std@@QEAA@U_Zero_then_variadic_args_t@1@@Z 0000000140000000     CreditCard.obj
 0003:fffad000       $unwind$??$?0D@?$allocator@U_Container_proxy@std@@@std@@QEAA@AEBV?$allocator@D@1@@Z 0000000140000000     CreditCard.obj
 0003:fffad000       $unwind$??$?0V?$allocator@D@std@@$$V@?$_Compressed_pair@V?$allocator@D@std@@V?$_String_val@U?$_Simple_types@D@std@@@2@$00@std@@QEAA@U_One_then_variadic_args_t@1@$$QEAV?$allocator@D@1@@Z 0000000140000000     CreditCard.obj
 0003:fffad000       $unwind$??$?6U?$char_traits@D@std@@@std@@YAAEAV?$basic_ostream@DU?$char_traits@D@std@@@0@AEAV10@PEBD@Z 0000000140000000     CreditCard.obj
 0003:fffad000       $unwind$??$_Alloc_proxy@V?$allocator@U_Container_proxy@std@@@std@@@_Container_base12@std@@QEAAX$$QEAV?$allocator@U_Container_proxy@std@@@1@@Z 0000000140000000     CreditCard.obj
 0003:fffad000       $unwind$??$_Allocate@$0BA@U_Default_allocate_traits@std@@$0A@@std@@YAPEAX_K@Z 0000000140000000     CreditCard.obj
 0003:fffad000       $unwind$??$_Allocate_manually_vector_aligned@U_Default_allocate_traits@std@@@std@@YAPEAX_K@Z 0000000140000000     CreditCard.obj
 0003:fffad000       $unwind$??$_Construct_in_place@PEADAEBQEAD@std@@YAXAEAPEADAEBQEAD@Z 0000000140000000     CreditCard.obj
 0003:fffad000       $unwind$??$_Construct_in_place@U_Container_proxy@std@@PEAU_Container_base12@2@@std@@YAXAEAU_Container_proxy@0@$$QEAPEAU_Container_base12@0@@Z 0000000140000000     CreditCard.obj
 0003:fffad000       $unwind$??$_Convert_size@_K@std@@YA_K_K@Z 0000000140000000     CreditCard.obj
 0003:fffad000       $unwind$??$_Deallocate@$0BA@$0A@@std@@YAXPEAX_K@Z 0000000140000000     CreditCard.obj
 0003:fffad000       $unwind$??$_Deallocate_plain@V?$allocator@U_Container_proxy@std@@@std@@@std@@YAXAEAV?$allocator@U_Container_proxy@std@@@0@QEAU_Container_proxy@0@@Z 0000000140000000     CreditCard.obj
 0003:fffad000       $unwind$??$_Delete_plain_internal@V?$allocator@U_Container_proxy@std@@@std@@@std@@YAXAEAV?$allocator@U_Container_proxy@std@@@0@QEAU_Container_proxy@0@@Z 0000000140000000     CreditCard.obj
 0003:fffad000       $unwind$??$_Destroy_in_place@PEAD@std@@YAXAEAPEAD@Z 0000000140000000     CreditCard.obj
 0003:fffad000       $unwind$??$_Get_size_of_n@$00@std@@YA_K_K@Z 0000000140000000     CreditCard.obj
 0003:fffad000       $unwind$??$_Get_size_of_n@$0BA@@std@@YA_K_K@Z 0000000140000000     CreditCard.obj
 0003:fffad000       $unwind$??$_Getvals@_W@?$time_get@DV?$istreambuf_iterator@DU?$char_traits@D@std@@@std@@@std@@IEAAX_WAEBV_Locinfo@1@@Z 0000000140000000     CreditCard.obj
 0003:fffad000       $unwind$??$_Getvals@_W@?$time_get@_WV?$istreambuf_iterator@_WU?$char_traits@_W@std@@@std@@@std@@IEAAX_WAEBV_Locinfo@1@@Z 0000000140000000     CreditCard.obj
 0003:fffad000       $unwind$??$_Maklocstr@D@std@@YAPEADPEBDPEADAEBU_Cvtvec@@@Z 0000000140000000     CreditCard.obj
 0003:fffad000       $unwind$??$_Maklocstr@_W@std@@YAPEA_WPEBDPEA_WAEBU_Cvtvec@@@Z 0000000140000000     CreditCard.obj
 0003:fffad000       $unwind$??$_Max_value@_K@std@@YAAEB_KAEB_K0@Z 0000000140000000     CreditCard.obj
 0003:fffad000       $unwind$??$_Min_value@_K@std@@YAAEB_KAEB_K0@Z 0000000140000000     CreditCard.obj
 0003:fffad000       $unwind$??$_Reallocate_for@V<lambda_66f57f934f28d61049862f64df852ff0>@@PEBD@?$basic_string@DU?$char_traits@D@std@@V?$allocator@D@2@@std@@AEAAAEAV01@_KV<lambda_66f57f934f28d61049862f64df852ff0>@@PEBD@Z 0000000140000000     CreditCard.obj
 0003:fffad000       $unwind$??$_Unfancy@D@std@@YAPEADPEAD@Z 0000000140000000     CreditCard.obj
 0003:fffad000       $unwind$??$_Unfancy@U_Container_proxy@std@@@std@@YAPEAU_Container_proxy@0@PEAU10@@Z 0000000140000000     CreditCard.obj
 0003:fffad000       $unwind$??$addressof@PEAD@std@@YAPEAPEADAEAPEAD@Z 0000000140000000     CreditCard.obj
 0003:fffad000       $unwind$??$addressof@U_Container_base12@std@@@std@@YAPEAU_Container_base12@0@AEAU10@@Z 0000000140000000     CreditCard.obj
 0003:fffad000       $unwind$??$addressof@U_Container_proxy@std@@@std@@YAPEAU_Container_proxy@0@AEAU10@@Z 0000000140000000     CreditCard.obj
 0003:fffad000       $unwind$??$forward@AEBQEAD@std@@YAAEBQEADAEBQEAD@Z 0000000140000000     CreditCard.obj
 0003:fffad000       $unwind$??$forward@PEAU_Container_base12@std@@@std@@YA$$QEAPEAU_Container_base12@0@AEAPEAU10@@Z 0000000140000000     CreditCard.obj
 0003:fffad000       $unwind$??$forward@V?$allocator@D@std@@@std@@YA$$QEAV?$allocator@D@0@AEAV10@@Z 0000000140000000     CreditCard.obj
 0003:fffad000       $unwind$??0?$_Container_proxy_ptr12@V?$allocator@U_Container_proxy@std@@@std@@@std@@QEAA@AEAV?$allocator@U_Container_proxy@std@@@1@AEAU_Container_base12@1@@Z 0000000140000000     CreditCard.obj
 0003:fffad000       $unwind$??0?$_String_val@U?$_Simple_types@D@std@@@std@@QEAA@XZ 0000000140000000     CreditCard.obj
 0003:fffad000       $unwind$??0?$allocator@D@std@@QEAA@XZ 0000000140000000     CreditCard.obj
 0003:fffad000       $unwind$??0?$basic_string@DU?$char_traits@D@std@@V?$allocator@D@2@@std@@QEAA@AEBV01@@Z 0000000140000000     CreditCard.obj
 0003:fffad000       $unwind$??0?$basic_string@DU?$char_traits@D@std@@V?$allocator@D@2@@std@@QEAA@XZ 0000000140000000     CreditCard.obj
 0003:fffad000       $unwind$??0_Bxty@?$_String_val@U?$_Simple_types@D@std@@@std@@QEAA@XZ 0000000140000000     CreditCard.obj
 0003:fffad000       $unwind$??0_Container_base12@std@@QEAA@XZ 0000000140000000     CreditCard.obj
 0003:fffad000       $unwind$??0_Container_proxy@std@@QEAA@PEAU_Container_base12@1@@Z 0000000140000000     CreditCard.obj
 0003:fffad000       $unwind$??0_Sentry_base@?$basic_ostream@DU?$char_traits@D@std@@@std@@QEAA@AEAV12@@Z 0000000140000000     CreditCard.obj
 0003:fffad000       $unwind$??0bad_alloc@std@@AEAA@QEBD@Z 0000000140000000     CreditCard.obj
 0003:fffad000       $unwind$??0bad_alloc@std@@QEAA@AEBV01@@Z 0000000140000000     CreditCard.obj
 0003:fffad000       $unwind$??0bad_array_new_length@std@@QEAA@AEBV01@@Z 0000000140000000     CreditCard.obj
 0003:fffad000       $unwind$??0bad_array_new_length@std@@QEAA@XZ 0000000140000000     CreditCard.obj
 0003:fffad000       $unwind$??0exception@std@@QEAA@AEBV01@@Z 0000000140000000     CreditCard.obj
 0003:fffad000       $unwind$??0exception@std@@QEAA@QEBDH@Z 0000000140000000     CreditCard.obj
 0003:fffad000       $unwind$??0sentry@?$basic_ostream@DU?$char_traits@D@std@@@std@@QEAA@AEAV12@@Z 0000000140000000     CreditCard.obj
 0003:fffad000       $unwind$??1?$_Compressed_pair@V?$allocator@D@std@@V?$_String_val@U?$_Simple_types@D@std@@@2@$00@std@@QEAA@XZ 0000000140000000     CreditCard.obj
 0003:fffad000       $unwind$??1?$_Container_proxy_ptr12@V?$allocator@U_Container_proxy@std@@@std@@@std@@QEAA@XZ 0000000140000000     CreditCard.obj
 0003:fffad000       $unwind$??1?$_String_val@U?$_Simple_types@D@std@@@std@@QEAA@XZ 0000000140000000     CreditCard.obj
 0003:fffad000       $unwind$??1?$basic_string@DU?$char_traits@D@std@@V?$allocator@D@2@@std@@QEAA@XZ 0000000140000000     CreditCard.obj
 0003:fffad000       $unwind$??1_Bxty@?$_String_val@U?$_Simple_types@D@std@@@std@@QEAA@XZ 0000000140000000     CreditCard.obj
 0003:fffad000       $unwind$??1_Sentry_base@?$basic_ostream@DU?$char_traits@D@std@@@std@@QEAA@XZ 0000000140000000     CreditCard.obj
 0003:fffad000       $unwind$??1bad_alloc@std@@UEAA@XZ 0000000140000000     CreditCard.obj
 0003:fffad000       $unwind$??1bad_array_new_length@std@@UEAA@XZ 0000000140000000     CreditCard.obj
 0003:fffad000       $unwind$??1exception@std@@UEAA@XZ 0000000140000000     CreditCard.obj
 0003:fffad000       $unwind$??1sentry@?$basic_ostream@DU?$char_traits@D@std@@@std@@QEAA@XZ 0000000140000000     CreditCard.obj
 0003:fffad000       $unwind$??2@YAPEAX_KPEAX@Z 0000000140000000     CreditCard.obj
 0003:fffad000       $unwind$??Bsentry@?$basic_ostream@DU?$char_traits@D@std@@@std@@QEBA_NXZ 0000000140000000     CreditCard.obj
 0003:fffad000       $unwind$??R<lambda_66f57f934f28d61049862f64df852ff0>@@QEBA@QEAD_KQEBD@Z 0000000140000000     CreditCard.obj
 0003:fffad000       $unwind$??_Gbad_alloc@std@@UEAAPEAXI@Z 0000000140000000     CreditCard.obj
 0003:fffad000       $unwind$??_Gbad_array_new_length@std@@UEAAPEAXI@Z 0000000140000000     CreditCard.obj
 0003:fffad000       $unwind$??_Gexception@std@@UEAAPEAXI@Z 0000000140000000     CreditCard.obj
 0003:fffad000       $unwind$?_Adjust_manually_vector_aligned@std@@YAXAEAPEAXAEA_K@Z 0000000140000000     CreditCard.obj
 0003:fffad000       $unwind$?_Allocate@_Default_allocate_traits@std@@SAPEAX_K@Z 0000000140000000     CreditCard.obj
 0003:fffad000       $unwind$?_Calculate_growth@?$basic_string@DU?$char_traits@D@std@@V?$allocator@D@2@@std@@AEBA_K_K@Z 0000000140000000     CreditCard.obj
 0003:fffad000       $unwind$?_Calculate_growth@?$basic_string@DU?$char_traits@D@std@@V?$allocator@D@2@@std@@CA_K_K00@Z 0000000140000000     CreditCard.obj
 0003:fffad000       $unwind$?_Check_offset@?$_String_val@U?$_Simple_types@D@std@@@std@@QEBAX_K@Z 0000000140000000     CreditCard.obj
 0003:fffad000       $unwind$?_Construct_lv_contents@?$basic_string@DU?$char_traits@D@std@@V?$allocator@D@2@@std@@AEAAXAEBV12@@Z 0000000140000000     CreditCard.obj
 0003:fffad000       $unwind$?_Get_first@?$_Compressed_pair@V?$allocator@D@std@@V?$_String_val@U?$_Simple_types@D@std@@@2@$00@std@@QEAAAEAV?$allocator@D@2@XZ 0000000140000000     CreditCard.obj
 0003:fffad000       $unwind$?_Get_first@?$_Compressed_pair@V?$allocator@D@std@@V?$_String_val@U?$_Simple_types@D@std@@@2@$00@std@@QEBAAEBV?$allocator@D@2@XZ 0000000140000000     CreditCard.obj
 0003:fffad000       $unwind$?_Getal@?$basic_string@DU?$char_traits@D@std@@V?$allocator@D@2@@std@@AEAAAEAV?$allocator@D@2@XZ 0000000140000000     CreditCard.obj
 0003:fffad000       $unwind$?_Getal@?$basic_string@DU?$char_traits@D@std@@V?$allocator@D@2@@std@@AEBAAEBV?$allocator@D@2@XZ 0000000140000000     CreditCard.obj
 0003:fffad000       $unwind$?_Large_string_engaged@?$_String_val@U?$_Simple_types@D@std@@@std@@QEBA_NXZ 0000000140000000     CreditCard.obj
 0003:fffad000       $unwind$?_Maklocwcs@std@@YAPEA_WPEB_W@Z 0000000140000000     CreditCard.obj
 0003:fffad000       $unwind$?_Myptr@?$_String_val@U?$_Simple_types@D@std@@@std@@QEAAPEADXZ 0000000140000000     CreditCard.obj
 0003:fffad000       $unwind$?_Myptr@?$_String_val@U?$_Simple_types@D@std@@@std@@QEBAPEBDXZ 0000000140000000     CreditCard.obj
 0003:fffad000       $unwind$?_Orphan_all@_Container_base12@std@@QEAAXXZ 0000000140000000     CreditCard.obj
 0003:fffad000       $unwind$?_Release@_Basic_container_proxy_ptr12@std@@QEAAXXZ 0000000140000000     CreditCard.obj
 0003:fffad000       $unwind$?_Throw_bad_array_new_length@std@@YAXXZ 0000000140000000     CreditCard.obj
 0003:fffad000       $unwind$?_Tidy_deallocate@?$basic_string@DU?$char_traits@D@std@@V?$allocator@D@2@@std@@AEAAXXZ 0000000140000000     CreditCard.obj
 0003:fffad000       $unwind$?_Tidy_init@?$basic_string@DU?$char_traits@D@std@@V?$allocator@D@2@@std@@AEAAXXZ 0000000140000000     CreditCard.obj
 0003:fffad000       $unwind$?_Xlen@?$basic_string@DU?$char_traits@D@std@@V?$allocator@D@2@@std@@CAXXZ 0000000140000000     CreditCard.obj
 0003:fffad000       $unwind$?_Xran@?$_String_val@U?$_Simple_types@D@std@@@std@@SAXXZ 0000000140000000     CreditCard.obj
 0003:fffad000       $unwind$?__empty_global_delete@@YAXPEAX@Z 0000000140000000     CreditCard.obj
 0003:fffad000       $unwind$?__empty_global_delete@@YAXPEAXW4align_val_t@std@@@Z 0000000140000000     CreditCard.obj
 0003:fffad000       $unwind$?__empty_global_delete@@YAXPEAX_K@Z 0000000140000000     CreditCard.obj
 0003:fffad000       $unwind$?__empty_global_delete@@YAXPEAX_KW4align_val_t@std@@@Z 0000000140000000     CreditCard.obj
 0003:fffad000       $unwind$?allocate@?$allocator@D@std@@QEAAPEAD_K@Z 0000000140000000     CreditCard.obj
 0003:fffad000       $unwind$?allocate@?$allocator@U_Container_proxy@std@@@std@@QEAAPEAU_Container_proxy@2@_K@Z 0000000140000000     CreditCard.obj
 0003:fffad000       $unwind$?assign@?$_Narrow_char_traits@DH@std@@SAXAEADAEBD@Z 0000000140000000     CreditCard.obj
 0003:fffad000       $unwind$?assign@?$basic_string@DU?$char_traits@D@std@@V?$allocator@D@2@@std@@QEAAAEAV12@QEBD_K@Z 0000000140000000     CreditCard.obj
 0003:fffad000       $unwind$?catch$1@?0???$?6U?$char_traits@D@std@@@std@@YAAEAV?$basic_ostream@DU?$char_traits@D@std@@@0@AEAV10@PEBD@Z@4HA 0000000140000000     CreditCard.obj
 0003:fffad000       $unwind$?copy@?$_Narrow_char_traits@DH@std@@SAPEADQEADQEBD_K@Z 0000000140000000     CreditCard.obj
 0003:fffad000       $unwind$?deallocate@?$_Default_allocator_traits@V?$allocator@U_Container_proxy@std@@@std@@@std@@SAXAEAV?$allocator@U_Container_proxy@std@@@2@QEAU_Container_proxy@2@_K@Z 0000000140000000     CreditCard.obj
 0003:fffad000       $unwind$?deallocate@?$allocator@D@std@@QEAAXQEAD_K@Z 0000000140000000     CreditCard.obj
 0003:fffad000       $unwind$?dtor$0@?0???$?6U?$char_traits@D@std@@@std@@YAAEAV?$basic_ostream@DU?$char_traits@D@std@@@0@AEAV10@PEBD@Z@4HA 0000000140000000     CreditCard.obj
 0003:fffad000       $unwind$?dtor$0@?0???0?$basic_string@DU?$char_traits@D@std@@V?$allocator@D@2@@std@@QEAA@AEBV01@@Z@4HA 0000000140000000     CreditCard.obj
 0003:fffad000       $unwind$?dtor$0@?0???0sentry@?$basic_ostream@DU?$char_traits@D@std@@@std@@QEAA@AEAV12@@Z@4HA 0000000140000000     CreditCard.obj
 0003:fffad000       $unwind$?dtor$1@?0???0?$basic_string@DU?$char_traits@D@std@@V?$allocator@D@2@@std@@QEAA@AEBV01@@Z@4HA 0000000140000000     CreditCard.obj
 0003:fffad000       $unwind$?eof@?$_Narrow_char_traits@DH@std@@SAHXZ 0000000140000000     CreditCard.obj
 0003:fffad000       $unwind$?eq_int_type@?$_Narrow_char_traits@DH@std@@SA_NAEBH0@Z 0000000140000000     CreditCard.obj
 0003:fffad000       $unwind$?length@?$_Narrow_char_traits@DH@std@@SA_KQEBD@Z 0000000140000000     CreditCard.obj
 0003:fffad000       $unwind$?max@?$numeric_limits@_J@std@@SA_JXZ 0000000140000000     CreditCard.obj
 0003:fffad000       $unwind$?max_size@?$_Default_allocator_traits@V?$allocator@D@std@@@std@@SA_KAEBV?$allocator@D@2@@Z 0000000140000000     CreditCard.obj
 0003:fffad000       $unwind$?max_size@?$basic_string@DU?$char_traits@D@std@@V?$allocator@D@2@@std@@QEBA_KXZ 0000000140000000     CreditCard.obj
 0003:fffad000       $unwind$?move@?$_Narrow_char_traits@DH@std@@SAPEADQEADQEBD_K@Z 0000000140000000     CreditCard.obj
 0003:fffad000       $unwind$?select_on_container_copy_construction@?$_Default_allocator_traits@V?$allocator@D@std@@@std@@SA?AV?$allocator@D@2@AEBV32@@Z 0000000140000000     CreditCard.obj
 0003:fffad000       $unwind$?size@?$basic_string@DU?$char_traits@D@std@@V?$allocator@D@2@@std@@QEBA_KXZ 0000000140000000     CreditCard.obj
 0003:fffad000       $unwind$?what@exception@std@@UEBAPEBDXZ 0000000140000000     CreditCard.obj
 0003:fffad000       $unwind$wmemcpy            0000000140000000     CreditCard.obj
 0003:fffad000       ??$?6U?$char_traits@D@std@@@std@@YAAEAV?$basic_ostream@DU?$char_traits@D@std@@@0@AEAV10@PEBD@Z$rtcName$0 0000000140000000     CreditCard.obj
 0003:fffad000       ??$_Maklocstr@_W@std@@YAPEA_WPEBDPEA_WAEBU_Cvtvec@@@Z$rtcName$0 0000000140000000     CreditCard.obj
 0003:fffad000       ??$_Reallocate_for@V<lambda_66f57f934f28d61049862f64df852ff0>@@PEBD@?$basic_string@DU?$char_traits@D@std@@V?$allocator@D@2@@std@@AEAAAEAV01@_KV<lambda_66f57f934f28d61049862f64df852ff0>@@PEBD@Z$rtcName$0 0000000140000000     CreditCard.obj
 0003:fffad000       ??0?$basic_string@DU?$char_traits@D@std@@V?$allocator@D@2@@std@@QEAA@AEBV01@@Z$rtcName$0 0000000140000000     CreditCard.obj
 0003:fffad000       ??1?$basic_string@DU?$char_traits@D@std@@V?$allocator@D@2@@std@@QEAA@XZ$rtcName$0 0000000140000000     CreditCard.obj
 0003:fffad000       ?_Calculate_growth@?$basic_string@DU?$char_traits@D@std@@V?$allocator@D@2@@std@@CA_K_K00@Z$rtcName$0 0000000140000000     CreditCard.obj
 0003:fffad000       ?_Construct_lv_contents@?$basic_string@DU?$char_traits@D@std@@V?$allocator@D@2@@std@@AEAAXAEBV12@@Z$rtcName$0 0000000140000000     CreditCard.obj
 0003:fffad000       ?_Orphan_all@_Container_base12@std@@QEAAXXZ$rtcName$0 0000000140000000     CreditCard.obj
 0002:fffe7000       ?catch$1@?0???$?6U?$char_traits@D@std@@@std@@YAAEAV?$basic_ostream@DU?$char_traits@D@std@@@0@AEAV10@PEBD@Z@4HA 0000000140000000 f   CreditCard.obj
 0002:fffe7000       ?dtor$0@?0???$?6U?$char_traits@D@std@@@std@@YAAEAV?$basic_ostream@DU?$char_traits@D@std@@@0@AEAV10@PEBD@Z@4HA 0000000140000000 f   CreditCard.obj
 0002:fffe7000       ?dtor$0@?0???0?$basic_string@DU?$char_traits@D@std@@V?$allocator@D@2@@std@@QEAA@AEBV01@@Z@4HA 0000000140000000 f   CreditCard.obj
 0002:fffe7000       ?dtor$0@?0???0sentry@?$basic_ostream@DU?$char_traits@D@std@@@std@@QEAA@AEAV12@@Z@4HA 0000000140000000 f   CreditCard.obj
 0002:fffe7000       ?dtor$1@?0???0?$basic_string@DU?$char_traits@D@std@@V?$allocator@D@2@@std@@QEAA@AEBV01@@Z@4HA 0000000140000000 f   CreditCard.obj
 0003:fffad000       ?max_size@?$basic_string@DU?$char_traits@D@std@@V?$allocator@D@2@@std@@QEBA_KXZ$rtcName$0 0000000140000000     CreditCard.obj
 0003:fffad000       $cppxdata$??$?0D@?$allocator@U_Container_proxy@std@@@std@@QEAA@AEBV?$allocator@D@1@@Z 0000000140000000     Storage.obj
 0003:fffad000       $cppxdata$??$?0U?$default_delete@V_Facet_base@std@@@std@@$0A@@?$unique_ptr@V_Facet_base@std@@U?$default_delete@V_Facet_base@std@@@2@@std@@QEAA@PEAV_Facet_base@1@@Z 0000000140000000     Storage.obj
 0003:fffad000       $cppxdata$??$?0_JX@?$duration@_JU?$ratio@$00$0JIJGIA@@std@@@chrono@std@@QEAA@AEB_J@Z 0000000140000000     Storage.obj
 0003:fffad000       $cppxdata$??$?6DU?$char_traits@D@std@@D@std@@YAAEAV?$basic_ostream@DU?$char_traits@D@std@@@0@AEAV10@AEBU?$_Timeobj@DPEBUtm@@@0@@Z 0000000140000000     Storage.obj
 0003:fffad000       $cppxdata$??$?6U?$char_traits@D@std@@@std@@YAAEAV?$basic_ostream@DU?$char_traits@D@std@@@0@AEAV10@D@Z 0000000140000000     Storage.obj
 0003:fffad000       $cppxdata$??$?6U?$char_traits@D@std@@@std@@YAAEAV?$basic_ostream@DU?$char_traits@D@std@@@0@AEAV10@PEBD@Z 0000000140000000     Storage.obj
 0003:fffad000       $cppxdata$??$_Construct_in_place@PEADAEBQEAD@std@@YAXAEAPEADAEBQEAD@Z 0000000140000000     Storage.obj
 0003:fffad000       $cppxdata$??$_Construct_in_place@U_Container_proxy@std@@PEAU_Container_base12@2@@std@@YAXAEAU_Container_proxy@0@$$QEAPEAU_Container_base12@0@@Z 0000000140000000     Storage.obj
 0003:fffad000       $cppxdata$??$_Convert_size@_K@std@@YA_K_K@Z 0000000140000000     Storage.obj
 0003:fffad000       $cppxdata$??$_Deallocate@$0BA@$0A@@std@@YAXPEAX_K@Z 0000000140000000     Storage.obj
 0003:fffad000       $cppxdata$??$_Deallocate_plain@V?$allocator@U_Container_proxy@std@@@std@@@std@@YAXAEAV?$allocator@U_Container_proxy@std@@@0@QEAU_Container_proxy@0@@Z 0000000140000000     Storage.obj
 0003:fffad000       $cppxdata$??$_Delete_plain_internal@V?$allocator@U_Container_proxy@std@@@std@@@std@@YAXAEAV?$allocator@U_Container_proxy@std@@@0@QEAU_Container_proxy@0@@Z 0000000140000000     Storage.obj
 0003:fffad000       $cppxdata$??$_Destroy_in_place@PEAD@std@@YAXAEAPEAD@Z 0000000140000000     Storage.obj
 0003:fffad000       $cppxdata$??$_Insert_string@DU?$char_traits@D@std@@_K@std@@YAAEAV?$basic_ostream@DU?$char_traits@D@std@@@0@AEAV10@QEBD_K@Z 0000000140000000     Storage.obj
 0003:fffad000       $cppxdata$??$_Max_value@_K@std@@YAAEB_KAEB_K0@Z 0000000140000000     Storage.obj
 0003:fffad000       $cppxdata$??$_Min_value@_K@std@@YAAEB_KAEB_K0@Z 0000000140000000     Storage.obj
 0003:fffad000       $cppxdata$??$_Traits_equal@U?$char_traits@D@std@@@std@@YA_NQEBD_K01@Z 0000000140000000     Storage.obj
 0003:fffad000       $cppxdata$??$addressof@$$CBV?$_String_val@U?$_Simple_types@D@std@@@std@@@std@@YAPEBV?$_String_val@U?$_Simple_types@D@std@@@0@AEBV10@@Z 0000000140000000     Storage.obj
 0003:fffad000       $cppxdata$??$addressof@$$CBV?$codecvt@DDU_Mbstatet@@@std@@@std@@YAPEBV?$codecvt@DDU_Mbstatet@@@0@AEBV10@@Z 0000000140000000     Storage.obj
 0003:fffad000       $cppxdata$??$addressof@PEAD@std@@YAPEAPEADAEAPEAD@Z 0000000140000000     Storage.obj
 0003:fffad000       $cppxdata$??$addressof@U_Container_base12@std@@@std@@YAPEAU_Container_base12@0@AEAU10@@Z 0000000140000000     Storage.obj
 0003:fffad000       $cppxdata$??$addressof@U_Container_proxy@std@@@std@@YAPEAU_Container_proxy@0@AEAU10@@Z 0000000140000000     Storage.obj
 0003:fffad000       $cppxdata$??$addressof@V?$_String_val@U?$_Simple_types@D@std@@@std@@@std@@YAPEAV?$_String_val@U?$_Simple_types@D@std@@@0@AEAV10@@Z 0000000140000000     Storage.obj
 0003:fffad000       $cppxdata$??$addressof@V?$basic_filebuf@DU?$char_traits@D@std@@@std@@@std@@YAPEAV?$basic_filebuf@DU?$char_traits@D@std@@@0@AEAV10@@Z 0000000140000000     Storage.obj
 0003:fffad000       $cppxdata$??$forward@AEAPEAV_Facet_base@std@@@std@@YAAEAPEAV_Facet_base@0@AEAPEAV10@@Z 0000000140000000     Storage.obj
 0003:fffad000       $cppxdata$??$forward@AEBQEAD@std@@YAAEBQEADAEBQEAD@Z 0000000140000000     Storage.obj
 0003:fffad000       $cppxdata$??$forward@PEAU_Container_base12@std@@@std@@YA$$QEAPEAU_Container_base12@0@AEAPEAU10@@Z 0000000140000000     Storage.obj
 0003:fffad000       $cppxdata$??$forward@V?$allocator@D@std@@@std@@YA$$QEAV?$allocator@D@0@AEAV10@@Z 0000000140000000     Storage.obj
 0003:fffad000       $cppxdata$??$getline@DU?$char_traits@D@std@@V?$allocator@D@2@@std@@YAAEAV?$basic_istream@DU?$char_traits@D@std@@@0@$$QEAV10@AEAV?$basic_string@DU?$char_traits@D@std@@V?$allocator@D@2@@0@D@Z 0000000140000000     Storage.obj
 0003:fffad000       $cppxdata$??$move@AEAV?$allocator@D@std@@@std@@YA$$QEAV?$allocator@D@0@AEAV10@@Z 0000000140000000     Storage.obj
 0003:fffad000       $cppxdata$??$move@AEAV?$basic_istream@DU?$char_traits@D@std@@@std@@@std@@YA$$QEAV?$basic_istream@DU?$char_traits@D@std@@@0@AEAV10@@Z 0000000140000000     Storage.obj
 0003:fffad000       $cppxdata$??$use_facet@V?$codecvt@DDU_Mbstatet@@@std@@@std@@YAAEBV?$codecvt@DDU_Mbstatet@@@0@AEBVlocale@0@@Z 0000000140000000     Storage.obj
 0003:fffad000       $cppxdata$??$use_facet@V?$time_put@DV?$ostreambuf_iterator@DU?$char_traits@D@std@@@std@@@std@@@std@@YAAEBV?$time_put@DV?$ostreambuf_iterator@DU?$char_traits@D@std@@@std@@@0@AEBVlocale@0@@Z 0000000140000000     Storage.obj
 0003:fffad000       $cppxdata$??0?$allocator@D@std@@QEAA@XZ 0000000140000000     Storage.obj
 0003:fffad000       $cppxdata$??0?$basic_filebuf@DU?$char_traits@D@std@@@std@@QEAA@PEAU_iobuf@@@Z 0000000140000000     Storage.obj
 0003:fffad000       $cppxdata$??0?$basic_ifstream@DU?$char_traits@D@std@@@std@@QEAA@PEBDHH@Z 0000000140000000     Storage.obj
 0003:fffad000       $cppxdata$??0?$basic_string@DU?$char_traits@D@std@@V?$allocator@D@2@@std@@QEAA@$$QEAV01@@Z 0000000140000000     Storage.obj
 0003:fffad000       $cppxdata$??0?$basic_string@DU?$char_traits@D@std@@V?$allocator@D@2@@std@@QEAA@AEBV01@@Z 0000000140000000     Storage.obj
 0003:fffad000       $cppxdata$??0?$basic_string@DU?$char_traits@D@std@@V?$allocator@D@2@@std@@QEAA@QEBD@Z 0000000140000000     Storage.obj
 0003:fffad000       $cppxdata$??0?$basic_string@DU?$char_traits@D@std@@V?$allocator@D@2@@std@@QEAA@XZ 0000000140000000     Storage.obj
 0003:fffad000       $cppxdata$??0?$ostreambuf_iterator@DU?$char_traits@D@std@@@std@@QEAA@PEAV?$basic_streambuf@DU?$char_traits@D@std@@@1@@Z 0000000140000000     Storage.obj
 0003:fffad000       $cppxdata$??0?$time_point@Usystem_clock@chrono@std@@V?$duration@_JU?$ratio@$00$0JIJGIA@@std@@@23@@chrono@std@@QEAA@AEBV?$duration@_JU?$ratio@$00$0JIJGIA@@std@@@12@@Z 0000000140000000     Storage.obj
 0003:fffad000       $cppxdata$??0SimpleLogger@Logging@technical_services_layer@@QEAA@AEAV?$basic_ostream@DU?$char_traits@D@std@@@std@@@Z 0000000140000000     Storage.obj
 0003:fffad000       $cppxdata$??0_Container_proxy@std@@QEAA@PEAU_Container_base12@1@@Z 0000000140000000     Storage.obj
 0003:fffad000       $cppxdata$??0_Iterator_base12@std@@QEAA@AEBU01@@Z 0000000140000000     Storage.obj
 0003:fffad000       $cppxdata$??0_Iterator_base12@std@@QEAA@XZ 0000000140000000     Storage.obj
 0003:fffad000       $cppxdata$??0bad_alloc@std@@AEAA@QEBD@Z 0000000140000000     Storage.obj
 0003:fffad000       $cppxdata$??0bad_array_new_length@std@@QEAA@XZ 0000000140000000     Storage.obj
 0003:fffad000       $cppxdata$??0bad_cast@std@@QEAA@XZ 0000000140000000     Storage.obj
 0003:fffad000       $cppxdata$??0exception@std@@QEAA@AEBV01@@Z 0000000140000000     Storage.obj
 0003:fffad000       $cppxdata$??0exception@std@@QEAA@QEBDH@Z 0000000140000000     Storage.obj
 0003:fffad000       $cppxdata$??0sentry@?$basic_istream@DU?$char_traits@D@std@@@std@@QEAA@AEAV12@_N@Z 0000000140000000     Storage.obj
 0003:fffad000       $cppxdata$??0sentry@?$basic_ostream@DU?$char_traits@D@std@@@std@@QEAA@AEAV12@@Z 0000000140000000     Storage.obj
 0003:fffad000       $cppxdata$??1?$_Container_proxy_ptr12@V?$allocator@U_Container_proxy@std@@@std@@@std@@QEAA@XZ 0000000140000000     Storage.obj
 0003:fffad000       $cppxdata$??1?$basic_filebuf@DU?$char_traits@D@std@@@std@@UEAA@XZ 0000000140000000     Storage.obj
 0003:fffad000       $cppxdata$??1?$basic_ifstream@DU?$char_traits@D@std@@@std@@UEAA@XZ 0000000140000000     Storage.obj
 0003:fffad000       $cppxdata$??1?$basic_string@DU?$char_traits@D@std@@V?$allocator@D@2@@std@@QEAA@XZ 0000000140000000     Storage.obj
 0003:fffad000       $cppxdata$??1?$unique_ptr@V_Facet_base@std@@U?$default_delete@V_Facet_base@std@@@2@@std@@QEAA@XZ 0000000140000000     Storage.obj
 0003:fffad000       $cppxdata$??1LoggerHandler@Logging@technical_services_layer@@UEAA@XZ 0000000140000000     Storage.obj
 0003:fffad000       $cppxdata$??1SimpleLogger@Logging@technical_services_layer@@UEAA@XZ 0000000140000000     Storage.obj
 0003:fffad000       $cppxdata$??1_Bxty@?$_String_val@U?$_Simple_types@D@std@@@std@@QEAA@XZ 0000000140000000     Storage.obj
 0003:fffad000       $cppxdata$??1_Iterator_base12@std@@QEAA@XZ 0000000140000000     Storage.obj
 0003:fffad000       $cppxdata$??1_Sentry_base@?$basic_istream@DU?$char_traits@D@std@@@std@@QEAA@XZ 0000000140000000     Storage.obj
 0003:fffad000       $cppxdata$??1_Sentry_base@?$basic_ostream@DU?$char_traits@D@std@@@std@@QEAA@XZ 0000000140000000     Storage.obj
 0003:fffad000       $cppxdata$??1exception@std@@UEAA@XZ 0000000140000000     Storage.obj
 0003:fffad000       $cppxdata$??1locale@std@@QEAA@XZ 0000000140000000     Storage.obj
 0003:fffad000       $cppxdata$??1sentry@?$basic_ostream@DU?$char_traits@D@std@@@std@@QEAA@XZ 0000000140000000     Storage.obj
 0003:fffad000       $cppxdata$??2@YAPEAX_KPEAX@Z 0000000140000000     Storage.obj
 0003:fffad000       $cppxdata$??4_Iterator_base12@std@@QEAAAEAU01@AEBU01@@Z 0000000140000000     Storage.obj
 0003:fffad000       $cppxdata$??R?$default_delete@V_Facet_base@std@@@std@@QEBAXPEAV_Facet_base@1@@Z 0000000140000000     Storage.obj
 0003:fffad000       $cppxdata$?_Adopt@_Iterator_base12@std@@QEAAXPEBU_Container_base12@2@@Z 0000000140000000     Storage.obj
 0003:fffad000       $cppxdata$?_Calculate_growth@?$basic_string@DU?$char_traits@D@std@@V?$allocator@D@2@@std@@AEBA_K_K@Z 0000000140000000     Storage.obj
 0003:fffad000       $cppxdata$?_Calculate_growth@?$basic_string@DU?$char_traits@D@std@@V?$allocator@D@2@@std@@CA_K_K00@Z 0000000140000000     Storage.obj
 0003:fffad000       $cppxdata$?_Clamp_suffix_size@?$_String_val@U?$_Simple_types@D@std@@@std@@QEBA_K_K0@Z 0000000140000000     Storage.obj
 0003:fffad000       $cppxdata$?_Equal@?$basic_string@DU?$char_traits@D@std@@V?$allocator@D@2@@std@@QEBA_NQEBD@Z 0000000140000000     Storage.obj
 0003:fffad000       $cppxdata$?_Get_first@?$_Compressed_pair@U?$default_delete@V_Facet_base@std@@@std@@PEAV_Facet_base@2@$00@std@@QEAAAEAU?$default_delete@V_Facet_base@std@@@2@XZ 0000000140000000     Storage.obj
 0003:fffad000       $cppxdata$?_Get_first@?$_Compressed_pair@V?$allocator@D@std@@V?$_String_val@U?$_Simple_types@D@std@@@2@$00@std@@QEAAAEAV?$allocator@D@2@XZ 0000000140000000     Storage.obj
 0003:fffad000       $cppxdata$?_Get_first@?$_Compressed_pair@V?$allocator@D@std@@V?$_String_val@U?$_Simple_types@D@std@@@2@$00@std@@QEBAAEBV?$allocator@D@2@XZ 0000000140000000     Storage.obj
 0003:fffad000       $cppxdata$?_Getal@?$basic_string@DU?$char_traits@D@std@@V?$allocator@D@2@@std@@AEAAAEAV?$allocator@D@2@XZ 0000000140000000     Storage.obj
 0003:fffad000       $cppxdata$?_Getal@?$basic_string@DU?$char_traits@D@std@@V?$allocator@D@2@@std@@AEBAAEBV?$allocator@D@2@XZ 0000000140000000     Storage.obj
 0003:fffad000       $cppxdata$?_Getcont@_Iterator_base12@std@@QEBAPEBU_Container_base12@2@XZ 0000000140000000     Storage.obj
 0003:fffad000       $cppxdata$?_Memcpy_val_from@?$basic_string@DU?$char_traits@D@std@@V?$allocator@D@2@@std@@AEAAXAEBV12@@Z 0000000140000000     Storage.obj
 0003:fffad000       $cppxdata$?_Orphan_all@_Container_base12@std@@QEAAXXZ 0000000140000000     Storage.obj
 0003:fffad000       $cppxdata$?_Orphan_me@_Iterator_base12@std@@QEAAXXZ 0000000140000000     Storage.obj
 0003:fffad000       $cppxdata$?_Release@_Basic_container_proxy_ptr12@std@@QEAAXXZ 0000000140000000     Storage.obj
 0003:fffad000       $cppxdata$?_Swap_proxy_and_iterators@_Container_base12@std@@QEAAXAEAU12@@Z 0000000140000000     Storage.obj
 0003:fffad000       $cppxdata$?_Take_contents@?$basic_string@DU?$char_traits@D@std@@V?$allocator@D@2@@std@@AEAAXAEAV12@U?$integral_constant@_N$00@2@@Z 0000000140000000     Storage.obj
 0003:fffad000       $cppxdata$?_Tidy_deallocate@?$basic_string@DU?$char_traits@D@std@@V?$allocator@D@2@@std@@AEAAXXZ 0000000140000000     Storage.obj
 0003:fffad000       $cppxdata$?_Tidy_init@?$basic_string@DU?$char_traits@D@std@@V?$allocator@D@2@@std@@AEAAXXZ 0000000140000000     Storage.obj
 0003:fffad000       $cppxdata$?__empty_global_delete@@YAXPEAX@Z 0000000140000000     Storage.obj
 0003:fffad000       $cppxdata$?__empty_global_delete@@YAXPEAXW4align_val_t@std@@@Z 0000000140000000     Storage.obj
 0003:fffad000       $cppxdata$?__empty_global_delete@@YAXPEAX_K@Z 0000000140000000     Storage.obj
 0003:fffad000       $cppxdata$?__empty_global_delete@@YAXPEAX_KW4align_val_t@std@@@Z 0000000140000000     Storage.obj
 0003:fffad000       $cppxdata$?assign@?$_Narrow_char_traits@DH@std@@SAXAEADAEBD@Z 0000000140000000     Storage.obj
 0003:fffad000       $cppxdata$?c_str@?$basic_string@DU?$char_traits@D@std@@V?$allocator@D@2@@std@@QEBAPEBDXZ 0000000140000000     Storage.obj
 0003:fffad000       $cppxdata$?compare@?$_Narrow_char_traits@DH@std@@SAHQEBD0_K@Z 0000000140000000     Storage.obj
 0003:fffad000       $cppxdata$?copy@?$_Narrow_char_traits@DH@std@@SAPEADQEADQEBD_K@Z 0000000140000000     Storage.obj
 0003:fffad000       $cppxdata$?count@?$duration@_JU?$ratio@$00$0JIJGIA@@std@@@chrono@std@@QEBA_JXZ 0000000140000000     Storage.obj
 0003:fffad000       $cppxdata$?data@?$basic_string@DU?$char_traits@D@std@@V?$allocator@D@2@@std@@QEAAPEADXZ 0000000140000000     Storage.obj
 0003:fffad000       $cppxdata$?data@?$basic_string@DU?$char_traits@D@std@@V?$allocator@D@2@@std@@QEBAPEBDXZ 0000000140000000     Storage.obj
 0003:fffad000       $cppxdata$?eof@?$_Narrow_char_traits@DH@std@@SAHXZ 0000000140000000     Storage.obj
 0003:fffad000       $cppxdata$?eq_int_type@?$_Narrow_char_traits@DH@std@@SA_NAEBH0@Z 0000000140000000     Storage.obj
 0003:fffad000       $cppxdata$?failed@?$ostreambuf_iterator@DU?$char_traits@D@std@@@std@@QEBA_NXZ 0000000140000000     Storage.obj
 0003:fffad000       $cppxdata$?length@?$_Narrow_char_traits@DH@std@@SA_KQEBD@Z 0000000140000000     Storage.obj
 0003:fffad000       $cppxdata$?max@?$numeric_limits@_J@std@@SA_JXZ 0000000140000000     Storage.obj
 0003:fffad000       $cppxdata$?max_size@?$_Default_allocator_traits@V?$allocator@D@std@@@std@@SA_KAEBV?$allocator@D@2@@Z 0000000140000000     Storage.obj
 0003:fffad000       $cppxdata$?max_size@?$basic_string@DU?$char_traits@D@std@@V?$allocator@D@2@@std@@QEBA_KXZ 0000000140000000     Storage.obj
 0003:fffad000       $cppxdata$?move@?$_Narrow_char_traits@DH@std@@SAPEADQEADQEBD_K@Z 0000000140000000     Storage.obj
 0003:fffad000       $cppxdata$?not_eof@?$_Narrow_char_traits@DH@std@@SAHAEBH@Z 0000000140000000     Storage.obj
 0003:fffad000       $cppxdata$?now@system_clock@chrono@std@@SA?AV?$time_point@Usystem_clock@chrono@std@@V?$duration@_JU?$ratio@$00$0JIJGIA@@std@@@23@@23@XZ 0000000140000000     Storage.obj
 0003:fffad000       $cppxdata$?open@?$basic_filebuf@DU?$char_traits@D@std@@@std@@QEAAPEAV12@PEBDHH@Z 0000000140000000     Storage.obj
 0003:fffad000       $cppxdata$?release@?$unique_ptr@V_Facet_base@std@@U?$default_delete@V_Facet_base@std@@@2@@std@@QEAAPEAV_Facet_base@2@XZ 0000000140000000     Storage.obj
 0003:fffad000       $cppxdata$?size@?$basic_string@DU?$char_traits@D@std@@V?$allocator@D@2@@std@@QEBA_KXZ 0000000140000000     Storage.obj
 0003:fffad000       $cppxdata$?time_since_epoch@?$time_point@Usystem_clock@chrono@std@@V?$duration@_JU?$ratio@$00$0JIJGIA@@std@@@23@@chrono@std@@QEBA?AV?$duration@_JU?$ratio@$00$0JIJGIA@@std@@@23@XZ 0000000140000000     Storage.obj
 0003:fffad000       $cppxdata$?to_char_type@?$_Narrow_char_traits@DH@std@@SADAEBH@Z 0000000140000000     Storage.obj
 0003:fffad000       $cppxdata$?to_int_type@?$_Narrow_char_traits@DH@std@@SAHAEBD@Z 0000000140000000     Storage.obj
 0003:fffad000       $cppxdata$?to_time_t@system_clock@chrono@std@@SA_JAEBV?$time_point@Usystem_clock@chrono@std@@V?$duration@_JU?$ratio@$00$0JIJGIA@@std@@@23@@23@@Z 0000000140000000     Storage.obj
 0003:fffad000       $cppxdata$?uflow@?$basic_filebuf@DU?$char_traits@D@std@@@std@@MEAAHXZ 0000000140000000     Storage.obj
 0003:fffad000       $handlerMap$??$?6DU?$char_traits@D@std@@D@std@@YAAEAV?$basic_ostream@DU?$char_traits@D@std@@@0@AEAV10@AEBU?$_Timeobj@DPEBUtm@@@0@@Z 0000000140000000     Storage.obj
 0003:fffad000       $handlerMap$??$?6U?$char_traits@D@std@@@std@@YAAEAV?$basic_ostream@DU?$char_traits@D@std@@@0@AEAV10@D@Z 0000000140000000     Storage.obj
 0003:fffad000       $handlerMap$??$?6U?$char_traits@D@std@@@std@@YAAEAV?$basic_ostream@DU?$char_traits@D@std@@@0@AEAV10@PEBD@Z 0000000140000000     Storage.obj
 0003:fffad000       $handlerMap$??$_Insert_string@DU?$char_traits@D@std@@_K@std@@YAAEAV?$basic_ostream@DU?$char_traits@D@std@@@0@AEAV10@QEBD_K@Z 0000000140000000     Storage.obj
 0003:fffad000       $handlerMap$??$getline@DU?$char_traits@D@std@@V?$allocator@D@2@@std@@YAAEAV?$basic_istream@DU?$char_traits@D@std@@@0@$$QEAV10@AEAV?$basic_string@DU?$char_traits@D@std@@V?$allocator@D@2@@0@D@Z 0000000140000000     Storage.obj
 0003:fffad000       $ip2state$??$?0D@?$allocator@U_Container_proxy@std@@@std@@QEAA@AEBV?$allocator@D@1@@Z 0000000140000000     Storage.obj
 0003:fffad000       $ip2state$??$?0U?$default_delete@V_Facet_base@std@@@std@@$0A@@?$unique_ptr@V_Facet_base@std@@U?$default_delete@V_Facet_base@std@@@2@@std@@QEAA@PEAV_Facet_base@1@@Z 0000000140000000     Storage.obj
 0003:fffad000       $ip2state$??$?0_JX@?$duration@_JU?$ratio@$00$0JIJGIA@@std@@@chrono@std@@QEAA@AEB_J@Z 0000000140000000     Storage.obj
 0003:fffad000       $ip2state$??$?6DU?$char_traits@D@std@@D@std@@YAAEAV?$basic_ostream@DU?$char_traits@D@std@@@0@AEAV10@AEBU?$_Timeobj@DPEBUtm@@@0@@Z 0000000140000000     Storage.obj
 0003:fffad000       $ip2state$??$?6U?$char_traits@D@std@@@std@@YAAEAV?$basic_ostream@DU?$char_traits@D@std@@@0@AEAV10@D@Z 0000000140000000     Storage.obj
 0003:fffad000       $ip2state$??$?6U?$char_traits@D@std@@@std@@YAAEAV?$basic_ostream@DU?$char_traits@D@std@@@0@AEAV10@PEBD@Z 0000000140000000     Storage.obj
 0003:fffad000       $ip2state$??$_Construct_in_place@PEADAEBQEAD@std@@YAXAEAPEADAEBQEAD@Z 0000000140000000     Storage.obj
 0003:fffad000       $ip2state$??$_Construct_in_place@U_Container_proxy@std@@PEAU_Container_base12@2@@std@@YAXAEAU_Container_proxy@0@$$QEAPEAU_Container_base12@0@@Z 0000000140000000     Storage.obj
 0003:fffad000       $ip2state$??$_Convert_size@_K@std@@YA_K_K@Z 0000000140000000     Storage.obj
 0003:fffad000       $ip2state$??$_Deallocate@$0BA@$0A@@std@@YAXPEAX_K@Z 0000000140000000     Storage.obj
 0003:fffad000       $ip2state$??$_Deallocate_plain@V?$allocator@U_Container_proxy@std@@@std@@@std@@YAXAEAV?$allocator@U_Container_proxy@std@@@0@QEAU_Container_proxy@0@@Z 0000000140000000     Storage.obj
 0003:fffad000       $ip2state$??$_Delete_plain_internal@V?$allocator@U_Container_proxy@std@@@std@@@std@@YAXAEAV?$allocator@U_Container_proxy@std@@@0@QEAU_Container_proxy@0@@Z 0000000140000000     Storage.obj
 0003:fffad000       $ip2state$??$_Destroy_in_place@PEAD@std@@YAXAEAPEAD@Z 0000000140000000     Storage.obj
 0003:fffad000       $ip2state$??$_Insert_string@DU?$char_traits@D@std@@_K@std@@YAAEAV?$basic_ostream@DU?$char_traits@D@std@@@0@AEAV10@QEBD_K@Z 0000000140000000     Storage.obj
 0003:fffad000       $ip2state$??$_Max_value@_K@std@@YAAEB_KAEB_K0@Z 0000000140000000     Storage.obj
 0003:fffad000       $ip2state$??$_Min_value@_K@std@@YAAEB_KAEB_K0@Z 0000000140000000     Storage.obj
 0003:fffad000       $ip2state$??$_Traits_equal@U?$char_traits@D@std@@@std@@YA_NQEBD_K01@Z 0000000140000000     Storage.obj
 0003:fffad000       $ip2state$??$addressof@$$CBV?$_String_val@U?$_Simple_types@D@std@@@std@@@std@@YAPEBV?$_String_val@U?$_Simple_types@D@std@@@0@AEBV10@@Z 0000000140000000     Storage.obj
 0003:fffad000       $ip2state$??$addressof@$$CBV?$codecvt@DDU_Mbstatet@@@std@@@std@@YAPEBV?$codecvt@DDU_Mbstatet@@@0@AEBV10@@Z 0000000140000000     Storage.obj
 0003:fffad000       $ip2state$??$addressof@PEAD@std@@YAPEAPEADAEAPEAD@Z 0000000140000000     Storage.obj
 0003:fffad000       $ip2state$??$addressof@U_Container_base12@std@@@std@@YAPEAU_Container_base12@0@AEAU10@@Z 0000000140000000     Storage.obj
 0003:fffad000       $ip2state$??$addressof@U_Container_proxy@std@@@std@@YAPEAU_Container_proxy@0@AEAU10@@Z 0000000140000000     Storage.obj
 0003:fffad000       $ip2state$??$addressof@V?$_String_val@U?$_Simple_types@D@std@@@std@@@std@@YAPEAV?$_String_val@U?$_Simple_types@D@std@@@0@AEAV10@@Z 0000000140000000     Storage.obj
 0003:fffad000       $ip2state$??$addressof@V?$basic_filebuf@DU?$char_traits@D@std@@@std@@@std@@YAPEAV?$basic_filebuf@DU?$char_traits@D@std@@@0@AEAV10@@Z 0000000140000000     Storage.obj
 0003:fffad000       $ip2state$??$forward@AEAPEAV_Facet_base@std@@@std@@YAAEAPEAV_Facet_base@0@AEAPEAV10@@Z 0000000140000000     Storage.obj
 0003:fffad000       $ip2state$??$forward@AEBQEAD@std@@YAAEBQEADAEBQEAD@Z 0000000140000000     Storage.obj
 0003:fffad000       $ip2state$??$forward@PEAU_Container_base12@std@@@std@@YA$$QEAPEAU_Container_base12@0@AEAPEAU10@@Z 0000000140000000     Storage.obj
 0003:fffad000       $ip2state$??$forward@V?$allocator@D@std@@@std@@YA$$QEAV?$allocator@D@0@AEAV10@@Z 0000000140000000     Storage.obj
 0003:fffad000       $ip2state$??$getline@DU?$char_traits@D@std@@V?$allocator@D@2@@std@@YAAEAV?$basic_istream@DU?$char_traits@D@std@@@0@$$QEAV10@AEAV?$basic_string@DU?$char_traits@D@std@@V?$allocator@D@2@@0@D@Z 0000000140000000     Storage.obj
 0003:fffad000       $ip2state$??$move@AEAV?$allocator@D@std@@@std@@YA$$QEAV?$allocator@D@0@AEAV10@@Z 0000000140000000     Storage.obj
 0003:fffad000       $ip2state$??$move@AEAV?$basic_istream@DU?$char_traits@D@std@@@std@@@std@@YA$$QEAV?$basic_istream@DU?$char_traits@D@std@@@0@AEAV10@@Z 0000000140000000     Storage.obj
 0003:fffad000       $ip2state$??$use_facet@V?$codecvt@DDU_Mbstatet@@@std@@@std@@YAAEBV?$codecvt@DDU_Mbstatet@@@0@AEBVlocale@0@@Z 0000000140000000     Storage.obj
 0003:fffad000       $ip2state$??$use_facet@V?$time_put@DV?$ostreambuf_iterator@DU?$char_traits@D@std@@@std@@@std@@@std@@YAAEBV?$time_put@DV?$ostreambuf_iterator@DU?$char_traits@D@std@@@std@@@0@AEBVlocale@0@@Z 0000000140000000     Storage.obj
 0003:fffad000       $ip2state$??0?$allocator@D@std@@QEAA@XZ 0000000140000000     Storage.obj
 0003:fffad000       $ip2state$??0?$basic_filebuf@DU?$char_traits@D@std@@@std@@QEAA@PEAU_iobuf@@@Z 0000000140000000     Storage.obj
 0003:fffad000       $ip2state$??0?$basic_ifstream@DU?$char_traits@D@std@@@std@@QEAA@PEBDHH@Z 0000000140000000     Storage.obj
 0003:fffad000       $ip2state$??0?$basic_string@DU?$char_traits@D@std@@V?$allocator@D@2@@std@@QEAA@$$QEAV01@@Z 0000000140000000     Storage.obj
 0003:fffad000       $ip2state$??0?$basic_string@DU?$char_traits@D@std@@V?$allocator@D@2@@std@@QEAA@AEBV01@@Z 0000000140000000     Storage.obj
 0003:fffad000       $ip2state$??0?$basic_string@DU?$char_traits@D@std@@V?$allocator@D@2@@std@@QEAA@QEBD@Z 0000000140000000     Storage.obj
 0003:fffad000       $ip2state$??0?$basic_string@DU?$char_traits@D@std@@V?$allocator@D@2@@std@@QEAA@XZ 0000000140000000     Storage.obj
 0003:fffad000       $ip2state$??0?$ostreambuf_iterator@DU?$char_traits@D@std@@@std@@QEAA@PEAV?$basic_streambuf@DU?$char_traits@D@std@@@1@@Z 0000000140000000     Storage.obj
 0003:fffad000       $ip2state$??0?$time_point@Usystem_clock@chrono@std@@V?$duration@_JU?$ratio@$00$0JIJGIA@@std@@@23@@chrono@std@@QEAA@AEBV?$duration@_JU?$ratio@$00$0JIJGIA@@std@@@12@@Z 0000000140000000     Storage.obj
 0003:fffad000       $ip2state$??0SimpleLogger@Logging@technical_services_layer@@QEAA@AEAV?$basic_ostream@DU?$char_traits@D@std@@@std@@@Z 0000000140000000     Storage.obj
 0003:fffad000       $ip2state$??0_Container_proxy@std@@QEAA@PEAU_Container_base12@1@@Z 0000000140000000     Storage.obj
 0003:fffad000       $ip2state$??0_Iterator_base12@std@@QEAA@AEBU01@@Z 0000000140000000     Storage.obj
 0003:fffad000       $ip2state$??0_Iterator_base12@std@@QEAA@XZ 0000000140000000     Storage.obj
 0003:fffad000       $ip2state$??0bad_alloc@std@@AEAA@QEBD@Z 0000000140000000     Storage.obj
 0003:fffad000       $ip2state$??0bad_array_new_length@std@@QEAA@XZ 0000000140000000     Storage.obj
 0003:fffad000       $ip2state$??0bad_cast@std@@QEAA@XZ 0000000140000000     Storage.obj
 0003:fffad000       $ip2state$??0exception@std@@QEAA@AEBV01@@Z 0000000140000000     Storage.obj
 0003:fffad000       $ip2state$??0exception@std@@QEAA@QEBDH@Z 0000000140000000     Storage.obj
 0003:fffad000       $ip2state$??0sentry@?$basic_istream@DU?$char_traits@D@std@@@std@@QEAA@AEAV12@_N@Z 0000000140000000     Storage.obj
 0003:fffad000       $ip2state$??0sentry@?$basic_ostream@DU?$char_traits@D@std@@@std@@QEAA@AEAV12@@Z 0000000140000000     Storage.obj
 0003:fffad000       $ip2state$??1?$_Container_proxy_ptr12@V?$allocator@U_Container_proxy@std@@@std@@@std@@QEAA@XZ 0000000140000000     Storage.obj
 0003:fffad000       $ip2state$??1?$basic_filebuf@DU?$char_traits@D@std@@@std@@UEAA@XZ 0000000140000000     Storage.obj
 0003:fffad000       $ip2state$??1?$basic_ifstream@DU?$char_traits@D@std@@@std@@UEAA@XZ 0000000140000000     Storage.obj
 0003:fffad000       $ip2state$??1?$basic_string@DU?$char_traits@D@std@@V?$allocator@D@2@@std@@QEAA@XZ 0000000140000000     Storage.obj
 0003:fffad000       $ip2state$??1?$unique_ptr@V_Facet_base@std@@U?$default_delete@V_Facet_base@std@@@2@@std@@QEAA@XZ 0000000140000000     Storage.obj
 0003:fffad000       $ip2state$??1LoggerHandler@Logging@technical_services_layer@@UEAA@XZ 0000000140000000     Storage.obj
 0003:fffad000       $ip2state$??1SimpleLogger@Logging@technical_services_layer@@UEAA@XZ 0000000140000000     Storage.obj
 0003:fffad000       $ip2state$??1_Bxty@?$_String_val@U?$_Simple_types@D@std@@@std@@QEAA@XZ 0000000140000000     Storage.obj
 0003:fffad000       $ip2state$??1_Iterator_base12@std@@QEAA@XZ 0000000140000000     Storage.obj
 0003:fffad000       $ip2state$??1_Sentry_base@?$basic_istream@DU?$char_traits@D@std@@@std@@QEAA@XZ 0000000140000000     Storage.obj
 0003:fffad000       $ip2state$??1_Sentry_base@?$basic_ostream@DU?$char_traits@D@std@@@std@@QEAA@XZ 0000000140000000     Storage.obj
 0003:fffad000       $ip2state$??1exception@std@@UEAA@XZ 0000000140000000     Storage.obj
 0003:fffad000       $ip2state$??1locale@std@@QEAA@XZ 0000000140000000     Storage.obj
 0003:fffad000       $ip2state$??1sentry@?$basic_ostream@DU?$char_traits@D@std@@@std@@QEAA@XZ 0000000140000000     Storage.obj
 0003:fffad000       $ip2state$??2@YAPEAX_KPEAX@Z 0000000140000000     Storage.obj
 0003:fffad000       $ip2state$??4_Iterator_base12@std@@QEAAAEAU01@AEBU01@@Z 0000000140000000     Storage.obj
 0003:fffad000       $ip2state$??R?$default_delete@V_Facet_base@std@@@std@@QEBAXPEAV_Facet_base@1@@Z 0000000140000000     Storage.obj
 0003:fffad000       $ip2state$?_Adopt@_Iterator_base12@std@@QEAAXPEBU_Container_base12@2@@Z 0000000140000000     Storage.obj
 0003:fffad000       $ip2state$?_Calculate_growth@?$basic_string@DU?$char_traits@D@std@@V?$allocator@D@2@@std@@AEBA_K_K@Z 0000000140000000     Storage.obj
 0003:fffad000       $ip2state$?_Calculate_growth@?$basic_string@DU?$char_traits@D@std@@V?$allocator@D@2@@std@@CA_K_K00@Z 0000000140000000     Storage.obj
 0003:fffad000       $ip2state$?_Clamp_suffix_size@?$_String_val@U?$_Simple_types@D@std@@@std@@QEBA_K_K0@Z 0000000140000000     Storage.obj
 0003:fffad000       $ip2state$?_Equal@?$basic_string@DU?$char_traits@D@std@@V?$allocator@D@2@@std@@QEBA_NQEBD@Z 0000000140000000     Storage.obj
 0003:fffad000       $ip2state$?_Get_first@?$_Compressed_pair@U?$default_delete@V_Facet_base@std@@@std@@PEAV_Facet_base@2@$00@std@@QEAAAEAU?$default_delete@V_Facet_base@std@@@2@XZ 0000000140000000     Storage.obj
 0003:fffad000       $ip2state$?_Get_first@?$_Compressed_pair@V?$allocator@D@std@@V?$_String_val@U?$_Simple_types@D@std@@@2@$00@std@@QEAAAEAV?$allocator@D@2@XZ 0000000140000000     Storage.obj
 0003:fffad000       $ip2state$?_Get_first@?$_Compressed_pair@V?$allocator@D@std@@V?$_String_val@U?$_Simple_types@D@std@@@2@$00@std@@QEBAAEBV?$allocator@D@2@XZ 0000000140000000     Storage.obj
 0003:fffad000       $ip2state$?_Getal@?$basic_string@DU?$char_traits@D@std@@V?$allocator@D@2@@std@@AEAAAEAV?$allocator@D@2@XZ 0000000140000000     Storage.obj
 0003:fffad000       $ip2state$?_Getal@?$basic_string@DU?$char_traits@D@std@@V?$allocator@D@2@@std@@AEBAAEBV?$allocator@D@2@XZ 0000000140000000     Storage.obj
 0003:fffad000       $ip2state$?_Getcont@_Iterator_base12@std@@QEBAPEBU_Container_base12@2@XZ 0000000140000000     Storage.obj
 0003:fffad000       $ip2state$?_Memcpy_val_from@?$basic_string@DU?$char_traits@D@std@@V?$allocator@D@2@@std@@AEAAXAEBV12@@Z 0000000140000000     Storage.obj
 0003:fffad000       $ip2state$?_Orphan_all@_Container_base12@std@@QEAAXXZ 0000000140000000     Storage.obj
 0003:fffad000       $ip2state$?_Orphan_me@_Iterator_base12@std@@QEAAXXZ 0000000140000000     Storage.obj
 0003:fffad000       $ip2state$?_Release@_Basic_container_proxy_ptr12@std@@QEAAXXZ 0000000140000000     Storage.obj
 0003:fffad000       $ip2state$?_Swap_proxy_and_iterators@_Container_base12@std@@QEAAXAEAU12@@Z 0000000140000000     Storage.obj
 0003:fffad000       $ip2state$?_Take_contents@?$basic_string@DU?$char_traits@D@std@@V?$allocator@D@2@@std@@AEAAXAEAV12@U?$integral_constant@_N$00@2@@Z 0000000140000000     Storage.obj
 0003:fffad000       $ip2state$?_Tidy_deallocate@?$basic_string@DU?$char_traits@D@std@@V?$allocator@D@2@@std@@AEAAXXZ 0000000140000000     Storage.obj
 0003:fffad000       $ip2state$?_Tidy_init@?$basic_string@DU?$char_traits@D@std@@V?$allocator@D@2@@std@@AEAAXXZ 0000000140000000     Storage.obj
 0003:fffad000       $ip2state$?__empty_global_delete@@YAXPEAX@Z 0000000140000000     Storage.obj
 0003:fffad000       $ip2state$?__empty_global_delete@@YAXPEAXW4align_val_t@std@@@Z 0000000140000000     Storage.obj
 0003:fffad000       $ip2state$?__empty_global_delete@@YAXPEAX_K@Z 0000000140000000     Storage.obj
 0003:fffad000       $ip2state$?__empty_global_delete@@YAXPEAX_KW4align_val_t@std@@@Z 0000000140000000     Storage.obj
 0003:fffad000       $ip2state$?assign@?$_Narrow_char_traits@DH@std@@SAXAEADAEBD@Z 0000000140000000     Storage.obj
 0003:fffad000       $ip2state$?c_str@?$basic_string@DU?$char_traits@D@std@@V?$allocator@D@2@@std@@QEBAPEBDXZ 0000000140000000     Storage.obj
 0003:fffad000       $ip2state$?compare@?$_Narrow_char_traits@DH@std@@SAHQEBD0_K@Z 0000000140000000     Storage.obj
 0003:fffad000       $ip2state$?copy@?$_Narrow_char_traits@DH@std@@SAPEADQEADQEBD_K@Z 0000000140000000     Storage.obj
 0003:fffad000       $ip2state$?count@?$duration@_JU?$ratio@$00$0JIJGIA@@std@@@chrono@std@@QEBA_JXZ 0000000140000000     Storage.obj
 0003:fffad000       $ip2state$?data@?$basic_string@DU?$char_traits@D@std@@V?$allocator@D@2@@std@@QEAAPEADXZ 0000000140000000     Storage.obj
 0003:fffad000       $ip2state$?data@?$basic_string@DU?$char_traits@D@std@@V?$allocator@D@2@@std@@QEBAPEBDXZ 0000000140000000     Storage.obj
 0003:fffad000       $ip2state$?eof@?$_Narrow_char_traits@DH@std@@SAHXZ 0000000140000000     Storage.obj
 0003:fffad000       $ip2state$?eq_int_type@?$_Narrow_char_traits@DH@std@@SA_NAEBH0@Z 0000000140000000     Storage.obj
 0003:fffad000       $ip2state$?failed@?$ostreambuf_iterator@DU?$char_traits@D@std@@@std@@QEBA_NXZ 0000000140000000     Storage.obj
 0003:fffad000       $ip2state$?length@?$_Narrow_char_traits@DH@std@@SA_KQEBD@Z 0000000140000000     Storage.obj
 0003:fffad000       $ip2state$?max@?$numeric_limits@_J@std@@SA_JXZ 0000000140000000     Storage.obj
 0003:fffad000       $ip2state$?max_size@?$_Default_allocator_traits@V?$allocator@D@std@@@std@@SA_KAEBV?$allocator@D@2@@Z 0000000140000000     Storage.obj
 0003:fffad000       $ip2state$?max_size@?$basic_string@DU?$char_traits@D@std@@V?$allocator@D@2@@std@@QEBA_KXZ 0000000140000000     Storage.obj
 0003:fffad000       $ip2state$?move@?$_Narrow_char_traits@DH@std@@SAPEADQEADQEBD_K@Z 0000000140000000     Storage.obj
 0003:fffad000       $ip2state$?not_eof@?$_Narrow_char_traits@DH@std@@SAHAEBH@Z 0000000140000000     Storage.obj
 0003:fffad000       $ip2state$?now@system_clock@chrono@std@@SA?AV?$time_point@Usystem_clock@chrono@std@@V?$duration@_JU?$ratio@$00$0JIJGIA@@std@@@23@@23@XZ 0000000140000000     Storage.obj
 0003:fffad000       $ip2state$?open@?$basic_filebuf@DU?$char_traits@D@std@@@std@@QEAAPEAV12@PEBDHH@Z 0000000140000000     Storage.obj
 0003:fffad000       $ip2state$?release@?$unique_ptr@V_Facet_base@std@@U?$default_delete@V_Facet_base@std@@@2@@std@@QEAAPEAV_Facet_base@2@XZ 0000000140000000     Storage.obj
 0003:fffad000       $ip2state$?size@?$basic_string@DU?$char_traits@D@std@@V?$allocator@D@2@@std@@QEBA_KXZ 0000000140000000     Storage.obj
 0003:fffad000       $ip2state$?time_since_epoch@?$time_point@Usystem_clock@chrono@std@@V?$duration@_JU?$ratio@$00$0JIJGIA@@std@@@23@@chrono@std@@QEBA?AV?$duration@_JU?$ratio@$00$0JIJGIA@@std@@@23@XZ 0000000140000000     Storage.obj
 0003:fffad000       $ip2state$?to_char_type@?$_Narrow_char_traits@DH@std@@SADAEBH@Z 0000000140000000     Storage.obj
 0003:fffad000       $ip2state$?to_int_type@?$_Narrow_char_traits@DH@std@@SAHAEBD@Z 0000000140000000     Storage.obj
 0003:fffad000       $ip2state$?to_time_t@system_clock@chrono@std@@SA_JAEBV?$time_point@Usystem_clock@chrono@std@@V?$duration@_JU?$ratio@$00$0JIJGIA@@std@@@23@@23@@Z 0000000140000000     Storage.obj
 0003:fffad000       $ip2state$?uflow@?$basic_filebuf@DU?$char_traits@D@std@@@std@@MEAAHXZ 0000000140000000     Storage.obj
 0005:fff98000       $pdata$??$?0$$V@?$_Compressed_pair@V?$allocator@D@std@@V?$_String_val@U?$_Simple_types@D@std@@@2@$00@std@@QEAA@U_Zero_then_variadic_args_t@1@@Z 0000000140000000     Storage.obj
 0005:fff98000       $pdata$??$?0AEAPEAV_Facet_base@std@@@?$_Compressed_pair@U?$default_delete@V_Facet_base@std@@@std@@PEAV_Facet_base@2@$00@std@@QEAA@U_Zero_then_variadic_args_t@1@AEAPEAV_Facet_base@1@@Z 0000000140000000     Storage.obj
 0005:fff98000       $pdata$??$?0D@?$allocator@U_Container_proxy@std@@@std@@QEAA@AEBV?$allocator@D@1@@Z 0000000140000000     Storage.obj
 0005:fff98000       $pdata$??$?0U?$default_delete@V_Facet_base@std@@@std@@$0A@@?$unique_ptr@V_Facet_base@std@@U?$default_delete@V_Facet_base@std@@@2@@std@@QEAA@PEAV_Facet_base@1@@Z 0000000140000000     Storage.obj
 0005:fff98000       $pdata$??$?0V?$allocator@D@std@@$$V@?$_Compressed_pair@V?$allocator@D@std@@V?$_String_val@U?$_Simple_types@D@std@@@2@$00@std@@QEAA@U_One_then_variadic_args_t@1@$$QEAV?$allocator@D@1@@Z 0000000140000000     Storage.obj
 0005:fff98000       $pdata$??$?0_JX@?$duration@_JU?$ratio@$00$0JIJGIA@@std@@@chrono@std@@QEAA@AEB_J@Z 0000000140000000     Storage.obj
 0005:fff98000       $pdata$??$?6DU?$char_traits@D@std@@D@std@@YAAEAV?$basic_ostream@DU?$char_traits@D@std@@@0@AEAV10@AEBU?$_Timeobj@DPEBUtm@@@0@@Z 0000000140000000     Storage.obj
 0005:fff98000       $pdata$??$?6DU?$char_traits@D@std@@V?$allocator@D@1@@std@@YAAEAV?$basic_ostream@DU?$char_traits@D@std@@@0@AEAV10@AEBV?$basic_string@DU?$char_traits@D@std@@V?$allocator@D@2@@0@@Z 0000000140000000     Storage.obj
 0005:fff98000       $pdata$??$?6U?$char_traits@D@std@@@std@@YAAEAV?$basic_ostream@DU?$char_traits@D@std@@@0@AEAV10@D@Z 0000000140000000     Storage.obj
 0005:fff98000       $pdata$??$?6U?$char_traits@D@std@@@std@@YAAEAV?$basic_ostream@DU?$char_traits@D@std@@@0@AEAV10@PEBD@Z 0000000140000000     Storage.obj
 0005:fff98000       $pdata$??$?8DU?$char_traits@D@std@@V?$allocator@D@1@@std@@YA_NAEBV?$basic_string@DU?$char_traits@D@std@@V?$allocator@D@2@@0@QEBD@Z 0000000140000000     Storage.obj
 0005:fff98000       $pdata$??$_Alloc_proxy@V?$allocator@U_Container_proxy@std@@@std@@@_Container_base12@std@@QEAAX$$QEAV?$allocator@U_Container_proxy@std@@@1@@Z 0000000140000000     Storage.obj
 0005:fff98000       $pdata$??$_Allocate@$0BA@U_Default_allocate_traits@std@@$0A@@std@@YAPEAX_K@Z 0000000140000000     Storage.obj
 0005:fff98000       $pdata$??$_Allocate_manually_vector_aligned@U_Default_allocate_traits@std@@@std@@YAPEAX_K@Z 0000000140000000     Storage.obj
 0005:fff98000       $pdata$??$_Construct_in_place@PEADAEBQEAD@std@@YAXAEAPEADAEBQEAD@Z 0000000140000000     Storage.obj
 0005:fff98000       $pdata$??$_Construct_in_place@U_Container_proxy@std@@PEAU_Container_base12@2@@std@@YAXAEAU_Container_proxy@0@$$QEAPEAU_Container_base12@0@@Z 0000000140000000     Storage.obj
 0005:fff98000       $pdata$??$_Convert_size@_K@std@@YA_K_K@Z 0000000140000000     Storage.obj
 0005:fff98000       $pdata$??$_Deallocate@$0BA@$0A@@std@@YAXPEAX_K@Z 0000000140000000     Storage.obj
 0005:fff98000       $pdata$??$_Deallocate_plain@V?$allocator@U_Container_proxy@std@@@std@@@std@@YAXAEAV?$allocator@U_Container_proxy@std@@@0@QEAU_Container_proxy@0@@Z 0000000140000000     Storage.obj
 0005:fff98000       $pdata$??$_Delete_plain_internal@V?$allocator@U_Container_proxy@std@@@std@@@std@@YAXAEAV?$allocator@U_Container_proxy@std@@@0@QEAU_Container_proxy@0@@Z 0000000140000000     Storage.obj
 0005:fff98000       $pdata$??$_Destroy_in_place@PEAD@std@@YAXAEAPEAD@Z 0000000140000000     Storage.obj
 0005:fff98000       $pdata$??$_Fgetc@D@std@@YA_NAEADPEAU_iobuf@@@Z 0000000140000000     Storage.obj
 0005:fff98000       $pdata$??$_Fputc@D@std@@YA_NDPEAU_iobuf@@@Z 0000000140000000     Storage.obj
 0005:fff98000       $pdata$??$_Get_size_of_n@$00@std@@YA_K_K@Z 0000000140000000     Storage.obj
 0005:fff98000       $pdata$??$_Get_size_of_n@$0BA@@std@@YA_K_K@Z 0000000140000000     Storage.obj
 0005:fff98000       $pdata$??$_Getvals@_W@?$time_get@DV?$istreambuf_iterator@DU?$char_traits@D@std@@@std@@@std@@IEAAX_WAEBV_Locinfo@1@@Z 0000000140000000     Storage.obj
 0005:fff98000       $pdata$??$_Getvals@_W@?$time_get@_WV?$istreambuf_iterator@_WU?$char_traits@_W@std@@@std@@@std@@IEAAX_WAEBV_Locinfo@1@@Z 0000000140000000     Storage.obj
 0005:fff98000       $pdata$??$_Insert_string@DU?$char_traits@D@std@@_K@std@@YAAEAV?$basic_ostream@DU?$char_traits@D@std@@@0@AEAV10@QEBD_K@Z 0000000140000000     Storage.obj
 0005:fff98000       $pdata$??$_Maklocstr@D@std@@YAPEADPEBDPEADAEBU_Cvtvec@@@Z 0000000140000000     Storage.obj
 0005:fff98000       $pdata$??$_Maklocstr@_W@std@@YAPEA_WPEBDPEA_WAEBU_Cvtvec@@@Z 0000000140000000     Storage.obj
 0005:fff98000       $pdata$??$_Max_value@_K@std@@YAAEB_KAEB_K0@Z 0000000140000000     Storage.obj
 0005:fff98000       $pdata$??$_Min_value@_K@std@@YAAEB_KAEB_K0@Z 0000000140000000     Storage.obj
 0005:fff98000       $pdata$??$_Reallocate_for@V<lambda_66f57f934f28d61049862f64df852ff0>@@PEBD@?$basic_string@DU?$char_traits@D@std@@V?$allocator@D@2@@std@@AEAAAEAV01@_KV<lambda_66f57f934f28d61049862f64df852ff0>@@PEBD@Z 0000000140000000     Storage.obj
 0005:fff98000       $pdata$??$_Reallocate_grow_by@V<lambda_319d5e083f45f90dcdce5dce53cbb275>@@D@?$basic_string@DU?$char_traits@D@std@@V?$allocator@D@2@@std@@AEAAAEAV01@_KV<lambda_319d5e083f45f90dcdce5dce53cbb275>@@D@Z 0000000140000000     Storage.obj
 0005:fff98000       $pdata$??$_Reallocate_grow_by@V<lambda_65e615be2a453ca0576c979606f46740>@@PEBD_K@?$basic_string@DU?$char_traits@D@std@@V?$allocator@D@2@@std@@AEAAAEAV01@_KV<lambda_65e615be2a453ca0576c979606f46740>@@PEBD_K@Z 0000000140000000     Storage.obj
 0005:fff98000       $pdata$??$_Traits_equal@U?$char_traits@D@std@@@std@@YA_NQEBD_K01@Z 0000000140000000     Storage.obj
 0005:fff98000       $pdata$??$_Unfancy@D@std@@YAPEADPEAD@Z 0000000140000000     Storage.obj
 0005:fff98000       $pdata$??$_Unfancy@U_Container_proxy@std@@@std@@YAPEAU_Container_proxy@0@PEAU10@@Z 0000000140000000     Storage.obj
 0005:fff98000       $pdata$??$_Ungetc@D@std@@YA_NAEBDPEAU_iobuf@@@Z 0000000140000000     Storage.obj
 0005:fff98000       $pdata$??$addressof@$$CBV?$_String_val@U?$_Simple_types@D@std@@@std@@@std@@YAPEBV?$_String_val@U?$_Simple_types@D@std@@@0@AEBV10@@Z 0000000140000000     Storage.obj
 0005:fff98000       $pdata$??$addressof@$$CBV?$codecvt@DDU_Mbstatet@@@std@@@std@@YAPEBV?$codecvt@DDU_Mbstatet@@@0@AEBV10@@Z 0000000140000000     Storage.obj
 0005:fff98000       $pdata$??$addressof@PEAD@std@@YAPEAPEADAEAPEAD@Z 0000000140000000     Storage.obj
 0005:fff98000       $pdata$??$addressof@U_Container_base12@std@@@std@@YAPEAU_Container_base12@0@AEAU10@@Z 0000000140000000     Storage.obj
 0005:fff98000       $pdata$??$addressof@U_Container_proxy@std@@@std@@YAPEAU_Container_proxy@0@AEAU10@@Z 0000000140000000     Storage.obj
 0005:fff98000       $pdata$??$addressof@V?$_String_val@U?$_Simple_types@D@std@@@std@@@std@@YAPEAV?$_String_val@U?$_Simple_types@D@std@@@0@AEAV10@@Z 0000000140000000     Storage.obj
 0005:fff98000       $pdata$??$addressof@V?$basic_filebuf@DU?$char_traits@D@std@@@std@@@std@@YAPEAV?$basic_filebuf@DU?$char_traits@D@std@@@0@AEAV10@@Z 0000000140000000     Storage.obj
 0005:fff98000       $pdata$??$endl@DU?$char_traits@D@std@@@std@@YAAEAV?$basic_ostream@DU?$char_traits@D@std@@@0@AEAV10@@Z 0000000140000000     Storage.obj
 0005:fff98000       $pdata$??$exchange@PEAU_Container_proxy@std@@$$T@std@@YAPEAU_Container_proxy@0@AEAPEAU10@$$QEA$$T@Z 0000000140000000     Storage.obj
 0005:fff98000       $pdata$??$exchange@PEAV_Facet_base@std@@PEAV12@@std@@YAPEAV_Facet_base@0@AEAPEAV10@$$QEAPEAV10@@Z 0000000140000000     Storage.obj
 0005:fff98000       $pdata$??$forward@AEAPEAV_Facet_base@std@@@std@@YAAEAPEAV_Facet_base@0@AEAPEAV10@@Z 0000000140000000     Storage.obj
 0005:fff98000       $pdata$??$forward@AEBQEAD@std@@YAAEBQEADAEBQEAD@Z 0000000140000000     Storage.obj
 0005:fff98000       $pdata$??$forward@PEAU_Container_base12@std@@@std@@YA$$QEAPEAU_Container_base12@0@AEAPEAU10@@Z 0000000140000000     Storage.obj
 0005:fff98000       $pdata$??$forward@V?$allocator@D@std@@@std@@YA$$QEAV?$allocator@D@0@AEAV10@@Z 0000000140000000     Storage.obj
 0005:fff98000       $pdata$??$getline@DU?$char_traits@D@std@@V?$allocator@D@2@@std@@YAAEAV?$basic_istream@DU?$char_traits@D@std@@@0@$$QEAV10@AEAV?$basic_string@DU?$char_traits@D@std@@V?$allocator@D@2@@0@D@Z 0000000140000000     Storage.obj
 0005:fff98000       $pdata$??$getline@DU?$char_traits@D@std@@V?$allocator@D@2@@std@@YAAEAV?$basic_istream@DU?$char_traits@D@std@@@0@AEAV10@AEAV?$basic_string@DU?$char_traits@D@std@@V?$allocator@D@2@@0@@Z 0000000140000000     Storage.obj
 0005:fff98000       $pdata$??$move@AEAV?$allocator@D@std@@@std@@YA$$QEAV?$allocator@D@0@AEAV10@@Z 0000000140000000     Storage.obj
 0005:fff98000       $pdata$??$move@AEAV?$basic_istream@DU?$char_traits@D@std@@@std@@@std@@YA$$QEAV?$basic_istream@DU?$char_traits@D@std@@@0@AEAV10@@Z 0000000140000000     Storage.obj
 0005:fff98000       $pdata$??$put_time@D@std@@YA?AU?$_Timeobj@DPEBUtm@@@0@PEBUtm@@PEBD@Z 0000000140000000     Storage.obj
 0005:fff98000       $pdata$??$use_facet@V?$codecvt@DDU_Mbstatet@@@std@@@std@@YAAEBV?$codecvt@DDU_Mbstatet@@@0@AEBVlocale@0@@Z 0000000140000000     Storage.obj
 0005:fff98000       $pdata$??$use_facet@V?$time_put@DV?$ostreambuf_iterator@DU?$char_traits@D@std@@@std@@@std@@@std@@YAAEBV?$time_put@DV?$ostreambuf_iterator@DU?$char_traits@D@std@@@std@@@0@AEBVlocale@0@@Z 0000000140000000     Storage.obj
 0005:fff98000       $pdata$??0?$_Container_proxy_ptr12@V?$allocator@U_Container_proxy@std@@@std@@@std@@QEAA@AEAV?$allocator@U_Container_proxy@std@@@1@AEAU_Container_base12@1@@Z 0000000140000000     Storage.obj
 0005:fff98000       $pdata$??0?$_String_val@U?$_Simple_types@D@std@@@std@@QEAA@XZ 0000000140000000     Storage.obj
 0005:fff98000       $pdata$??0?$_Timeobj@DPEBUtm@@@std@@QEAA@PEBUtm@@PEBD@Z 0000000140000000     Storage.obj
 0005:fff98000       $pdata$??0?$allocator@D@std@@QEAA@XZ 0000000140000000     Storage.obj
 0005:fff98000       $pdata$??0?$basic_filebuf@DU?$char_traits@D@std@@@std@@QEAA@PEAU_iobuf@@@Z 0000000140000000     Storage.obj
 0005:fff98000       $pdata$??0?$basic_ifstream@DU?$char_traits@D@std@@@std@@QEAA@PEBDHH@Z 0000000140000000     Storage.obj
 0005:fff98000       $pdata$??0?$basic_string@DU?$char_traits@D@std@@V?$allocator@D@2@@std@@QEAA@$$QEAV01@@Z 0000000140000000     Storage.obj
 0005:fff98000       $pdata$??0?$basic_string@DU?$char_traits@D@std@@V?$allocator@D@2@@std@@QEAA@AEBV01@@Z 0000000140000000     Storage.obj
 0005:fff98000       $pdata$??0?$basic_string@DU?$char_traits@D@std@@V?$allocator@D@2@@std@@QEAA@QEBD@Z 0000000140000000     Storage.obj
 0005:fff98000       $pdata$??0?$basic_string@DU?$char_traits@D@std@@V?$allocator@D@2@@std@@QEAA@XZ 0000000140000000     Storage.obj
 0005:fff98000       $pdata$??0?$fpos@U_Mbstatet@@@std@@QEAA@U_Mbstatet@@_J@Z 0000000140000000     Storage.obj
 0005:fff98000       $pdata$??0?$fpos@U_Mbstatet@@@std@@QEAA@_J@Z 0000000140000000     Storage.obj
 0005:fff98000       $pdata$??0?$ostreambuf_iterator@DU?$char_traits@D@std@@@std@@QEAA@PEAV?$basic_streambuf@DU?$char_traits@D@std@@@1@@Z 0000000140000000     Storage.obj
 0005:fff98000       $pdata$??0?$time_point@Usystem_clock@chrono@std@@V?$duration@_JU?$ratio@$00$0JIJGIA@@std@@@23@@chrono@std@@QEAA@AEBV?$duration@_JU?$ratio@$00$0JIJGIA@@std@@@12@@Z 0000000140000000     Storage.obj
 0005:fff98000       $pdata$??0LoggerHandler@Logging@technical_services_layer@@QEAA@AEAV?$basic_ostream@DU?$char_traits@D@std@@@std@@@Z 0000000140000000     Storage.obj
 0005:fff98000       $pdata$??0SimpleLogger@Logging@technical_services_layer@@QEAA@AEAV?$basic_ostream@DU?$char_traits@D@std@@@std@@@Z 0000000140000000     Storage.obj
 0005:fff98000       $pdata$??0_Bxty@?$_String_val@U?$_Simple_types@D@std@@@std@@QEAA@XZ 0000000140000000     Storage.obj
 0005:fff98000       $pdata$??0_Container_base12@std@@QEAA@XZ 0000000140000000     Storage.obj
 0005:fff98000       $pdata$??0_Container_proxy@std@@QEAA@PEAU_Container_base12@1@@Z 0000000140000000     Storage.obj
 0005:fff98000       $pdata$??0_Iterator_base12@std@@QEAA@AEBU01@@Z 0000000140000000     Storage.obj
 0005:fff98000       $pdata$??0_Iterator_base12@std@@QEAA@XZ 0000000140000000     Storage.obj
 0005:fff98000       $pdata$??0_Sentry_base@?$basic_istream@DU?$char_traits@D@std@@@std@@QEAA@AEAV12@@Z 0000000140000000     Storage.obj
 0005:fff98000       $pdata$??0_Sentry_base@?$basic_ostream@DU?$char_traits@D@std@@@std@@QEAA@AEAV12@@Z 0000000140000000     Storage.obj
 0005:fff98000       $pdata$??0bad_alloc@std@@AEAA@QEBD@Z 0000000140000000     Storage.obj
 0005:fff98000       $pdata$??0bad_alloc@std@@QEAA@AEBV01@@Z 0000000140000000     Storage.obj
 0005:fff98000       $pdata$??0bad_array_new_length@std@@QEAA@AEBV01@@Z 0000000140000000     Storage.obj
 0005:fff98000       $pdata$??0bad_array_new_length@std@@QEAA@XZ 0000000140000000     Storage.obj
 0005:fff98000       $pdata$??0bad_cast@std@@QEAA@AEBV01@@Z 0000000140000000     Storage.obj
 0005:fff98000       $pdata$??0bad_cast@std@@QEAA@XZ 0000000140000000     Storage.obj
 0005:fff98000       $pdata$??0exception@std@@QEAA@AEBV01@@Z 0000000140000000     Storage.obj
 0005:fff98000       $pdata$??0exception@std@@QEAA@QEBDH@Z 0000000140000000     Storage.obj
 0005:fff98000       $pdata$??0sentry@?$basic_istream@DU?$char_traits@D@std@@@std@@QEAA@AEAV12@_N@Z 0000000140000000     Storage.obj
 0005:fff98000       $pdata$??0sentry@?$basic_ostream@DU?$char_traits@D@std@@@std@@QEAA@AEAV12@@Z 0000000140000000     Storage.obj
 0005:fff98000       $pdata$??1?$_Compressed_pair@V?$allocator@D@std@@V?$_String_val@U?$_Simple_types@D@std@@@2@$00@std@@QEAA@XZ 0000000140000000     Storage.obj
 0005:fff98000       $pdata$??1?$_Container_proxy_ptr12@V?$allocator@U_Container_proxy@std@@@std@@@std@@QEAA@XZ 0000000140000000     Storage.obj
 0005:fff98000       $pdata$??1?$_String_val@U?$_Simple_types@D@std@@@std@@QEAA@XZ 0000000140000000     Storage.obj
 0005:fff98000       $pdata$??1?$basic_filebuf@DU?$char_traits@D@std@@@std@@UEAA@XZ 0000000140000000     Storage.obj
 0005:fff98000       $pdata$??1?$basic_ifstream@DU?$char_traits@D@std@@@std@@UEAA@XZ 0000000140000000     Storage.obj
 0005:fff98000       $pdata$??1?$basic_string@DU?$char_traits@D@std@@V?$allocator@D@2@@std@@QEAA@XZ 0000000140000000     Storage.obj
 0005:fff98000       $pdata$??1?$unique_ptr@V_Facet_base@std@@U?$default_delete@V_Facet_base@std@@@2@@std@@QEAA@XZ 0000000140000000     Storage.obj
 0005:fff98000       $pdata$??1LoggerHandler@Logging@technical_services_layer@@UEAA@XZ 0000000140000000     Storage.obj
 0005:fff98000       $pdata$??1SimpleLogger@Logging@technical_services_layer@@UEAA@XZ 0000000140000000     Storage.obj
 0005:fff98000       $pdata$??1_Bxty@?$_String_val@U?$_Simple_types@D@std@@@std@@QEAA@XZ 0000000140000000     Storage.obj
 0005:fff98000       $pdata$??1_Iterator_base12@std@@QEAA@XZ 0000000140000000     Storage.obj
 0005:fff98000       $pdata$??1_Sentry_base@?$basic_istream@DU?$char_traits@D@std@@@std@@QEAA@XZ 0000000140000000     Storage.obj
 0005:fff98000       $pdata$??1_Sentry_base@?$basic_ostream@DU?$char_traits@D@std@@@std@@QEAA@XZ 0000000140000000     Storage.obj
 0005:fff98000       $pdata$??1bad_alloc@std@@UEAA@XZ 0000000140000000     Storage.obj
 0005:fff98000       $pdata$??1bad_array_new_length@std@@UEAA@XZ 0000000140000000     Storage.obj
 0005:fff98000       $pdata$??1bad_cast@std@@UEAA@XZ 0000000140000000     Storage.obj
 0005:fff98000       $pdata$??1exception@std@@UEAA@XZ 0000000140000000     Storage.obj
 0005:fff98000       $pdata$??1locale@std@@QEAA@XZ 0000000140000000     Storage.obj
 0005:fff98000       $pdata$??1sentry@?$basic_istream@DU?$char_traits@D@std@@@std@@QEAA@XZ 0000000140000000     Storage.obj
 0005:fff98000       $pdata$??1sentry@?$basic_ostream@DU?$char_traits@D@std@@@std@@QEAA@XZ 0000000140000000     Storage.obj
 0005:fff98000       $pdata$??2@YAPEAX_KPEAX@Z  0000000140000000     Storage.obj
 0005:fff98000       $pdata$??4_Iterator_base12@std@@QEAAAEAU01@AEBU01@@Z 0000000140000000     Storage.obj
 0005:fff98000       $pdata$??6SimpleLogger@Logging@technical_services_layer@@UEAAAEAV012@AEBV?$basic_string@DU?$char_traits@D@std@@V?$allocator@D@2@@std@@@Z 0000000140000000     Storage.obj
 0005:fff98000       $pdata$??B?$fpos@U_Mbstatet@@@std@@QEBA_JXZ 0000000140000000     Storage.obj
 0005:fff98000       $pdata$??Bsentry@?$basic_istream@DU?$char_traits@D@std@@@std@@QEBA_NXZ 0000000140000000     Storage.obj
 0005:fff98000       $pdata$??Bsentry@?$basic_ostream@DU?$char_traits@D@std@@@std@@QEBA_NXZ 0000000140000000     Storage.obj
 0005:fff98000       $pdata$??R<lambda_319d5e083f45f90dcdce5dce53cbb275>@@QEBA@QEADQEBD_KD@Z 0000000140000000     Storage.obj
 0005:fff98000       $pdata$??R<lambda_65e615be2a453ca0576c979606f46740>@@QEBA@QEADQEBD_K12@Z 0000000140000000     Storage.obj
 0005:fff98000       $pdata$??R<lambda_66f57f934f28d61049862f64df852ff0>@@QEBA@QEAD_KQEBD@Z 0000000140000000     Storage.obj
 0005:fff98000       $pdata$??R?$default_delete@V_Facet_base@std@@@std@@QEBAXPEAV_Facet_base@1@@Z 0000000140000000     Storage.obj
 0005:fff98000       $pdata$??Y?$basic_string@DU?$char_traits@D@std@@V?$allocator@D@2@@std@@QEAAAEAV01@D@Z 0000000140000000     Storage.obj
 0005:fff98000       $pdata$??_D?$basic_ifstream@DU?$char_traits@D@std@@@std@@QEAAXXZ 0000000140000000     Storage.obj
 0005:fff98000       $pdata$??_G?$basic_filebuf@DU?$char_traits@D@std@@@std@@UEAAPEAXI@Z 0000000140000000     Storage.obj
 0005:fff98000       $pdata$??_G?$basic_ifstream@DU?$char_traits@D@std@@@std@@UEAAPEAXI@Z 0000000140000000     Storage.obj
 0005:fff98000       $pdata$??_GSimpleLogger@Logging@technical_services_layer@@UEAAPEAXI@Z 0000000140000000     Storage.obj
 0005:fff98000       $pdata$??_Gbad_alloc@std@@UEAAPEAXI@Z 0000000140000000     Storage.obj
 0005:fff98000       $pdata$??_Gbad_array_new_length@std@@UEAAPEAXI@Z 0000000140000000     Storage.obj
 0005:fff98000       $pdata$??_Gbad_cast@std@@UEAAPEAXI@Z 0000000140000000     Storage.obj
 0005:fff98000       $pdata$??_Gexception@std@@UEAAPEAXI@Z 0000000140000000     Storage.obj
 0005:fff98000       $pdata$?_Adjust_manually_vector_aligned@std@@YAXAEAPEAXAEA_K@Z 0000000140000000     Storage.obj
 0005:fff98000       $pdata$?_Adopt@_Iterator_base12@std@@QEAAXPEBU_Container_base12@2@@Z 0000000140000000     Storage.obj
 0005:fff98000       $pdata$?_Allocate@_Default_allocate_traits@std@@SAPEAX_K@Z 0000000140000000     Storage.obj
 0005:fff98000       $pdata$?_Calculate_growth@?$basic_string@DU?$char_traits@D@std@@V?$allocator@D@2@@std@@AEBA_K_K@Z 0000000140000000     Storage.obj
 0005:fff98000       $pdata$?_Calculate_growth@?$basic_string@DU?$char_traits@D@std@@V?$allocator@D@2@@std@@CA_K_K00@Z 0000000140000000     Storage.obj
 0005:fff98000       $pdata$?_Check_offset@?$_String_val@U?$_Simple_types@D@std@@@std@@QEBAX_K@Z 0000000140000000     Storage.obj
 0005:fff98000       $pdata$?_Clamp_suffix_size@?$_String_val@U?$_Simple_types@D@std@@@std@@QEBA_K_K0@Z 0000000140000000     Storage.obj
 0005:fff98000       $pdata$?_Construct_lv_contents@?$basic_string@DU?$char_traits@D@std@@V?$allocator@D@2@@std@@AEAAXAEBV12@@Z 0000000140000000     Storage.obj
 0005:fff98000       $pdata$?_Endwrite@?$basic_filebuf@DU?$char_traits@D@std@@@std@@IEAA_NXZ 0000000140000000     Storage.obj
 0005:fff98000       $pdata$?_Eos@?$basic_string@DU?$char_traits@D@std@@V?$allocator@D@2@@std@@AEAAX_K@Z 0000000140000000     Storage.obj
 0005:fff98000       $pdata$?_Equal@?$basic_string@DU?$char_traits@D@std@@V?$allocator@D@2@@std@@QEBA_NQEBD@Z 0000000140000000     Storage.obj
 0005:fff98000       $pdata$?_Get_first@?$_Compressed_pair@U?$default_delete@V_Facet_base@std@@@std@@PEAV_Facet_base@2@$00@std@@QEAAAEAU?$default_delete@V_Facet_base@std@@@2@XZ 0000000140000000     Storage.obj
 0005:fff98000       $pdata$?_Get_first@?$_Compressed_pair@V?$allocator@D@std@@V?$_String_val@U?$_Simple_types@D@std@@@2@$00@std@@QEAAAEAV?$allocator@D@2@XZ 0000000140000000     Storage.obj
 0005:fff98000       $pdata$?_Get_first@?$_Compressed_pair@V?$allocator@D@std@@V?$_String_val@U?$_Simple_types@D@std@@@2@$00@std@@QEBAAEBV?$allocator@D@2@XZ 0000000140000000     Storage.obj
 0005:fff98000       $pdata$?_Getal@?$basic_string@DU?$char_traits@D@std@@V?$allocator@D@2@@std@@AEAAAEAV?$allocator@D@2@XZ 0000000140000000     Storage.obj
 0005:fff98000       $pdata$?_Getal@?$basic_string@DU?$char_traits@D@std@@V?$allocator@D@2@@std@@AEBAAEBV?$allocator@D@2@XZ 0000000140000000     Storage.obj
 0005:fff98000       $pdata$?_Getcont@_Iterator_base12@std@@QEBAPEBU_Container_base12@2@XZ 0000000140000000     Storage.obj
 0005:fff98000       $pdata$?_Getfacet@locale@std@@QEBAPEBVfacet@12@_K@Z 0000000140000000     Storage.obj
 0005:fff98000       $pdata$?_Init@?$basic_filebuf@DU?$char_traits@D@std@@@std@@IEAAXPEAU_iobuf@@W4_Initfl@12@@Z 0000000140000000     Storage.obj
 0005:fff98000       $pdata$?_Initcvt@?$basic_filebuf@DU?$char_traits@D@std@@@std@@IEAAXAEBV?$codecvt@DDU_Mbstatet@@@2@@Z 0000000140000000     Storage.obj
 0005:fff98000       $pdata$?_Large_string_engaged@?$_String_val@U?$_Simple_types@D@std@@@std@@QEBA_NXZ 0000000140000000     Storage.obj
 0005:fff98000       $pdata$?_Lock@?$basic_filebuf@DU?$char_traits@D@std@@@std@@UEAAXXZ 0000000140000000     Storage.obj
 0005:fff98000       $pdata$?_Maklocwcs@std@@YAPEA_WPEB_W@Z 0000000140000000     Storage.obj
 0005:fff98000       $pdata$?_Memcpy_val_from@?$basic_string@DU?$char_traits@D@std@@V?$allocator@D@2@@std@@AEAAXAEBV12@@Z 0000000140000000     Storage.obj
 0005:fff98000       $pdata$?_Myptr@?$_String_val@U?$_Simple_types@D@std@@@std@@QEAAPEADXZ 0000000140000000     Storage.obj
 0005:fff98000       $pdata$?_Myptr@?$_String_val@U?$_Simple_types@D@std@@@std@@QEBAPEBDXZ 0000000140000000     Storage.obj
 0005:fff98000       $pdata$?_Orphan_all@_Container_base12@std@@QEAAXXZ 0000000140000000     Storage.obj
 0005:fff98000       $pdata$?_Orphan_me@_Iterator_base12@std@@QEAAXXZ 0000000140000000     Storage.obj
 0005:fff98000       $pdata$?_Release@_Basic_container_proxy_ptr12@std@@QEAAXXZ 0000000140000000     Storage.obj
 0005:fff98000       $pdata$?_Reset_back@?$basic_filebuf@DU?$char_traits@D@std@@@std@@AEAAXXZ 0000000140000000     Storage.obj
 0005:fff98000       $pdata$?_Set_back@?$basic_filebuf@DU?$char_traits@D@std@@@std@@AEAAXXZ 0000000140000000     Storage.obj
 0005:fff98000       $pdata$?_Swap_proxy_and_iterators@?$basic_string@DU?$char_traits@D@std@@V?$allocator@D@2@@std@@AEAAXAEAV12@@Z 0000000140000000     Storage.obj
 0005:fff98000       $pdata$?_Swap_proxy_and_iterators@_Container_base12@std@@QEAAXAEAU12@@Z 0000000140000000     Storage.obj
 0005:fff98000       $pdata$?_Take_contents@?$basic_string@DU?$char_traits@D@std@@V?$allocator@D@2@@std@@AEAAXAEAV12@U?$integral_constant@_N$00@2@@Z 0000000140000000     Storage.obj
 0005:fff98000       $pdata$?_Throw_bad_array_new_length@std@@YAXXZ 0000000140000000     Storage.obj
 0005:fff98000       $pdata$?_Throw_bad_cast@std@@YAXXZ 0000000140000000     Storage.obj
 0005:fff98000       $pdata$?_Tidy_deallocate@?$basic_string@DU?$char_traits@D@std@@V?$allocator@D@2@@std@@AEAAXXZ 0000000140000000     Storage.obj
 0005:fff98000       $pdata$?_Tidy_init@?$basic_string@DU?$char_traits@D@std@@V?$allocator@D@2@@std@@AEAAXXZ 0000000140000000     Storage.obj
 0005:fff98000       $pdata$?_Unlock@?$basic_filebuf@DU?$char_traits@D@std@@@std@@UEAAXXZ 0000000140000000     Storage.obj
 0005:fff98000       $pdata$?_Xlen@?$basic_string@DU?$char_traits@D@std@@V?$allocator@D@2@@std@@CAXXZ 0000000140000000     Storage.obj
 0005:fff98000       $pdata$?_Xran@?$_String_val@U?$_Simple_types@D@std@@@std@@SAXXZ 0000000140000000     Storage.obj
 0005:fff98000       $pdata$?__autoclassinit2@?$basic_ifstream@DU?$char_traits@D@std@@@std@@QEAAX_K@Z 0000000140000000     Storage.obj
 0005:fff98000       $pdata$?__autoclassinit2@?$unique_ptr@V_Facet_base@std@@U?$default_delete@V_Facet_base@std@@@2@@std@@QEAAX_K@Z 0000000140000000     Storage.obj
 0005:fff98000       $pdata$?__empty_global_delete@@YAXPEAX@Z 0000000140000000     Storage.obj
 0005:fff98000       $pdata$?__empty_global_delete@@YAXPEAXW4align_val_t@std@@@Z 0000000140000000     Storage.obj
 0005:fff98000       $pdata$?__empty_global_delete@@YAXPEAX_K@Z 0000000140000000     Storage.obj
 0005:fff98000       $pdata$?__empty_global_delete@@YAXPEAX_KW4align_val_t@std@@@Z 0000000140000000     Storage.obj
 0005:fff98000       $pdata$?allocate@?$allocator@D@std@@QEAAPEAD_K@Z 0000000140000000     Storage.obj
 0005:fff98000       $pdata$?allocate@?$allocator@U_Container_proxy@std@@@std@@QEAAPEAU_Container_proxy@2@_K@Z 0000000140000000     Storage.obj
 0005:fff98000       $pdata$?append@?$basic_string@DU?$char_traits@D@std@@V?$allocator@D@2@@std@@QEAAAEAV12@AEBV12@@Z 0000000140000000     Storage.obj
 0005:fff98000       $pdata$?append@?$basic_string@DU?$char_traits@D@std@@V?$allocator@D@2@@std@@QEAAAEAV12@QEBD@Z 0000000140000000     Storage.obj
 0005:fff98000       $pdata$?append@?$basic_string@DU?$char_traits@D@std@@V?$allocator@D@2@@std@@QEAAAEAV12@QEBD_K@Z 0000000140000000     Storage.obj
 0005:fff98000       $pdata$?assign@?$_Narrow_char_traits@DH@std@@SAXAEADAEBD@Z 0000000140000000     Storage.obj
 0005:fff98000       $pdata$?assign@?$basic_string@DU?$char_traits@D@std@@V?$allocator@D@2@@std@@QEAAAEAV12@QEBD@Z 0000000140000000     Storage.obj
 0005:fff98000       $pdata$?assign@?$basic_string@DU?$char_traits@D@std@@V?$allocator@D@2@@std@@QEAAAEAV12@QEBD_K@Z 0000000140000000     Storage.obj
 0005:fff98000       $pdata$?c_str@?$basic_string@DU?$char_traits@D@std@@V?$allocator@D@2@@std@@QEBAPEBDXZ 0000000140000000     Storage.obj
 0005:fff98000       $pdata$?catch$1@?0???$?6U?$char_traits@D@std@@@std@@YAAEAV?$basic_ostream@DU?$char_traits@D@std@@@0@AEAV10@D@Z@4HA 0000000140000000     Storage.obj
 0005:fff98000       $pdata$?catch$1@?0???$?6U?$char_traits@D@std@@@std@@YAAEAV?$basic_ostream@DU?$char_traits@D@std@@@0@AEAV10@PEBD@Z@4HA 0000000140000000     Storage.obj
 0005:fff98000       $pdata$?catch$1@?0???$_Insert_string@DU?$char_traits@D@std@@_K@std@@YAAEAV?$basic_ostream@DU?$char_traits@D@std@@@0@AEAV10@QEBD_K@Z@4HA 0000000140000000     Storage.obj
 0005:fff98000       $pdata$?catch$1@?0???$getline@DU?$char_traits@D@std@@V?$allocator@D@2@@std@@YAAEAV?$basic_istream@DU?$char_traits@D@std@@@0@$$QEAV10@AEAV?$basic_string@DU?$char_traits@D@std@@V?$allocator@D@2@@0@D@Z@4HA 0000000140000000     Storage.obj
 0005:fff98000       $pdata$?catch$2@?0???$?6DU?$char_traits@D@std@@D@std@@YAAEAV?$basic_ostream@DU?$char_traits@D@std@@@0@AEAV10@AEBU?$_Timeobj@DPEBUtm@@@0@@Z@4HA 0000000140000000     Storage.obj
 0005:fff98000       $pdata$?close@?$basic_filebuf@DU?$char_traits@D@std@@@std@@QEAAPEAV12@XZ 0000000140000000     Storage.obj
 0005:fff98000       $pdata$?close@?$basic_ifstream@DU?$char_traits@D@std@@@std@@QEAAXXZ 0000000140000000     Storage.obj
 0005:fff98000       $pdata$?compare@?$_Narrow_char_traits@DH@std@@SAHQEBD0_K@Z 0000000140000000     Storage.obj
 0005:fff98000       $pdata$?copy@?$_Narrow_char_traits@DH@std@@SAPEADQEADQEBD_K@Z 0000000140000000     Storage.obj
 0005:fff98000       $pdata$?count@?$duration@_JU?$ratio@$00$0JIJGIA@@std@@@chrono@std@@QEBA_JXZ 0000000140000000     Storage.obj
 0005:fff98000       $pdata$?data@?$basic_string@DU?$char_traits@D@std@@V?$allocator@D@2@@std@@QEAAPEADXZ 0000000140000000     Storage.obj
 0005:fff98000       $pdata$?data@?$basic_string@DU?$char_traits@D@std@@V?$allocator@D@2@@std@@QEBAPEBDXZ 0000000140000000     Storage.obj
 0005:fff98000       $pdata$?deallocate@?$_Default_allocator_traits@V?$allocator@U_Container_proxy@std@@@std@@@std@@SAXAEAV?$allocator@U_Container_proxy@std@@@2@QEAU_Container_proxy@2@_K@Z 0000000140000000     Storage.obj
 0005:fff98000       $pdata$?deallocate@?$allocator@D@std@@QEAAXQEAD_K@Z 0000000140000000     Storage.obj
 0005:fff98000       $pdata$?dtor$0@?0???$?6DU?$char_traits@D@std@@D@std@@YAAEAV?$basic_ostream@DU?$char_traits@D@std@@@0@AEAV10@AEBU?$_Timeobj@DPEBUtm@@@0@@Z@4HA 0000000140000000     Storage.obj
 0005:fff98000       $pdata$?dtor$0@?0???$?6U?$char_traits@D@std@@@std@@YAAEAV?$basic_ostream@DU?$char_traits@D@std@@@0@AEAV10@D@Z@4HA 0000000140000000     Storage.obj
 0005:fff98000       $pdata$?dtor$0@?0???$?6U?$char_traits@D@std@@@std@@YAAEAV?$basic_ostream@DU?$char_traits@D@std@@@0@AEAV10@PEBD@Z@4HA 0000000140000000     Storage.obj
 0005:fff98000       $pdata$?dtor$0@?0???$_Insert_string@DU?$char_traits@D@std@@_K@std@@YAAEAV?$basic_ostream@DU?$char_traits@D@std@@@0@AEAV10@QEBD_K@Z@4HA 0000000140000000     Storage.obj
 0005:fff98000       $pdata$?dtor$0@?0???$getline@DU?$char_traits@D@std@@V?$allocator@D@2@@std@@YAAEAV?$basic_istream@DU?$char_traits@D@std@@@0@$$QEAV10@AEAV?$basic_string@DU?$char_traits@D@std@@V?$allocator@D@2@@0@D@Z@4HA 0000000140000000     Storage.obj
 0005:fff98000       $pdata$?dtor$0@?0???$use_facet@V?$codecvt@DDU_Mbstatet@@@std@@@std@@YAAEBV?$codecvt@DDU_Mbstatet@@@0@AEBVlocale@0@@Z@4HA 0000000140000000     Storage.obj
 0005:fff98000       $pdata$?dtor$0@?0???$use_facet@V?$time_put@DV?$ostreambuf_iterator@DU?$char_traits@D@std@@@std@@@std@@@std@@YAAEBV?$time_put@DV?$ostreambuf_iterator@DU?$char_traits@D@std@@@std@@@0@AEBVlocale@0@@Z@4HA 0000000140000000     Storage.obj
 0005:fff98000       $pdata$?dtor$0@?0???0?$basic_filebuf@DU?$char_traits@D@std@@@std@@QEAA@PEAU_iobuf@@@Z@4HA 0000000140000000     Storage.obj
 0005:fff98000       $pdata$?dtor$0@?0???0?$basic_ifstream@DU?$char_traits@D@std@@@std@@QEAA@PEBDHH@Z@4HA 0000000140000000     Storage.obj
 0005:fff98000       $pdata$?dtor$0@?0???0?$basic_string@DU?$char_traits@D@std@@V?$allocator@D@2@@std@@QEAA@AEBV01@@Z@4HA 0000000140000000     Storage.obj
 0005:fff98000       $pdata$?dtor$0@?0???0?$basic_string@DU?$char_traits@D@std@@V?$allocator@D@2@@std@@QEAA@QEBD@Z@4HA 0000000140000000     Storage.obj
 0005:fff98000       $pdata$?dtor$0@?0???0SimpleLogger@Logging@technical_services_layer@@QEAA@AEAV?$basic_ostream@DU?$char_traits@D@std@@@std@@@Z@4HA 0000000140000000     Storage.obj
 0005:fff98000       $pdata$?dtor$0@?0???0sentry@?$basic_istream@DU?$char_traits@D@std@@@std@@QEAA@AEAV12@_N@Z@4HA 0000000140000000     Storage.obj
 0005:fff98000       $pdata$?dtor$0@?0???0sentry@?$basic_ostream@DU?$char_traits@D@std@@@std@@QEAA@AEAV12@@Z@4HA 0000000140000000     Storage.obj
 0005:fff98000       $pdata$?dtor$0@?0??open@?$basic_filebuf@DU?$char_traits@D@std@@@std@@QEAAPEAV12@PEBDHH@Z@4HA 0000000140000000     Storage.obj
 0005:fff98000       $pdata$?dtor$0@?0??uflow@?$basic_filebuf@DU?$char_traits@D@std@@@std@@MEAAHXZ@4HA 0000000140000000     Storage.obj
 0005:fff98000       $pdata$?dtor$1@?0???$?6DU?$char_traits@D@std@@D@std@@YAAEAV?$basic_ostream@DU?$char_traits@D@std@@@0@AEAV10@AEBU?$_Timeobj@DPEBUtm@@@0@@Z@4HA 0000000140000000     Storage.obj
 0005:fff98000       $pdata$?dtor$1@?0???$use_facet@V?$codecvt@DDU_Mbstatet@@@std@@@std@@YAAEBV?$codecvt@DDU_Mbstatet@@@0@AEBVlocale@0@@Z@4HA 0000000140000000     Storage.obj
 0005:fff98000       $pdata$?dtor$1@?0???$use_facet@V?$time_put@DV?$ostreambuf_iterator@DU?$char_traits@D@std@@@std@@@std@@@std@@YAAEBV?$time_put@DV?$ostreambuf_iterator@DU?$char_traits@D@std@@@std@@@0@AEBVlocale@0@@Z@4HA 0000000140000000     Storage.obj
 0005:fff98000       $pdata$?dtor$1@?0???0?$basic_ifstream@DU?$char_traits@D@std@@@std@@QEAA@PEBDHH@Z@4HA 0000000140000000     Storage.obj
 0005:fff98000       $pdata$?dtor$1@?0???0?$basic_string@DU?$char_traits@D@std@@V?$allocator@D@2@@std@@QEAA@AEBV01@@Z@4HA 0000000140000000     Storage.obj
 0005:fff98000       $pdata$?dtor$1@?0???0?$basic_string@DU?$char_traits@D@std@@V?$allocator@D@2@@std@@QEAA@QEBD@Z@4HA 0000000140000000     Storage.obj
 0005:fff98000       $pdata$?dtor$1@?0???0SimpleLogger@Logging@technical_services_layer@@QEAA@AEAV?$basic_ostream@DU?$char_traits@D@std@@@std@@@Z@4HA 0000000140000000     Storage.obj
 0005:fff98000       $pdata$?dtor$2@?0???0?$basic_ifstream@DU?$char_traits@D@std@@@std@@QEAA@PEBDHH@Z@4HA 0000000140000000     Storage.obj
 0005:fff98000       $pdata$?eof@?$_Narrow_char_traits@DH@std@@SAHXZ 0000000140000000     Storage.obj
 0005:fff98000       $pdata$?eq_int_type@?$_Narrow_char_traits@DH@std@@SA_NAEBH0@Z 0000000140000000     Storage.obj
 0005:fff98000       $pdata$?erase@?$basic_string@DU?$char_traits@D@std@@V?$allocator@D@2@@std@@QEAAAEAV12@_K@Z 0000000140000000     Storage.obj
 0005:fff98000       $pdata$?erase@?$basic_string@DU?$char_traits@D@std@@V?$allocator@D@2@@std@@QEAAAEAV12@_K_K@Z 0000000140000000     Storage.obj
 0005:fff98000       $pdata$?failed@?$ostreambuf_iterator@DU?$char_traits@D@std@@@std@@QEBA_NXZ 0000000140000000     Storage.obj
 0005:fff98000       $pdata$?front@?$basic_string@DU?$char_traits@D@std@@V?$allocator@D@2@@std@@QEAAAEADXZ 0000000140000000     Storage.obj
 0005:fff98000       $pdata$?imbue@?$basic_filebuf@DU?$char_traits@D@std@@@std@@MEAAXAEBVlocale@2@@Z 0000000140000000     Storage.obj
 0005:fff98000       $pdata$?is_open@?$basic_filebuf@DU?$char_traits@D@std@@@std@@QEBA_NXZ 0000000140000000     Storage.obj
 0005:fff98000       $pdata$?is_open@?$basic_ifstream@DU?$char_traits@D@std@@@std@@QEBA_NXZ 0000000140000000     Storage.obj
 0005:fff98000       $pdata$?length@?$_Narrow_char_traits@DH@std@@SA_KQEBD@Z 0000000140000000     Storage.obj
 0005:fff98000       $pdata$?max@?$numeric_limits@_J@std@@SA_JXZ 0000000140000000     Storage.obj
 0005:fff98000       $pdata$?max_size@?$_Default_allocator_traits@V?$allocator@D@std@@@std@@SA_KAEBV?$allocator@D@2@@Z 0000000140000000     Storage.obj
 0005:fff98000       $pdata$?max_size@?$basic_string@DU?$char_traits@D@std@@V?$allocator@D@2@@std@@QEBA_KXZ 0000000140000000     Storage.obj
 0005:fff98000       $pdata$?move@?$_Narrow_char_traits@DH@std@@SAPEADQEADQEBD_K@Z 0000000140000000     Storage.obj
 0005:fff98000       $pdata$?not_eof@?$_Narrow_char_traits@DH@std@@SAHAEBH@Z 0000000140000000     Storage.obj
 0005:fff98000       $pdata$?now@system_clock@chrono@std@@SA?AV?$time_point@Usystem_clock@chrono@std@@V?$duration@_JU?$ratio@$00$0JIJGIA@@std@@@23@@23@XZ 0000000140000000     Storage.obj
 0005:fff98000       $pdata$?open@?$basic_filebuf@DU?$char_traits@D@std@@@std@@QEAAPEAV12@PEBDHH@Z 0000000140000000     Storage.obj
 0005:fff98000       $pdata$?overflow@?$basic_filebuf@DU?$char_traits@D@std@@@std@@MEAAHH@Z 0000000140000000     Storage.obj
 0005:fff98000       $pdata$?pbackfail@?$basic_filebuf@DU?$char_traits@D@std@@@std@@MEAAHH@Z 0000000140000000     Storage.obj
 0005:fff98000       $pdata$?push_back@?$basic_string@DU?$char_traits@D@std@@V?$allocator@D@2@@std@@QEAAXD@Z 0000000140000000     Storage.obj
 0005:fff98000       $pdata$?release@?$unique_ptr@V_Facet_base@std@@U?$default_delete@V_Facet_base@std@@@2@@std@@QEAAPEAV_Facet_base@2@XZ 0000000140000000     Storage.obj
 0005:fff98000       $pdata$?seekoff@?$basic_filebuf@DU?$char_traits@D@std@@@std@@MEAA?AV?$fpos@U_Mbstatet@@@2@_JHH@Z 0000000140000000     Storage.obj
 0005:fff98000       $pdata$?seekpos@?$basic_filebuf@DU?$char_traits@D@std@@@std@@MEAA?AV?$fpos@U_Mbstatet@@@2@V32@H@Z 0000000140000000     Storage.obj
 0005:fff98000       $pdata$?select_on_container_copy_construction@?$_Default_allocator_traits@V?$allocator@D@std@@@std@@SA?AV?$allocator@D@2@AEBV32@@Z 0000000140000000     Storage.obj
 0005:fff98000       $pdata$?setbuf@?$basic_filebuf@DU?$char_traits@D@std@@@std@@MEAAPEAV?$basic_streambuf@DU?$char_traits@D@std@@@2@PEAD_J@Z 0000000140000000     Storage.obj
 0005:fff98000       $pdata$?size@?$basic_string@DU?$char_traits@D@std@@V?$allocator@D@2@@std@@QEBA_KXZ 0000000140000000     Storage.obj
 0005:fff98000       $pdata$?state@?$fpos@U_Mbstatet@@@std@@QEBA?AU_Mbstatet@@XZ 0000000140000000     Storage.obj
 0005:fff98000       $pdata$?sync@?$basic_filebuf@DU?$char_traits@D@std@@@std@@MEAAHXZ 0000000140000000     Storage.obj
 0005:fff98000       $pdata$?time_since_epoch@?$time_point@Usystem_clock@chrono@std@@V?$duration@_JU?$ratio@$00$0JIJGIA@@std@@@23@@chrono@std@@QEBA?AV?$duration@_JU?$ratio@$00$0JIJGIA@@std@@@23@XZ 0000000140000000     Storage.obj
 0005:fff98000       $pdata$?to_char_type@?$_Narrow_char_traits@DH@std@@SADAEBH@Z 0000000140000000     Storage.obj
 0005:fff98000       $pdata$?to_int_type@?$_Narrow_char_traits@DH@std@@SAHAEBD@Z 0000000140000000     Storage.obj
 0005:fff98000       $pdata$?to_time_t@system_clock@chrono@std@@SA_JAEBV?$time_point@Usystem_clock@chrono@std@@V?$duration@_JU?$ratio@$00$0JIJGIA@@std@@@23@@23@@Z 0000000140000000     Storage.obj
 0005:fff98000       $pdata$?uflow@?$basic_filebuf@DU?$char_traits@D@std@@@std@@MEAAHXZ 0000000140000000     Storage.obj
 0005:fff98000       $pdata$?underflow@?$basic_filebuf@DU?$char_traits@D@std@@@std@@MEAAHXZ 0000000140000000     Storage.obj
 0005:fff98000       $pdata$?what@exception@std@@UEBAPEBDXZ 0000000140000000     Storage.obj
 0005:fff98000       $pdata$?xsgetn@?$basic_filebuf@DU?$char_traits@D@std@@@std@@MEAA_JPEAD_J@Z 0000000140000000     Storage.obj
 0005:fff98000       $pdata$?xsputn@?$basic_filebuf@DU?$char_traits@D@std@@@std@@MEAA_JPEBD_J@Z 0000000140000000     Storage.obj
 0005:fff98000       $pdata$wmemcpy             0000000140000000     Storage.obj
 0003:fffad000       $stateUnwindMap$??$?6DU?$char_traits@D@std@@D@std@@YAAEAV?$basic_ostream@DU?$char_traits@D@std@@@0@AEAV10@AEBU?$_Timeobj@DPEBUtm@@@0@@Z 0000000140000000     Storage.obj
 0003:fffad000       $stateUnwindMap$??$?6U?$char_traits@D@std@@@std@@YAAEAV?$basic_ostream@DU?$char_traits@D@std@@@0@AEAV10@D@Z 0000000140000000     Storage.obj
 0003:fffad000       $stateUnwindMap$??$?6U?$char_traits@D@std@@@std@@YAAEAV?$basic_ostream@DU?$char_traits@D@std@@@0@AEAV10@PEBD@Z 0000000140000000     Storage.obj
 0003:fffad000       $stateUnwindMap$??$_Insert_string@DU?$char_traits@D@std@@_K@std@@YAAEAV?$basic_ostream@DU?$char_traits@D@std@@@0@AEAV10@QEBD_K@Z 0000000140000000     Storage.obj
 0003:fffad000       $stateUnwindMap$??$getline@DU?$char_traits@D@std@@V?$allocator@D@2@@std@@YAAEAV?$basic_istream@DU?$char_traits@D@std@@@0@$$QEAV10@AEAV?$basic_string@DU?$char_traits@D@std@@V?$allocator@D@2@@0@D@Z 0000000140000000     Storage.obj
 0003:fffad000       $stateUnwindMap$??$use_facet@V?$codecvt@DDU_Mbstatet@@@std@@@std@@YAAEBV?$codecvt@DDU_Mbstatet@@@0@AEBVlocale@0@@Z 0000000140000000     Storage.obj
 0003:fffad000       $stateUnwindMap$??$use_facet@V?$time_put@DV?$ostreambuf_iterator@DU?$char_traits@D@std@@@std@@@std@@@std@@YAAEBV?$time_put@DV?$ostreambuf_iterator@DU?$char_traits@D@std@@@std@@@0@AEBVlocale@0@@Z 0000000140000000     Storage.obj
 0003:fffad000       $stateUnwindMap$??0?$basic_filebuf@DU?$char_traits@D@std@@@std@@QEAA@PEAU_iobuf@@@Z 0000000140000000     Storage.obj
 0003:fffad000       $stateUnwindMap$??0?$basic_ifstream@DU?$char_traits@D@std@@@std@@QEAA@PEBDHH@Z 0000000140000000     Storage.obj
 0003:fffad000       $stateUnwindMap$??0?$basic_string@DU?$char_traits@D@std@@V?$allocator@D@2@@std@@QEAA@AEBV01@@Z 0000000140000000     Storage.obj
 0003:fffad000       $stateUnwindMap$??0?$basic_string@DU?$char_traits@D@std@@V?$allocator@D@2@@std@@QEAA@QEBD@Z 0000000140000000     Storage.obj
 0003:fffad000       $stateUnwindMap$??0SimpleLogger@Logging@technical_services_layer@@QEAA@AEAV?$basic_ostream@DU?$char_traits@D@std@@@std@@@Z 0000000140000000     Storage.obj
 0003:fffad000       $stateUnwindMap$??0sentry@?$basic_istream@DU?$char_traits@D@std@@@std@@QEAA@AEAV12@_N@Z 0000000140000000     Storage.obj
 0003:fffad000       $stateUnwindMap$??0sentry@?$basic_ostream@DU?$char_traits@D@std@@@std@@QEAA@AEAV12@@Z 0000000140000000     Storage.obj
 0003:fffad000       $stateUnwindMap$?open@?$basic_filebuf@DU?$char_traits@D@std@@@std@@QEAAPEAV12@PEBDHH@Z 0000000140000000     Storage.obj
 0003:fffad000       $stateUnwindMap$?uflow@?$basic_filebuf@DU?$char_traits@D@std@@@std@@MEAAHXZ 0000000140000000     Storage.obj
 0003:fffad000       $tryMap$??$?6DU?$char_traits@D@std@@D@std@@YAAEAV?$basic_ostream@DU?$char_traits@D@std@@@0@AEAV10@AEBU?$_Timeobj@DPEBUtm@@@0@@Z 0000000140000000     Storage.obj
 0003:fffad000       $tryMap$??$?6U?$char_traits@D@std@@@std@@YAAEAV?$basic_ostream@DU?$char_traits@D@std@@@0@AEAV10@D@Z 0000000140000000     Storage.obj
 0003:fffad000       $tryMap$??$?6U?$char_traits@D@std@@@std@@YAAEAV?$basic_ostream@DU?$char_traits@D@std@@@0@AEAV10@PEBD@Z 0000000140000000     Storage.obj
 0003:fffad000       $tryMap$??$_Insert_string@DU?$char_traits@D@std@@_K@std@@YAAEAV?$basic_ostream@DU?$char_traits@D@std@@@0@AEAV10@QEBD_K@Z 0000000140000000     Storage.obj
 0003:fffad000       $tryMap$??$getline@DU?$char_traits@D@std@@V?$allocator@D@2@@std@@YAAEAV?$basic_istream@DU?$char_traits@D@std@@@0@$$QEAV10@AEAV?$basic_string@DU?$char_traits@D@std@@V?$allocator@D@2@@0@D@Z 0000000140000000     Storage.obj
 0003:fffad000       $unwind$??$?0$$V@?$_Compressed_pair@V?$allocator@D@std@@V?$_String_val@U?$_Simple_types@D@std@@@2@$00@std@@QEAA@U_Zero_then_variadic_args_t@1@@Z 0000000140000000     Storage.obj
 0003:fffad000       $unwind$??$?0AEAPEAV_Facet_base@std@@@?$_Compressed_pair@U?$default_delete@V_Facet_base@std@@@std@@PEAV_Facet_base@2@$00@std@@QEAA@U_Zero_then_variadic_args_t@1@AEAPEAV_Facet_base@1@@Z 0000000140000000     Storage.obj
 0003:fffad000       $unwind$??$?0D@?$allocator@U_Container_proxy@std@@@std@@QEAA@AEBV?$allocator@D@1@@Z 0000000140000000     Storage.obj
 0003:fffad000       $unwind$??$?0U?$default_delete@V_Facet_base@std@@@std@@$0A@@?$unique_ptr@V_Facet_base@std@@U?$default_delete@V_Facet_base@std@@@2@@std@@QEAA@PEAV_Facet_base@1@@Z 0000000140000000     Storage.obj
 0003:fffad000       $unwind$??$?0V?$allocator@D@std@@$$V@?$_Compressed_pair@V?$allocator@D@std@@V?$_String_val@U?$_Simple_types@D@std@@@2@$00@std@@QEAA@U_One_then_variadic_args_t@1@$$QEAV?$allocator@D@1@@Z 0000000140000000     Storage.obj
 0003:fffad000       $unwind$??$?0_JX@?$duration@_JU?$ratio@$00$0JIJGIA@@std@@@chrono@std@@QEAA@AEB_J@Z 0000000140000000     Storage.obj
 0003:fffad000       $unwind$??$?6DU?$char_traits@D@std@@D@std@@YAAEAV?$basic_ostream@DU?$char_traits@D@std@@@0@AEAV10@AEBU?$_Timeobj@DPEBUtm@@@0@@Z 0000000140000000     Storage.obj
 0003:fffad000       $unwind$??$?6DU?$char_traits@D@std@@V?$allocator@D@1@@std@@YAAEAV?$basic_ostream@DU?$char_traits@D@std@@@0@AEAV10@AEBV?$basic_string@DU?$char_traits@D@std@@V?$allocator@D@2@@0@@Z 0000000140000000     Storage.obj
 0003:fffad000       $unwind$??$?6U?$char_traits@D@std@@@std@@YAAEAV?$basic_ostream@DU?$char_traits@D@std@@@0@AEAV10@D@Z 0000000140000000     Storage.obj
 0003:fffad000       $unwind$??$?6U?$char_traits@D@std@@@std@@YAAEAV?$basic_ostream@DU?$char_traits@D@std@@@0@AEAV10@PEBD@Z 0000000140000000     Storage.obj
 0003:fffad000       $unwind$??$?8DU?$char_traits@D@std@@V?$allocator@D@1@@std@@YA_NAEBV?$basic_string@DU?$char_traits@D@std@@V?$allocator@D@2@@0@QEBD@Z 0000000140000000     Storage.obj
 0003:fffad000       $unwind$??$_Alloc_proxy@V?$allocator@U_Container_proxy@std@@@std@@@_Container_base12@std@@QEAAX$$QEAV?$allocator@U_Container_proxy@std@@@1@@Z 0000000140000000     Storage.obj
 0003:fffad000       $unwind$??$_Allocate@$0BA@U_Default_allocate_traits@std@@$0A@@std@@YAPEAX_K@Z 0000000140000000     Storage.obj
 0003:fffad000       $unwind$??$_Allocate_manually_vector_aligned@U_Default_allocate_traits@std@@@std@@YAPEAX_K@Z 0000000140000000     Storage.obj
 0003:fffad000       $unwind$??$_Construct_in_place@PEADAEBQEAD@std@@YAXAEAPEADAEBQEAD@Z 0000000140000000     Storage.obj
 0003:fffad000       $unwind$??$_Construct_in_place@U_Container_proxy@std@@PEAU_Container_base12@2@@std@@YAXAEAU_Container_proxy@0@$$QEAPEAU_Container_base12@0@@Z 0000000140000000     Storage.obj
 0003:fffad000       $unwind$??$_Convert_size@_K@std@@YA_K_K@Z 0000000140000000     Storage.obj
 0003:fffad000       $unwind$??$_Deallocate@$0BA@$0A@@std@@YAXPEAX_K@Z 0000000140000000     Storage.obj
 0003:fffad000       $unwind$??$_Deallocate_plain@V?$allocator@U_Container_proxy@std@@@std@@@std@@YAXAEAV?$allocator@U_Container_proxy@std@@@0@QEAU_Container_proxy@0@@Z 0000000140000000     Storage.obj
 0003:fffad000       $unwind$??$_Delete_plain_internal@V?$allocator@U_Container_proxy@std@@@std@@@std@@YAXAEAV?$allocator@U_Container_proxy@std@@@0@QEAU_Container_proxy@0@@Z 0000000140000000     Storage.obj
 0003:fffad000       $unwind$??$_Destroy_in_place@PEAD@std@@YAXAEAPEAD@Z 0000000140000000     Storage.obj
 0003:fffad000       $unwind$??$_Fgetc@D@std@@YA_NAEADPEAU_iobuf@@@Z 0000000140000000     Storage.obj
 0003:fffad000       $unwind$??$_Fputc@D@std@@YA_NDPEAU_iobuf@@@Z 0000000140000000     Storage.obj
 0003:fffad000       $unwind$??$_Get_size_of_n@$00@std@@YA_K_K@Z 0000000140000000     Storage.obj
 0003:fffad000       $unwind$??$_Get_size_of_n@$0BA@@std@@YA_K_K@Z 0000000140000000     Storage.obj
 0003:fffad000       $unwind$??$_Getvals@_W@?$time_get@DV?$istreambuf_iterator@DU?$char_traits@D@std@@@std@@@std@@IEAAX_WAEBV_Locinfo@1@@Z 0000000140000000     Storage.obj
 0003:fffad000       $unwind$??$_Getvals@_W@?$time_get@_WV?$istreambuf_iterator@_WU?$char_traits@_W@std@@@std@@@std@@IEAAX_WAEBV_Locinfo@1@@Z 0000000140000000     Storage.obj
 0003:fffad000       $unwind$??$_Insert_string@DU?$char_traits@D@std@@_K@std@@YAAEAV?$basic_ostream@DU?$char_traits@D@std@@@0@AEAV10@QEBD_K@Z 0000000140000000     Storage.obj
 0003:fffad000       $unwind$??$_Maklocstr@D@std@@YAPEADPEBDPEADAEBU_Cvtvec@@@Z 0000000140000000     Storage.obj
 0003:fffad000       $unwind$??$_Maklocstr@_W@std@@YAPEA_WPEBDPEA_WAEBU_Cvtvec@@@Z 0000000140000000     Storage.obj
 0003:fffad000       $unwind$??$_Max_value@_K@std@@YAAEB_KAEB_K0@Z 0000000140000000     Storage.obj
 0003:fffad000       $unwind$??$_Min_value@_K@std@@YAAEB_KAEB_K0@Z 0000000140000000     Storage.obj
 0003:fffad000       $unwind$??$_Reallocate_for@V<lambda_66f57f934f28d61049862f64df852ff0>@@PEBD@?$basic_string@DU?$char_traits@D@std@@V?$allocator@D@2@@std@@AEAAAEAV01@_KV<lambda_66f57f934f28d61049862f64df852ff0>@@PEBD@Z 0000000140000000     Storage.obj
 0003:fffad000       $unwind$??$_Reallocate_grow_by@V<lambda_319d5e083f45f90dcdce5dce53cbb275>@@D@?$basic_string@DU?$char_traits@D@std@@V?$allocator@D@2@@std@@AEAAAEAV01@_KV<lambda_319d5e083f45f90dcdce5dce53cbb275>@@D@Z 0000000140000000     Storage.obj
 0003:fffad000       $unwind$??$_Reallocate_grow_by@V<lambda_65e615be2a453ca0576c979606f46740>@@PEBD_K@?$basic_string@DU?$char_traits@D@std@@V?$allocator@D@2@@std@@AEAAAEAV01@_KV<lambda_65e615be2a453ca0576c979606f46740>@@PEBD_K@Z 0000000140000000     Storage.obj
 0003:fffad000       $unwind$??$_Traits_equal@U?$char_traits@D@std@@@std@@YA_NQEBD_K01@Z 0000000140000000     Storage.obj
 0003:fffad000       $unwind$??$_Unfancy@D@std@@YAPEADPEAD@Z 0000000140000000     Storage.obj
 0003:fffad000       $unwind$??$_Unfancy@U_Container_proxy@std@@@std@@YAPEAU_Container_proxy@0@PEAU10@@Z 0000000140000000     Storage.obj
 0003:fffad000       $unwind$??$_Ungetc@D@std@@YA_NAEBDPEAU_iobuf@@@Z 0000000140000000     Storage.obj
 0003:fffad000       $unwind$??$addressof@$$CBV?$_String_val@U?$_Simple_types@D@std@@@std@@@std@@YAPEBV?$_String_val@U?$_Simple_types@D@std@@@0@AEBV10@@Z 0000000140000000     Storage.obj
 0003:fffad000       $unwind$??$addressof@$$CBV?$codecvt@DDU_Mbstatet@@@std@@@std@@YAPEBV?$codecvt@DDU_Mbstatet@@@0@AEBV10@@Z 0000000140000000     Storage.obj
 0003:fffad000       $unwind$??$addressof@PEAD@std@@YAPEAPEADAEAPEAD@Z 0000000140000000     Storage.obj
 0003:fffad000       $unwind$??$addressof@U_Container_base12@std@@@std@@YAPEAU_Container_base12@0@AEAU10@@Z 0000000140000000     Storage.obj
 0003:fffad000       $unwind$??$addressof@U_Container_proxy@std@@@std@@YAPEAU_Container_proxy@0@AEAU10@@Z 0000000140000000     Storage.obj
 0003:fffad000       $unwind$??$addressof@V?$_String_val@U?$_Simple_types@D@std@@@std@@@std@@YAPEAV?$_String_val@U?$_Simple_types@D@std@@@0@AEAV10@@Z 0000000140000000     Storage.obj
 0003:fffad000       $unwind$??$addressof@V?$basic_filebuf@DU?$char_traits@D@std@@@std@@@std@@YAPEAV?$basic_filebuf@DU?$char_traits@D@std@@@0@AEAV10@@Z 0000000140000000     Storage.obj
 0003:fffad000       $unwind$??$endl@DU?$char_traits@D@std@@@std@@YAAEAV?$basic_ostream@DU?$char_traits@D@std@@@0@AEAV10@@Z 0000000140000000     Storage.obj
 0003:fffad000       $unwind$??$exchange@PEAU_Container_proxy@std@@$$T@std@@YAPEAU_Container_proxy@0@AEAPEAU10@$$QEA$$T@Z 0000000140000000     Storage.obj
 0003:fffad000       $unwind$??$exchange@PEAV_Facet_base@std@@PEAV12@@std@@YAPEAV_Facet_base@0@AEAPEAV10@$$QEAPEAV10@@Z 0000000140000000     Storage.obj
 0003:fffad000       $unwind$??$forward@AEAPEAV_Facet_base@std@@@std@@YAAEAPEAV_Facet_base@0@AEAPEAV10@@Z 0000000140000000     Storage.obj
 0003:fffad000       $unwind$??$forward@AEBQEAD@std@@YAAEBQEADAEBQEAD@Z 0000000140000000     Storage.obj
 0003:fffad000       $unwind$??$forward@PEAU_Container_base12@std@@@std@@YA$$QEAPEAU_Container_base12@0@AEAPEAU10@@Z 0000000140000000     Storage.obj
 0003:fffad000       $unwind$??$forward@V?$allocator@D@std@@@std@@YA$$QEAV?$allocator@D@0@AEAV10@@Z 0000000140000000     Storage.obj
 0003:fffad000       $unwind$??$getline@DU?$char_traits@D@std@@V?$allocator@D@2@@std@@YAAEAV?$basic_istream@DU?$char_traits@D@std@@@0@$$QEAV10@AEAV?$basic_string@DU?$char_traits@D@std@@V?$allocator@D@2@@0@D@Z 0000000140000000     Storage.obj
 0003:fffad000       $unwind$??$getline@DU?$char_traits@D@std@@V?$allocator@D@2@@std@@YAAEAV?$basic_istream@DU?$char_traits@D@std@@@0@AEAV10@AEAV?$basic_string@DU?$char_traits@D@std@@V?$allocator@D@2@@0@@Z 0000000140000000     Storage.obj
 0003:fffad000       $unwind$??$move@AEAV?$allocator@D@std@@@std@@YA$$QEAV?$allocator@D@0@AEAV10@@Z 0000000140000000     Storage.obj
 0003:fffad000       $unwind$??$move@AEAV?$basic_istream@DU?$char_traits@D@std@@@std@@@std@@YA$$QEAV?$basic_istream@DU?$char_traits@D@std@@@0@AEAV10@@Z 0000000140000000     Storage.obj
 0003:fffad000       $unwind$??$put_time@D@std@@YA?AU?$_Timeobj@DPEBUtm@@@0@PEBUtm@@PEBD@Z 0000000140000000     Storage.obj
 0003:fffad000       $unwind$??$use_facet@V?$codecvt@DDU_Mbstatet@@@std@@@std@@YAAEBV?$codecvt@DDU_Mbstatet@@@0@AEBVlocale@0@@Z 0000000140000000     Storage.obj
 0003:fffad000       $unwind$??$use_facet@V?$time_put@DV?$ostreambuf_iterator@DU?$char_traits@D@std@@@std@@@std@@@std@@YAAEBV?$time_put@DV?$ostreambuf_iterator@DU?$char_traits@D@std@@@std@@@0@AEBVlocale@0@@Z 0000000140000000     Storage.obj
 0003:fffad000       $unwind$??0?$_Container_proxy_ptr12@V?$allocator@U_Container_proxy@std@@@std@@@std@@QEAA@AEAV?$allocator@U_Container_proxy@std@@@1@AEAU_Container_base12@1@@Z 0000000140000000     Storage.obj
 0003:fffad000       $unwind$??0?$_String_val@U?$_Simple_types@D@std@@@std@@QEAA@XZ 0000000140000000     Storage.obj
 0003:fffad000       $unwind$??0?$_Timeobj@DPEBUtm@@@std@@QEAA@PEBUtm@@PEBD@Z 0000000140000000     Storage.obj
 0003:fffad000       $unwind$??0?$allocator@D@std@@QEAA@XZ 0000000140000000     Storage.obj
 0003:fffad000       $unwind$??0?$basic_filebuf@DU?$char_traits@D@std@@@std@@QEAA@PEAU_iobuf@@@Z 0000000140000000     Storage.obj
 0003:fffad000       $unwind$??0?$basic_ifstream@DU?$char_traits@D@std@@@std@@QEAA@PEBDHH@Z 0000000140000000     Storage.obj
 0003:fffad000       $unwind$??0?$basic_string@DU?$char_traits@D@std@@V?$allocator@D@2@@std@@QEAA@$$QEAV01@@Z 0000000140000000     Storage.obj
 0003:fffad000       $unwind$??0?$basic_string@DU?$char_traits@D@std@@V?$allocator@D@2@@std@@QEAA@AEBV01@@Z 0000000140000000     Storage.obj
 0003:fffad000       $unwind$??0?$basic_string@DU?$char_traits@D@std@@V?$allocator@D@2@@std@@QEAA@QEBD@Z 0000000140000000     Storage.obj
 0003:fffad000       $unwind$??0?$basic_string@DU?$char_traits@D@std@@V?$allocator@D@2@@std@@QEAA@XZ 0000000140000000     Storage.obj
 0003:fffad000       $unwind$??0?$fpos@U_Mbstatet@@@std@@QEAA@U_Mbstatet@@_J@Z 0000000140000000     Storage.obj
 0003:fffad000       $unwind$??0?$fpos@U_Mbstatet@@@std@@QEAA@_J@Z 0000000140000000     Storage.obj
 0003:fffad000       $unwind$??0?$ostreambuf_iterator@DU?$char_traits@D@std@@@std@@QEAA@PEAV?$basic_streambuf@DU?$char_traits@D@std@@@1@@Z 0000000140000000     Storage.obj
 0003:fffad000       $unwind$??0?$time_point@Usystem_clock@chrono@std@@V?$duration@_JU?$ratio@$00$0JIJGIA@@std@@@23@@chrono@std@@QEAA@AEBV?$duration@_JU?$ratio@$00$0JIJGIA@@std@@@12@@Z 0000000140000000     Storage.obj
 0003:fffad000       $unwind$??0LoggerHandler@Logging@technical_services_layer@@QEAA@AEAV?$basic_ostream@DU?$char_traits@D@std@@@std@@@Z 0000000140000000     Storage.obj
 0003:fffad000       $unwind$??0SimpleLogger@Logging@technical_services_layer@@QEAA@AEAV?$basic_ostream@DU?$char_traits@D@std@@@std@@@Z 0000000140000000     Storage.obj
 0003:fffad000       $unwind$??0_Bxty@?$_String_val@U?$_Simple_types@D@std@@@std@@QEAA@XZ 0000000140000000     Storage.obj
 0003:fffad000       $unwind$??0_Container_base12@std@@QEAA@XZ 0000000140000000     Storage.obj
 0003:fffad000       $unwind$??0_Container_proxy@std@@QEAA@PEAU_Container_base12@1@@Z 0000000140000000     Storage.obj
 0003:fffad000       $unwind$??0_Iterator_base12@std@@QEAA@AEBU01@@Z 0000000140000000     Storage.obj
 0003:fffad000       $unwind$??0_Iterator_base12@std@@QEAA@XZ 0000000140000000     Storage.obj
 0003:fffad000       $unwind$??0_Sentry_base@?$basic_istream@DU?$char_traits@D@std@@@std@@QEAA@AEAV12@@Z 0000000140000000     Storage.obj
 0003:fffad000       $unwind$??0_Sentry_base@?$basic_ostream@DU?$char_traits@D@std@@@std@@QEAA@AEAV12@@Z 0000000140000000     Storage.obj
 0003:fffad000       $unwind$??0bad_alloc@std@@AEAA@QEBD@Z 0000000140000000     Storage.obj
 0003:fffad000       $unwind$??0bad_alloc@std@@QEAA@AEBV01@@Z 0000000140000000     Storage.obj
 0003:fffad000       $unwind$??0bad_array_new_length@std@@QEAA@AEBV01@@Z 0000000140000000     Storage.obj
 0003:fffad000       $unwind$??0bad_array_new_length@std@@QEAA@XZ 0000000140000000     Storage.obj
 0003:fffad000       $unwind$??0bad_cast@std@@QEAA@AEBV01@@Z 0000000140000000     Storage.obj
 0003:fffad000       $unwind$??0bad_cast@std@@QEAA@XZ 0000000140000000     Storage.obj
 0003:fffad000       $unwind$??0exception@std@@QEAA@AEBV01@@Z 0000000140000000     Storage.obj
 0003:fffad000       $unwind$??0exception@std@@QEAA@QEBDH@Z 0000000140000000     Storage.obj
 0003:fffad000       $unwind$??0sentry@?$basic_istream@DU?$char_traits@D@std@@@std@@QEAA@AEAV12@_N@Z 0000000140000000     Storage.obj
 0003:fffad000       $unwind$??0sentry@?$basic_ostream@DU?$char_traits@D@std@@@std@@QEAA@AEAV12@@Z 0000000140000000     Storage.obj
 0003:fffad000       $unwind$??1?$_Compressed_pair@V?$allocator@D@std@@V?$_String_val@U?$_Simple_types@D@std@@@2@$00@std@@QEAA@XZ 0000000140000000     Storage.obj
 0003:fffad000       $unwind$??1?$_Container_proxy_ptr12@V?$allocator@U_Container_proxy@std@@@std@@@std@@QEAA@XZ 0000000140000000     Storage.obj
 0003:fffad000       $unwind$??1?$_String_val@U?$_Simple_types@D@std@@@std@@QEAA@XZ 0000000140000000     Storage.obj
 0003:fffad000       $unwind$??1?$basic_filebuf@DU?$char_traits@D@std@@@std@@UEAA@XZ 0000000140000000     Storage.obj
 0003:fffad000       $unwind$??1?$basic_ifstream@DU?$char_traits@D@std@@@std@@UEAA@XZ 0000000140000000     Storage.obj
 0003:fffad000       $unwind$??1?$basic_string@DU?$char_traits@D@std@@V?$allocator@D@2@@std@@QEAA@XZ 0000000140000000     Storage.obj
 0003:fffad000       $unwind$??1?$unique_ptr@V_Facet_base@std@@U?$default_delete@V_Facet_base@std@@@2@@std@@QEAA@XZ 0000000140000000     Storage.obj
 0003:fffad000       $unwind$??1LoggerHandler@Logging@technical_services_layer@@UEAA@XZ 0000000140000000     Storage.obj
 0003:fffad000       $unwind$??1SimpleLogger@Logging@technical_services_layer@@UEAA@XZ 0000000140000000     Storage.obj
 0003:fffad000       $unwind$??1_Bxty@?$_String_val@U?$_Simple_types@D@std@@@std@@QEAA@XZ 0000000140000000     Storage.obj
 0003:fffad000       $unwind$??1_Iterator_base12@std@@QEAA@XZ 0000000140000000     Storage.obj
 0003:fffad000       $unwind$??1_Sentry_base@?$basic_istream@DU?$char_traits@D@std@@@std@@QEAA@XZ 0000000140000000     Storage.obj
 0003:fffad000       $unwind$??1_Sentry_base@?$basic_ostream@DU?$char_traits@D@std@@@std@@QEAA@XZ 0000000140000000     Storage.obj
 0003:fffad000       $unwind$??1bad_alloc@std@@UEAA@XZ 0000000140000000     Storage.obj
 0003:fffad000       $unwind$??1bad_array_new_length@std@@UEAA@XZ 0000000140000000     Storage.obj
 0003:fffad000       $unwind$??1bad_cast@std@@UEAA@XZ 0000000140000000     Storage.obj
 0003:fffad000       $unwind$??1exception@std@@UEAA@XZ 0000000140000000     Storage.obj
 0003:fffad000       $unwind$??1locale@std@@QEAA@XZ 0000000140000000     Storage.obj
 0003:fffad000       $unwind$??1sentry@?$basic_istream@DU?$char_traits@D@std@@@std@@QEAA@XZ 0000000140000000     Storage.obj
 0003:fffad000       $unwind$??1sentry@?$basic_ostream@DU?$char_traits@D@std@@@std@@QEAA@XZ 0000000140000000     Storage.obj
 0003:fffad000       $unwind$??2@YAPEAX_KPEAX@Z 0000000140000000     Storage.obj
 0003:fffad000       $unwind$??4_Iterator_base12@std@@QEAAAEAU01@AEBU01@@Z 0000000140000000     Storage.obj
 0003:fffad000       $unwind$??6SimpleLogger@Logging@technical_services_layer@@UEAAAEAV012@AEBV?$basic_string@DU?$char_traits@D@std@@V?$allocator@D@2@@std@@@Z 0000000140000000     Storage.obj
 0003:fffad000       $unwind$??B?$fpos@U_Mbstatet@@@std@@QEBA_JXZ 0000000140000000     Storage.obj
 0003:fffad000       $unwind$??Bsentry@?$basic_istream@DU?$char_traits@D@std@@@std@@QEBA_NXZ 0000000140000000     Storage.obj
 0003:fffad000       $unwind$??Bsentry@?$basic_ostream@DU?$char_traits@D@std@@@std@@QEBA_NXZ 0000000140000000     Storage.obj
 0003:fffad000       $unwind$??R<lambda_319d5e083f45f90dcdce5dce53cbb275>@@QEBA@QEADQEBD_KD@Z 0000000140000000     Storage.obj
 0003:fffad000       $unwind$??R<lambda_65e615be2a453ca0576c979606f46740>@@QEBA@QEADQEBD_K12@Z 0000000140000000     Storage.obj
 0003:fffad000       $unwind$??R<lambda_66f57f934f28d61049862f64df852ff0>@@QEBA@QEAD_KQEBD@Z 0000000140000000     Storage.obj
 0003:fffad000       $unwind$??R?$default_delete@V_Facet_base@std@@@std@@QEBAXPEAV_Facet_base@1@@Z 0000000140000000     Storage.obj
 0003:fffad000       $unwind$??Y?$basic_string@DU?$char_traits@D@std@@V?$allocator@D@2@@std@@QEAAAEAV01@D@Z 0000000140000000     Storage.obj
 0003:fffad000       $unwind$??_D?$basic_ifstream@DU?$char_traits@D@std@@@std@@QEAAXXZ 0000000140000000     Storage.obj
 0003:fffad000       $unwind$??_G?$basic_filebuf@DU?$char_traits@D@std@@@std@@UEAAPEAXI@Z 0000000140000000     Storage.obj
 0003:fffad000       $unwind$??_G?$basic_ifstream@DU?$char_traits@D@std@@@std@@UEAAPEAXI@Z 0000000140000000     Storage.obj
 0003:fffad000       $unwind$??_GSimpleLogger@Logging@technical_services_layer@@UEAAPEAXI@Z 0000000140000000     Storage.obj
 0003:fffad000       $unwind$??_Gbad_alloc@std@@UEAAPEAXI@Z 0000000140000000     Storage.obj
 0003:fffad000       $unwind$??_Gbad_array_new_length@std@@UEAAPEAXI@Z 0000000140000000     Storage.obj
 0003:fffad000       $unwind$??_Gbad_cast@std@@UEAAPEAXI@Z 0000000140000000     Storage.obj
 0003:fffad000       $unwind$??_Gexception@std@@UEAAPEAXI@Z 0000000140000000     Storage.obj
 0003:fffad000       $unwind$?_Adjust_manually_vector_aligned@std@@YAXAEAPEAXAEA_K@Z 0000000140000000     Storage.obj
 0003:fffad000       $unwind$?_Adopt@_Iterator_base12@std@@QEAAXPEBU_Container_base12@2@@Z 0000000140000000     Storage.obj
 0003:fffad000       $unwind$?_Allocate@_Default_allocate_traits@std@@SAPEAX_K@Z 0000000140000000     Storage.obj
 0003:fffad000       $unwind$?_Calculate_growth@?$basic_string@DU?$char_traits@D@std@@V?$allocator@D@2@@std@@AEBA_K_K@Z 0000000140000000     Storage.obj
 0003:fffad000       $unwind$?_Calculate_growth@?$basic_string@DU?$char_traits@D@std@@V?$allocator@D@2@@std@@CA_K_K00@Z 0000000140000000     Storage.obj
 0003:fffad000       $unwind$?_Check_offset@?$_String_val@U?$_Simple_types@D@std@@@std@@QEBAX_K@Z 0000000140000000     Storage.obj
 0003:fffad000       $unwind$?_Clamp_suffix_size@?$_String_val@U?$_Simple_types@D@std@@@std@@QEBA_K_K0@Z 0000000140000000     Storage.obj
 0003:fffad000       $unwind$?_Construct_lv_contents@?$basic_string@DU?$char_traits@D@std@@V?$allocator@D@2@@std@@AEAAXAEBV12@@Z 0000000140000000     Storage.obj
 0003:fffad000       $unwind$?_Endwrite@?$basic_filebuf@DU?$char_traits@D@std@@@std@@IEAA_NXZ 0000000140000000     Storage.obj
 0003:fffad000       $unwind$?_Eos@?$basic_string@DU?$char_traits@D@std@@V?$allocator@D@2@@std@@AEAAX_K@Z 0000000140000000     Storage.obj
 0003:fffad000       $unwind$?_Equal@?$basic_string@DU?$char_traits@D@std@@V?$allocator@D@2@@std@@QEBA_NQEBD@Z 0000000140000000     Storage.obj
 0003:fffad000       $unwind$?_Get_first@?$_Compressed_pair@U?$default_delete@V_Facet_base@std@@@std@@PEAV_Facet_base@2@$00@std@@QEAAAEAU?$default_delete@V_Facet_base@std@@@2@XZ 0000000140000000     Storage.obj
 0003:fffad000       $unwind$?_Get_first@?$_Compressed_pair@V?$allocator@D@std@@V?$_String_val@U?$_Simple_types@D@std@@@2@$00@std@@QEAAAEAV?$allocator@D@2@XZ 0000000140000000     Storage.obj
 0003:fffad000       $unwind$?_Get_first@?$_Compressed_pair@V?$allocator@D@std@@V?$_String_val@U?$_Simple_types@D@std@@@2@$00@std@@QEBAAEBV?$allocator@D@2@XZ 0000000140000000     Storage.obj
 0003:fffad000       $unwind$?_Getal@?$basic_string@DU?$char_traits@D@std@@V?$allocator@D@2@@std@@AEAAAEAV?$allocator@D@2@XZ 0000000140000000     Storage.obj
 0003:fffad000       $unwind$?_Getal@?$basic_string@DU?$char_traits@D@std@@V?$allocator@D@2@@std@@AEBAAEBV?$allocator@D@2@XZ 0000000140000000     Storage.obj
 0003:fffad000       $unwind$?_Getcont@_Iterator_base12@std@@QEBAPEBU_Container_base12@2@XZ 0000000140000000     Storage.obj
 0003:fffad000       $unwind$?_Getfacet@locale@std@@QEBAPEBVfacet@12@_K@Z 0000000140000000     Storage.obj
 0003:fffad000       $unwind$?_Init@?$basic_filebuf@DU?$char_traits@D@std@@@std@@IEAAXPEAU_iobuf@@W4_Initfl@12@@Z 0000000140000000     Storage.obj
 0003:fffad000       $unwind$?_Initcvt@?$basic_filebuf@DU?$char_traits@D@std@@@std@@IEAAXAEBV?$codecvt@DDU_Mbstatet@@@2@@Z 0000000140000000     Storage.obj
 0003:fffad000       $unwind$?_Large_string_engaged@?$_String_val@U?$_Simple_types@D@std@@@std@@QEBA_NXZ 0000000140000000     Storage.obj
 0003:fffad000       $unwind$?_Lock@?$basic_filebuf@DU?$char_traits@D@std@@@std@@UEAAXXZ 0000000140000000     Storage.obj
 0003:fffad000       $unwind$?_Maklocwcs@std@@YAPEA_WPEB_W@Z 0000000140000000     Storage.obj
 0003:fffad000       $unwind$?_Memcpy_val_from@?$basic_string@DU?$char_traits@D@std@@V?$allocator@D@2@@std@@AEAAXAEBV12@@Z 0000000140000000     Storage.obj
 0003:fffad000       $unwind$?_Myptr@?$_String_val@U?$_Simple_types@D@std@@@std@@QEAAPEADXZ 0000000140000000     Storage.obj
 0003:fffad000       $unwind$?_Myptr@?$_String_val@U?$_Simple_types@D@std@@@std@@QEBAPEBDXZ 0000000140000000     Storage.obj
 0003:fffad000       $unwind$?_Orphan_all@_Container_base12@std@@QEAAXXZ 0000000140000000     Storage.obj
 0003:fffad000       $unwind$?_Orphan_me@_Iterator_base12@std@@QEAAXXZ 0000000140000000     Storage.obj
 0003:fffad000       $unwind$?_Release@_Basic_container_proxy_ptr12@std@@QEAAXXZ 0000000140000000     Storage.obj
 0003:fffad000       $unwind$?_Reset_back@?$basic_filebuf@DU?$char_traits@D@std@@@std@@AEAAXXZ 0000000140000000     Storage.obj
 0003:fffad000       $unwind$?_Set_back@?$basic_filebuf@DU?$char_traits@D@std@@@std@@AEAAXXZ 0000000140000000     Storage.obj
 0003:fffad000       $unwind$?_Swap_proxy_and_iterators@?$basic_string@DU?$char_traits@D@std@@V?$allocator@D@2@@std@@AEAAXAEAV12@@Z 0000000140000000     Storage.obj
 0003:fffad000       $unwind$?_Swap_proxy_and_iterators@_Container_base12@std@@QEAAXAEAU12@@Z 0000000140000000     Storage.obj
 0003:fffad000       $unwind$?_Take_contents@?$basic_string@DU?$char_traits@D@std@@V?$allocator@D@2@@std@@AEAAXAEAV12@U?$integral_constant@_N$00@2@@Z 0000000140000000     Storage.obj
 0003:fffad000       $unwind$?_Throw_bad_array_new_length@std@@YAXXZ 0000000140000000     Storage.obj
 0003:fffad000       $unwind$?_Throw_bad_cast@std@@YAXXZ 0000000140000000     Storage.obj
 0003:fffad000       $unwind$?_Tidy_deallocate@?$basic_string@DU?$char_traits@D@std@@V?$allocator@D@2@@std@@AEAAXXZ 0000000140000000     Storage.obj
 0003:fffad000       $unwind$?_Tidy_init@?$basic_string@DU?$char_traits@D@std@@V?$allocator@D@2@@std@@AEAAXXZ 0000000140000000     Storage.obj
 0003:fffad000       $unwind$?_Unlock@?$basic_filebuf@DU?$char_traits@D@std@@@std@@UEAAXXZ 0000000140000000     Storage.obj
 0003:fffad000       $unwind$?_Xlen@?$basic_string@DU?$char_traits@D@std@@V?$allocator@D@2@@std@@CAXXZ 0000000140000000     Storage.obj
 0003:fffad000       $unwind$?_Xran@?$_String_val@U?$_Simple_types@D@std@@@std@@SAXXZ 0000000140000000     Storage.obj
 0003:fffad000       $unwind$?__autoclassinit2@?$basic_ifstream@DU?$char_traits@D@std@@@std@@QEAAX_K@Z 0000000140000000     Storage.obj
 0003:fffad000       $unwind$?__autoclassinit2@?$unique_ptr@V_Facet_base@std@@U?$default_delete@V_Facet_base@std@@@2@@std@@QEAAX_K@Z 0000000140000000     Storage.obj
 0003:fffad000       $unwind$?__empty_global_delete@@YAXPEAX@Z 0000000140000000     Storage.obj
 0003:fffad000       $unwind$?__empty_global_delete@@YAXPEAXW4align_val_t@std@@@Z 0000000140000000     Storage.obj
 0003:fffad000       $unwind$?__empty_global_delete@@YAXPEAX_K@Z 0000000140000000     Storage.obj
 0003:fffad000       $unwind$?__empty_global_delete@@YAXPEAX_KW4align_val_t@std@@@Z 0000000140000000     Storage.obj
 0003:fffad000       $unwind$?allocate@?$allocator@D@std@@QEAAPEAD_K@Z 0000000140000000     Storage.obj
 0003:fffad000       $unwind$?allocate@?$allocator@U_Container_proxy@std@@@std@@QEAAPEAU_Container_proxy@2@_K@Z 0000000140000000     Storage.obj
 0003:fffad000       $unwind$?append@?$basic_string@DU?$char_traits@D@std@@V?$allocator@D@2@@std@@QEAAAEAV12@AEBV12@@Z 0000000140000000     Storage.obj
 0003:fffad000       $unwind$?append@?$basic_string@DU?$char_traits@D@std@@V?$allocator@D@2@@std@@QEAAAEAV12@QEBD@Z 0000000140000000     Storage.obj
 0003:fffad000       $unwind$?append@?$basic_string@DU?$char_traits@D@std@@V?$allocator@D@2@@std@@QEAAAEAV12@QEBD_K@Z 0000000140000000     Storage.obj
 0003:fffad000       $unwind$?assign@?$_Narrow_char_traits@DH@std@@SAXAEADAEBD@Z 0000000140000000     Storage.obj
 0003:fffad000       $unwind$?assign@?$basic_string@DU?$char_traits@D@std@@V?$allocator@D@2@@std@@QEAAAEAV12@QEBD@Z 0000000140000000     Storage.obj
 0003:fffad000       $unwind$?assign@?$basic_string@DU?$char_traits@D@std@@V?$allocator@D@2@@std@@QEAAAEAV12@QEBD_K@Z 0000000140000000     Storage.obj
 0003:fffad000       $unwind$?c_str@?$basic_string@DU?$char_traits@D@std@@V?$allocator@D@2@@std@@QEBAPEBDXZ 0000000140000000     Storage.obj
 0003:fffad000       $unwind$?catch$1@?0???$?6U?$char_traits@D@std@@@std@@YAAEAV?$basic_ostream@DU?$char_traits@D@std@@@0@AEAV10@D@Z@4HA 0000000140000000     Storage.obj
 0003:fffad000       $unwind$?catch$1@?0???$?6U?$char_traits@D@std@@@std@@YAAEAV?$basic_ostream@DU?$char_traits@D@std@@@0@AEAV10@PEBD@Z@4HA 0000000140000000     Storage.obj
 0003:fffad000       $unwind$?catch$1@?0???$_Insert_string@DU?$char_traits@D@std@@_K@std@@YAAEAV?$basic_ostream@DU?$char_traits@D@std@@@0@AEAV10@QEBD_K@Z@4HA 0000000140000000     Storage.obj
 0003:fffad000       $unwind$?catch$1@?0???$getline@DU?$char_traits@D@std@@V?$allocator@D@2@@std@@YAAEAV?$basic_istream@DU?$char_traits@D@std@@@0@$$QEAV10@AEAV?$basic_string@DU?$char_traits@D@std@@V?$allocator@D@2@@0@D@Z@4HA 0000000140000000     Storage.obj
 0003:fffad000       $unwind$?catch$2@?0???$?6DU?$char_traits@D@std@@D@std@@YAAEAV?$basic_ostream@DU?$char_traits@D@std@@@0@AEAV10@AEBU?$_Timeobj@DPEBUtm@@@0@@Z@4HA 0000000140000000     Storage.obj
 0003:fffad000       $unwind$?close@?$basic_filebuf@DU?$char_traits@D@std@@@std@@QEAAPEAV12@XZ 0000000140000000     Storage.obj
 0003:fffad000       $unwind$?close@?$basic_ifstream@DU?$char_traits@D@std@@@std@@QEAAXXZ 0000000140000000     Storage.obj
 0003:fffad000       $unwind$?compare@?$_Narrow_char_traits@DH@std@@SAHQEBD0_K@Z 0000000140000000     Storage.obj
 0003:fffad000       $unwind$?copy@?$_Narrow_char_traits@DH@std@@SAPEADQEADQEBD_K@Z 0000000140000000     Storage.obj
 0003:fffad000       $unwind$?count@?$duration@_JU?$ratio@$00$0JIJGIA@@std@@@chrono@std@@QEBA_JXZ 0000000140000000     Storage.obj
 0003:fffad000       $unwind$?data@?$basic_string@DU?$char_traits@D@std@@V?$allocator@D@2@@std@@QEAAPEADXZ 0000000140000000     Storage.obj
 0003:fffad000       $unwind$?data@?$basic_string@DU?$char_traits@D@std@@V?$allocator@D@2@@std@@QEBAPEBDXZ 0000000140000000     Storage.obj
 0003:fffad000       $unwind$?deallocate@?$_Default_allocator_traits@V?$allocator@U_Container_proxy@std@@@std@@@std@@SAXAEAV?$allocator@U_Container_proxy@std@@@2@QEAU_Container_proxy@2@_K@Z 0000000140000000     Storage.obj
 0003:fffad000       $unwind$?deallocate@?$allocator@D@std@@QEAAXQEAD_K@Z 0000000140000000     Storage.obj
 0003:fffad000       $unwind$?dtor$0@?0???$?6DU?$char_traits@D@std@@D@std@@YAAEAV?$basic_ostream@DU?$char_traits@D@std@@@0@AEAV10@AEBU?$_Timeobj@DPEBUtm@@@0@@Z@4HA 0000000140000000     Storage.obj
 0003:fffad000       $unwind$?dtor$0@?0???$?6U?$char_traits@D@std@@@std@@YAAEAV?$basic_ostream@DU?$char_traits@D@std@@@0@AEAV10@D@Z@4HA 0000000140000000     Storage.obj
 0003:fffad000       $unwind$?dtor$0@?0???$?6U?$char_traits@D@std@@@std@@YAAEAV?$basic_ostream@DU?$char_traits@D@std@@@0@AEAV10@PEBD@Z@4HA 0000000140000000     Storage.obj
 0003:fffad000       $unwind$?dtor$0@?0???$_Insert_string@DU?$char_traits@D@std@@_K@std@@YAAEAV?$basic_ostream@DU?$char_traits@D@std@@@0@AEAV10@QEBD_K@Z@4HA 0000000140000000     Storage.obj
 0003:fffad000       $unwind$?dtor$0@?0???$getline@DU?$char_traits@D@std@@V?$allocator@D@2@@std@@YAAEAV?$basic_istream@DU?$char_traits@D@std@@@0@$$QEAV10@AEAV?$basic_string@DU?$char_traits@D@std@@V?$allocator@D@2@@0@D@Z@4HA 0000000140000000     Storage.obj
 0003:fffad000       $unwind$?dtor$0@?0???$use_facet@V?$codecvt@DDU_Mbstatet@@@std@@@std@@YAAEBV?$codecvt@DDU_Mbstatet@@@0@AEBVlocale@0@@Z@4HA 0000000140000000     Storage.obj
 0003:fffad000       $unwind$?dtor$0@?0???$use_facet@V?$time_put@DV?$ostreambuf_iterator@DU?$char_traits@D@std@@@std@@@std@@@std@@YAAEBV?$time_put@DV?$ostreambuf_iterator@DU?$char_traits@D@std@@@std@@@0@AEBVlocale@0@@Z@4HA 0000000140000000     Storage.obj
 0003:fffad000       $unwind$?dtor$0@?0???0?$basic_filebuf@DU?$char_traits@D@std@@@std@@QEAA@PEAU_iobuf@@@Z@4HA 0000000140000000     Storage.obj
 0003:fffad000       $unwind$?dtor$0@?0???0?$basic_ifstream@DU?$char_traits@D@std@@@std@@QEAA@PEBDHH@Z@4HA 0000000140000000     Storage.obj
 0003:fffad000       $unwind$?dtor$0@?0???0?$basic_string@DU?$char_traits@D@std@@V?$allocator@D@2@@std@@QEAA@AEBV01@@Z@4HA 0000000140000000     Storage.obj
 0003:fffad000       $unwind$?dtor$0@?0???0?$basic_string@DU?$char_traits@D@std@@V?$allocator@D@2@@std@@QEAA@QEBD@Z@4HA 0000000140000000     Storage.obj
 0003:fffad000       $unwind$?dtor$0@?0???0SimpleLogger@Logging@technical_services_layer@@QEAA@AEAV?$basic_ostream@DU?$char_traits@D@std@@@std@@@Z@4HA 0000000140000000     Storage.obj
 0003:fffad000       $unwind$?dtor$0@?0???0sentry@?$basic_istream@DU?$char_traits@D@std@@@std@@QEAA@AEAV12@_N@Z@4HA 0000000140000000     Storage.obj
 0003:fffad000       $unwind$?dtor$0@?0???0sentry@?$basic_ostream@DU?$char_traits@D@std@@@std@@QEAA@AEAV12@@Z@4HA 0000000140000000     Storage.obj
 0003:fffad000       $unwind$?dtor$0@?0??open@?$basic_filebuf@DU?$char_traits@D@std@@@std@@QEAAPEAV12@PEBDHH@Z@4HA 0000000140000000     Storage.obj
 0003:fffad000       $unwind$?dtor$0@?0??uflow@?$basic_filebuf@DU?$char_traits@D@std@@@std@@MEAAHXZ@4HA 0000000140000000     Storage.obj
 0003:fffad000       $unwind$?dtor$1@?0???$?6DU?$char_traits@D@std@@D@std@@YAAEAV?$basic_ostream@DU?$char_traits@D@std@@@0@AEAV10@AEBU?$_Timeobj@DPEBUtm@@@0@@Z@4HA 0000000140000000     Storage.obj
 0003:fffad000       $unwind$?dtor$1@?0???$use_facet@V?$codecvt@DDU_Mbstatet@@@std@@@std@@YAAEBV?$codecvt@DDU_Mbstatet@@@0@AEBVlocale@0@@Z@4HA 0000000140000000     Storage.obj
 0003:fffad000       $unwind$?dtor$1@?0???$use_facet@V?$time_put@DV?$ostreambuf_iterator@DU?$char_traits@D@std@@@std@@@std@@@std@@YAAEBV?$time_put@DV?$ostreambuf_iterator@DU?$char_traits@D@std@@@std@@@0@AEBVlocale@0@@Z@4HA 0000000140000000     Storage.obj
 0003:fffad000       $unwind$?dtor$1@?0???0?$basic_ifstream@DU?$char_traits@D@std@@@std@@QEAA@PEBDHH@Z@4HA 0000000140000000     Storage.obj
 0003:fffad000       $unwind$?dtor$1@?0???0?$basic_string@DU?$char_traits@D@std@@V?$allocator@D@2@@std@@QEAA@AEBV01@@Z@4HA 0000000140000000     Storage.obj
 0003:fffad000       $unwind$?dtor$1@?0???0?$basic_string@DU?$char_traits@D@std@@V?$allocator@D@2@@std@@QEAA@QEBD@Z@4HA 0000000140000000     Storage.obj
 0003:fffad000       $unwind$?dtor$1@?0???0SimpleLogger@Logging@technical_services_layer@@QEAA@AEAV?$basic_ostream@DU?$char_traits@D@std@@@std@@@Z@4HA 0000000140000000     Storage.obj
 0003:fffad000       $unwind$?dtor$2@?0???0?$basic_ifstream@DU?$char_traits@D@std@@@std@@QEAA@PEBDHH@Z@4HA 0000000140000000     Storage.obj
 0003:fffad000       $unwind$?eof@?$_Narrow_char_traits@DH@std@@SAHXZ 0000000140000000     Storage.obj
 0003:fffad000       $unwind$?eq_int_type@?$_Narrow_char_traits@DH@std@@SA_NAEBH0@Z 0000000140000000     Storage.obj
 0003:fffad000       $unwind$?erase@?$basic_string@DU?$char_traits@D@std@@V?$allocator@D@2@@std@@QEAAAEAV12@_K@Z 0000000140000000     Storage.obj
 0003:fffad000       $unwind$?erase@?$basic_string@DU?$char_traits@D@std@@V?$allocator@D@2@@std@@QEAAAEAV12@_K_K@Z 0000000140000000     Storage.obj
 0003:fffad000       $unwind$?failed@?$ostreambuf_iterator@DU?$char_traits@D@std@@@std@@QEBA_NXZ 0000000140000000     Storage.obj
 0003:fffad000       $unwind$?front@?$basic_string@DU?$char_traits@D@std@@V?$allocator@D@2@@std@@QEAAAEADXZ 0000000140000000     Storage.obj
 0003:fffad000       $unwind$?imbue@?$basic_filebuf@DU?$char_traits@D@std@@@std@@MEAAXAEBVlocale@2@@Z 0000000140000000     Storage.obj
 0003:fffad000       $unwind$?is_open@?$basic_filebuf@DU?$char_traits@D@std@@@std@@QEBA_NXZ 0000000140000000     Storage.obj
 0003:fffad000       $unwind$?is_open@?$basic_ifstream@DU?$char_traits@D@std@@@std@@QEBA_NXZ 0000000140000000     Storage.obj
 0003:fffad000       $unwind$?length@?$_Narrow_char_traits@DH@std@@SA_KQEBD@Z 0000000140000000     Storage.obj
 0003:fffad000       $unwind$?max@?$numeric_limits@_J@std@@SA_JXZ 0000000140000000     Storage.obj
 0003:fffad000       $unwind$?max_size@?$_Default_allocator_traits@V?$allocator@D@std@@@std@@SA_KAEBV?$allocator@D@2@@Z 0000000140000000     Storage.obj
 0003:fffad000       $unwind$?max_size@?$basic_string@DU?$char_traits@D@std@@V?$allocator@D@2@@std@@QEBA_KXZ 0000000140000000     Storage.obj
 0003:fffad000       $unwind$?move@?$_Narrow_char_traits@DH@std@@SAPEADQEADQEBD_K@Z 0000000140000000     Storage.obj
 0003:fffad000       $unwind$?not_eof@?$_Narrow_char_traits@DH@std@@SAHAEBH@Z 0000000140000000     Storage.obj
 0003:fffad000       $unwind$?now@system_clock@chrono@std@@SA?AV?$time_point@Usystem_clock@chrono@std@@V?$duration@_JU?$ratio@$00$0JIJGIA@@std@@@23@@23@XZ 0000000140000000     Storage.obj
 0003:fffad000       $unwind$?open@?$basic_filebuf@DU?$char_traits@D@std@@@std@@QEAAPEAV12@PEBDHH@Z 0000000140000000     Storage.obj
 0003:fffad000       $unwind$?overflow@?$basic_filebuf@DU?$char_traits@D@std@@@std@@MEAAHH@Z 0000000140000000     Storage.obj
 0003:fffad000       $unwind$?pbackfail@?$basic_filebuf@DU?$char_traits@D@std@@@std@@MEAAHH@Z 0000000140000000     Storage.obj
 0003:fffad000       $unwind$?push_back@?$basic_string@DU?$char_traits@D@std@@V?$allocator@D@2@@std@@QEAAXD@Z 0000000140000000     Storage.obj
 0003:fffad000       $unwind$?release@?$unique_ptr@V_Facet_base@std@@U?$default_delete@V_Facet_base@std@@@2@@std@@QEAAPEAV_Facet_base@2@XZ 0000000140000000     Storage.obj
 0003:fffad000       $unwind$?seekoff@?$basic_filebuf@DU?$char_traits@D@std@@@std@@MEAA?AV?$fpos@U_Mbstatet@@@2@_JHH@Z 0000000140000000     Storage.obj
 0003:fffad000       $unwind$?seekpos@?$basic_filebuf@DU?$char_traits@D@std@@@std@@MEAA?AV?$fpos@U_Mbstatet@@@2@V32@H@Z 0000000140000000     Storage.obj
 0003:fffad000       $unwind$?select_on_container_copy_construction@?$_Default_allocator_traits@V?$allocator@D@std@@@std@@SA?AV?$allocator@D@2@AEBV32@@Z 0000000140000000     Storage.obj
 0003:fffad000       $unwind$?setbuf@?$basic_filebuf@DU?$char_traits@D@std@@@std@@MEAAPEAV?$basic_streambuf@DU?$char_traits@D@std@@@2@PEAD_J@Z 0000000140000000     Storage.obj
 0003:fffad000       $unwind$?size@?$basic_string@DU?$char_traits@D@std@@V?$allocator@D@2@@std@@QEBA_KXZ 0000000140000000     Storage.obj
 0003:fffad000       $unwind$?state@?$fpos@U_Mbstatet@@@std@@QEBA?AU_Mbstatet@@XZ 0000000140000000     Storage.obj
 0003:fffad000       $unwind$?sync@?$basic_filebuf@DU?$char_traits@D@std@@@std@@MEAAHXZ 0000000140000000     Storage.obj
 0003:fffad000       $unwind$?time_since_epoch@?$time_point@Usystem_clock@chrono@std@@V?$duration@_JU?$ratio@$00$0JIJGIA@@std@@@23@@chrono@std@@QEBA?AV?$duration@_JU?$ratio@$00$0JIJGIA@@std@@@23@XZ 0000000140000000     Storage.obj
 0003:fffad000       $unwind$?to_char_type@?$_Narrow_char_traits@DH@std@@SADAEBH@Z 0000000140000000     Storage.obj
 0003:fffad000       $unwind$?to_int_type@?$_Narrow_char_traits@DH@std@@SAHAEBD@Z 0000000140000000     Storage.obj
 0003:fffad000       $unwind$?to_time_t@system_clock@chrono@std@@SA_JAEBV?$time_point@Usystem_clock@chrono@std@@V?$duration@_JU?$ratio@$00$0JIJGIA@@std@@@23@@23@@Z 0000000140000000     Storage.obj
 0003:fffad000       $unwind$?uflow@?$basic_filebuf@DU?$char_traits@D@std@@@std@@MEAAHXZ 0000000140000000     Storage.obj
 0003:fffad000       $unwind$?underflow@?$basic_filebuf@DU?$char_traits@D@std@@@std@@MEAAHXZ 0000000140000000     Storage.obj
 0003:fffad000       $unwind$?what@exception@std@@UEBAPEBDXZ 0000000140000000     Storage.obj
 0003:fffad000       $unwind$?xsgetn@?$basic_filebuf@DU?$char_traits@D@std@@@std@@MEAA_JPEAD_J@Z 0000000140000000     Storage.obj
 0003:fffad000       $unwind$?xsputn@?$basic_filebuf@DU?$char_traits@D@std@@@std@@MEAA_JPEBD_J@Z 0000000140000000     Storage.obj
 0003:fffad000       $unwind$wmemcpy            0000000140000000     Storage.obj
 0003:fffad000       ??$?6DU?$char_traits@D@std@@D@std@@YAAEAV?$basic_ostream@DU?$char_traits@D@std@@@0@AEAV10@AEBU?$_Timeobj@DPEBUtm@@@0@@Z$rtcName$0 0000000140000000     Storage.obj
 0003:fffad000       ??$?6U?$char_traits@D@std@@@std@@YAAEAV?$basic_ostream@DU?$char_traits@D@std@@@0@AEAV10@D@Z$rtcName$0 0000000140000000     Storage.obj
 0003:fffad000       ??$?6U?$char_traits@D@std@@@std@@YAAEAV?$basic_ostream@DU?$char_traits@D@std@@@0@AEAV10@PEBD@Z$rtcName$0 0000000140000000     Storage.obj
 0003:fffad000       ??$_Insert_string@DU?$char_traits@D@std@@_K@std@@YAAEAV?$basic_ostream@DU?$char_traits@D@std@@@0@AEAV10@QEBD_K@Z$rtcName$0 0000000140000000     Storage.obj
 0003:fffad000       ??$_Maklocstr@_W@std@@YAPEA_WPEBDPEA_WAEBU_Cvtvec@@@Z$rtcName$0 0000000140000000     Storage.obj
 0003:fffad000       ??$_Reallocate_for@V<lambda_66f57f934f28d61049862f64df852ff0>@@PEBD@?$basic_string@DU?$char_traits@D@std@@V?$allocator@D@2@@std@@AEAAAEAV01@_KV<lambda_66f57f934f28d61049862f64df852ff0>@@PEBD@Z$rtcName$0 0000000140000000     Storage.obj
 0003:fffad000       ??$_Reallocate_grow_by@V<lambda_319d5e083f45f90dcdce5dce53cbb275>@@D@?$basic_string@DU?$char_traits@D@std@@V?$allocator@D@2@@std@@AEAAAEAV01@_KV<lambda_319d5e083f45f90dcdce5dce53cbb275>@@D@Z$rtcName$0 0000000140000000     Storage.obj
 0003:fffad000       ??$_Reallocate_grow_by@V<lambda_65e615be2a453ca0576c979606f46740>@@PEBD_K@?$basic_string@DU?$char_traits@D@std@@V?$allocator@D@2@@std@@AEAAAEAV01@_KV<lambda_65e615be2a453ca0576c979606f46740>@@PEBD_K@Z$rtcName$0 0000000140000000     Storage.obj
 0003:fffad000       ??$getline@DU?$char_traits@D@std@@V?$allocator@D@2@@std@@YAAEAV?$basic_istream@DU?$char_traits@D@std@@@0@$$QEAV10@AEAV?$basic_string@DU?$char_traits@D@std@@V?$allocator@D@2@@0@D@Z$rtcName$0 0000000140000000     Storage.obj
 0003:fffad000       ??$use_facet@V?$codecvt@DDU_Mbstatet@@@std@@@std@@YAAEBV?$codecvt@DDU_Mbstatet@@@0@AEBVlocale@0@@Z$rtcName$0 0000000140000000     Storage.obj
 0003:fffad000       ??$use_facet@V?$time_put@DV?$ostreambuf_iterator@DU?$char_traits@D@std@@@std@@@std@@@std@@YAAEBV?$time_put@DV?$ostreambuf_iterator@DU?$char_traits@D@std@@@std@@@0@AEBVlocale@0@@Z$rtcName$0 0000000140000000     Storage.obj
 0003:fffad000       ??0?$basic_string@DU?$char_traits@D@std@@V?$allocator@D@2@@std@@QEAA@AEBV01@@Z$rtcName$0 0000000140000000     Storage.obj
 0003:fffad000       ??0?$basic_string@DU?$char_traits@D@std@@V?$allocator@D@2@@std@@QEAA@QEBD@Z$rtcName$0 0000000140000000     Storage.obj
 0003:fffad000       ??1?$basic_string@DU?$char_traits@D@std@@V?$allocator@D@2@@std@@QEAA@XZ$rtcName$0 0000000140000000     Storage.obj
 0003:fffad000       ??1_Iterator_base12@std@@QEAA@XZ$rtcName$0 0000000140000000     Storage.obj
 0003:fffad000       ??4_Iterator_base12@std@@QEAAAEAU01@AEBU01@@Z$rtcName$0 0000000140000000     Storage.obj
 0003:fffad000       ??6SimpleLogger@Logging@technical_services_layer@@UEAAAEAV012@AEBV?$basic_string@DU?$char_traits@D@std@@V?$allocator@D@2@@std@@@Z$rtcName$0 0000000140000000     Storage.obj
 0003:fffad000       ?_Adopt@_Iterator_base12@std@@QEAAXPEBU_Container_base12@2@@Z$rtcName$0 0000000140000000     Storage.obj
 0003:fffad000       ?_Calculate_growth@?$basic_string@DU?$char_traits@D@std@@V?$allocator@D@2@@std@@CA_K_K00@Z$rtcName$0 0000000140000000     Storage.obj
 0003:fffad000       ?_Construct_lv_contents@?$basic_string@DU?$char_traits@D@std@@V?$allocator@D@2@@std@@AEAAXAEBV12@@Z$rtcName$0 0000000140000000     Storage.obj
 0003:fffad000       ?_Endwrite@?$basic_filebuf@DU?$char_traits@D@std@@@std@@IEAA_NXZ$rtcName$0 0000000140000000     Storage.obj
 0003:fffad000       ?_Init@?$basic_filebuf@DU?$char_traits@D@std@@@std@@IEAAXPEAU_iobuf@@W4_Initfl@12@@Z$rtcName$0 0000000140000000     Storage.obj
 0003:fffad000       ?_Orphan_all@_Container_base12@std@@QEAAXXZ$rtcName$0 0000000140000000     Storage.obj
 0003:fffad000       ?_Swap_proxy_and_iterators@_Container_base12@std@@QEAAXAEAU12@@Z$rtcName$0 0000000140000000     Storage.obj
 0002:fffe7000       ?catch$1@?0???$?6U?$char_traits@D@std@@@std@@YAAEAV?$basic_ostream@DU?$char_traits@D@std@@@0@AEAV10@D@Z@4HA 0000000140000000 f   Storage.obj
 0002:fffe7000       ?catch$1@?0???$?6U?$char_traits@D@std@@@std@@YAAEAV?$basic_ostream@DU?$char_traits@D@std@@@0@AEAV10@PEBD@Z@4HA 0000000140000000 f   Storage.obj
 0002:fffe7000       ?catch$1@?0???$_Insert_string@DU?$char_traits@D@std@@_K@std@@YAAEAV?$basic_ostream@DU?$char_traits@D@std@@@0@AEAV10@QEBD_K@Z@4HA 0000000140000000 f   Storage.obj
 0002:fffe7000       ?catch$1@?0???$getline@DU?$char_traits@D@std@@V?$allocator@D@2@@std@@YAAEAV?$basic_istream@DU?$char_traits@D@std@@@0@$$QEAV10@AEAV?$basic_string@DU?$char_traits@D@std@@V?$allocator@D@2@@0@D@Z@4HA 0000000140000000 f   Storage.obj
 0002:fffe7000       ?catch$2@?0???$?6DU?$char_traits@D@std@@D@std@@YAAEAV?$basic_ostream@DU?$char_traits@D@std@@@0@AEAV10@AEBU?$_Timeobj@DPEBUtm@@@0@@Z@4HA 0000000140000000 f   Storage.obj
 0002:fffe7000       ?dtor$0@?0???$?6DU?$char_traits@D@std@@D@std@@YAAEAV?$basic_ostream@DU?$char_traits@D@std@@@0@AEAV10@AEBU?$_Timeobj@DPEBUtm@@@0@@Z@4HA 0000000140000000 f   Storage.obj
 0002:fffe7000       ?dtor$0@?0???$?6U?$char_traits@D@std@@@std@@YAAEAV?$basic_ostream@DU?$char_traits@D@std@@@0@AEAV10@D@Z@4HA 0000000140000000 f   Storage.obj
 0002:fffe7000       ?dtor$0@?0???$?6U?$char_traits@D@std@@@std@@YAAEAV?$basic_ostream@DU?$char_traits@D@std@@@0@AEAV10@PEBD@Z@4HA 0000000140000000 f   Storage.obj
 0002:fffe7000       ?dtor$0@?0???$_Insert_string@DU?$char_traits@D@std@@_K@std@@YAAEAV?$basic_ostream@DU?$char_traits@D@std@@@0@AEAV10@QEBD_K@Z@4HA 0000000140000000 f   Storage.obj
 0002:fffe7000       ?dtor$0@?0???$getline@DU?$char_traits@D@std@@V?$allocator@D@2@@std@@YAAEAV?$basic_istream@DU?$char_traits@D@std@@@0@$$QEAV10@AEAV?$basic_string@DU?$char_traits@D@std@@V?$allocator@D@2@@0@D@Z@4HA 0000000140000000 f   Storage.obj
 0002:fffe7000       ?dtor$0@?0???$use_facet@V?$codecvt@DDU_Mbstatet@@@std@@@std@@YAAEBV?$codecvt@DDU_Mbstatet@@@0@AEBVlocale@0@@Z@4HA 0000000140000000 f   Storage.obj
 0002:fffe7000       ?dtor$0@?0???$use_facet@V?$time_put@DV?$ostreambuf_iterator@DU?$char_traits@D@std@@@std@@@std@@@std@@YAAEBV?$time_put@DV?$ostreambuf_iterator@DU?$char_traits@D@std@@@std@@@0@AEBVlocale@0@@Z@4HA 0000000140000000 f   Storage.obj
 0002:fffe7000       ?dtor$0@?0???0?$basic_filebuf@DU?$char_traits@D@std@@@std@@QEAA@PEAU_iobuf@@@Z@4HA 0000000140000000 f   Storage.obj
 0002:fffe7000       ?dtor$0@?0???0?$basic_ifstream@DU?$char_traits@D@std@@@std@@QEAA@PEBDHH@Z@4HA 0000000140000000 f   Storage.obj
 0002:fffe7000       ?dtor$0@?0???0?$basic_string@DU?$char_traits@D@std@@V?$allocator@D@2@@std@@QEAA@AEBV01@@Z@4HA 0000000140000000 f   Storage.obj
 0002:fffe7000       ?dtor$0@?0???0?$basic_string@DU?$char_traits@D@std@@V?$allocator@D@2@@std@@QEAA@QEBD@Z@4HA 0000000140000000 f   Storage.obj
 0002:fffe7000       ?dtor$0@?0???0SimpleLogger@Logging@technical_services_layer@@QEAA@AEAV?$basic_ostream@DU?$char_traits@D@std@@@std@@@Z@4HA 0000000140000000 f   Storage.obj
 0002:fffe7000       ?dtor$0@?0???0sentry@?$basic_istream@DU?$char_traits@D@std@@@std@@QEAA@AEAV12@_N@Z@4HA 0000000140000000 f   Storage.obj
 0002:fffe7000       ?dtor$0@?0???0sentry@?$basic_ostream@DU?$char_traits@D@std@@@std@@QEAA@AEAV12@@Z@4HA 0000000140000000 f   Storage.obj
 0002:fffe7000       ?dtor$0@?0??open@?$basic_filebuf@DU?$char_traits@D@std@@@std@@QEAAPEAV12@PEBDHH@Z@4HA 0000000140000000 f   Storage.obj
 0002:fffe7000       ?dtor$0@?0??uflow@?$basic_filebuf@DU?$char_traits@D@std@@@std@@MEAAHXZ@4HA 0000000140000000 f   Storage.obj
 0002:fffe7000       ?dtor$1@?0???$?6DU?$char_traits@D@std@@D@std@@YAAEAV?$basic_ostream@DU?$char_traits@D@std@@@0@AEAV10@AEBU?$_Timeobj@DPEBUtm@@@0@@Z@4HA 0000000140000000 f   Storage.obj
 0002:fffe7000       ?dtor$1@?0???$use_facet@V?$codecvt@DDU_Mbstatet@@@std@@@std@@YAAEBV?$codecvt@DDU_Mbstatet@@@0@AEBVlocale@0@@Z@4HA 0000000140000000 f   Storage.obj
 0002:fffe7000       ?dtor$1@?0???$use_facet@V?$time_put@DV?$ostreambuf_iterator@DU?$char_traits@D@std@@@std@@@std@@@std@@YAAEBV?$time_put@DV?$ostreambuf_iterator@DU?$char_traits@D@std@@@std@@@0@AEBVlocale@0@@Z@4HA 0000000140000000 f   Storage.obj
 0002:fffe7000       ?dtor$1@?0???0?$basic_ifstream@DU?$char_traits@D@std@@@std@@QEAA@PEBDHH@Z@4HA 0000000140000000 f   Storage.obj
 0002:fffe7000       ?dtor$1@?0???0?$basic_string@DU?$char_traits@D@std@@V?$allocator@D@2@@std@@QEAA@AEBV01@@Z@4HA 0000000140000000 f   Storage.obj
 0002:fffe7000       ?dtor$1@?0???0?$basic_string@DU?$char_traits@D@std@@V?$allocator@D@2@@std@@QEAA@QEBD@Z@4HA 0000000140000000 f   Storage.obj
 0002:fffe7000       ?dtor$1@?0???0SimpleLogger@Logging@technical_services_layer@@QEAA@AEAV?$basic_ostream@DU?$char_traits@D@std@@@std@@@Z@4HA 0000000140000000 f   Storage.obj
 0002:fffe7000       ?dtor$2@?0???0?$basic_ifstream@DU?$char_traits@D@std@@@std@@QEAA@PEBDHH@Z@4HA 0000000140000000 f   Storage.obj
 0003:fffad000       ?max_size@?$basic_string@DU?$char_traits@D@std@@V?$allocator@D@2@@std@@QEBA_KXZ$rtcName$0 0000000140000000     Storage.obj
 0003:fffad000       ?overflow@?$basic_filebuf@DU?$char_traits@D@std@@@std@@MEAAHH@Z$rtcName$0 0000000140000000     Storage.obj
 0003:fffad000       ?seekoff@?$basic_filebuf@DU?$char_traits@D@std@@@std@@MEAA?AV?$fpos@U_Mbstatet@@@2@_JHH@Z$rtcName$0 0000000140000000     Storage.obj
 0003:fffad000       ?seekpos@?$basic_filebuf@DU?$char_traits@D@std@@@std@@MEAA?AV?$fpos@U_Mbstatet@@@2@V32@H@Z$rtcName$0 0000000140000000     Storage.obj
 0003:fffad000       ?uflow@?$basic_filebuf@DU?$char_traits@D@std@@@std@@MEAAHXZ$rtcName$0 0000000140000000     Storage.obj
 0003:fffad000       ?underflow@?$basic_filebuf@DU?$char_traits@D@std@@@std@@MEAAHXZ$rtcName$0 0000000140000000     Storage.obj
 0003:fffad000       ?xsgetn@?$basic_filebuf@DU?$char_traits@D@std@@@std@@MEAA_JPEAD_J@Z$rtcName$0 0000000140000000     Storage.obj
 0003:fffad000       $cppxdata$?__empty_global_delete@@YAXPEAX@Z 0000000140000000     Controller.obj
 0003:fffad000       $cppxdata$?__empty_global_delete@@YAXPEAXW4align_val_t@std@@@Z 0000000140000000     Controller.obj
 0003:fffad000       $cppxdata$?__empty_global_delete@@YAXPEAX_K@Z 0000000140000000     Controller.obj
 0003:fffad000       $cppxdata$?__empty_global_delete@@YAXPEAX_KW4align_val_t@std@@@Z 0000000140000000     Controller.obj
 0003:fffad000       $ip2state$?__empty_global_delete@@YAXPEAX@Z 0000000140000000     Controller.obj
 0003:fffad000       $ip2state$?__empty_global_delete@@YAXPEAXW4align_val_t@std@@@Z 0000000140000000     Controller.obj
 0003:fffad000       $ip2state$?__empty_global_delete@@YAXPEAX_K@Z 0000000140000000     Controller.obj
 0003:fffad000       $ip2state$?__empty_global_delete@@YAXPEAX_KW4align_val_t@std@@@Z 0000000140000000     Controller.obj
 0005:fff98000       $pdata$?__empty_global_delete@@YAXPEAX@Z 0000000140000000     Controller.obj
 0005:fff98000       $pdata$?__empty_global_delete@@YAXPEAXW4align_val_t@std@@@Z 0000000140000000     Controller.obj
 0005:fff98000       $pdata$?__empty_global_delete@@YAXPEAX_K@Z 0000000140000000     Controller.obj
 0005:fff98000       $pdata$?__empty_global_delete@@YAXPEAX_KW4align_val_t@std@@@Z 0000000140000000     Controller.obj
 0003:fffad000       $unwind$?__empty_global_delete@@YAXPEAX@Z 0000000140000000     Controller.obj
 0003:fffad000       $unwind$?__empty_global_delete@@YAXPEAXW4align_val_t@std@@@Z 0000000140000000     Controller.obj
 0003:fffad000       $unwind$?__empty_global_delete@@YAXPEAX_K@Z 0000000140000000     Controller.obj
 0003:fffad000       $unwind$?__empty_global_delete@@YAXPEAX_KW4align_val_t@std@@@Z 0000000140000000     Controller.obj
 0003:fffad000       $cppxdata$??$?0D@?$allocator@U_Container_proxy@std@@@std@@QEAA@AEBV?$allocator@D@1@@Z 0000000140000000     View.obj
 0003:fffad000       $cppxdata$??$?0I@?$allocator@U_Container_proxy@std@@@std@@QEAA@AEBV?$allocator@I@1@@Z 0000000140000000     View.obj
 0003:fffad000       $cppxdata$??$?0U?$default_delete@V_Facet_base@std@@@std@@$0A@@?$unique_ptr@V_Facet_base@std@@U?$default_delete@V_Facet_base@std@@@2@@std@@QEAA@PEAV_Facet_base@1@@Z 0000000140000000     View.obj
 0003:fffad000       $cppxdata$??$?0USDL_Point@@@?$allocator@U_Container_proxy@std@@@std@@QEAA@AEBV?$allocator@USDL_Point@@@1@@Z 0000000140000000     View.obj
 0003:fffad000       $cppxdata$??$?0UScore@Persistence@technical_services_layer@@@?$allocator@U_Container_proxy@std@@@std@@QEAA@AEBV?$allocator@UScore@Persistence@technical_services_layer@@@1@@Z 0000000140000000     View.obj
 0003:fffad000       $cppxdata$??$?0_JX@?$duration@_JU?$ratio@$00$0JIJGIA@@std@@@chrono@std@@QEAA@AEB_J@Z 0000000140000000     View.obj
 0003:fffad000       $cppxdata$??$?6DU?$char_traits@D@std@@D@std@@YAAEAV?$basic_ostream@DU?$char_traits@D@std@@@0@AEAV10@AEBU?$_Timeobj@DPEBUtm@@@0@@Z 0000000140000000     View.obj
 0003:fffad000       $cppxdata$??$?6U?$char_traits@D@std@@@std@@YAAEAV?$basic_ostream@DU?$char_traits@D@std@@@0@AEAV10@D@Z 0000000140000000     View.obj
 0003:fffad000       $cppxdata$??$?6U?$char_traits@D@std@@@std@@YAAEAV?$basic_ostream@DU?$char_traits@D@std@@@0@AEAV10@PEBD@Z 0000000140000000     View.obj
 0003:fffad000       $cppxdata$??$?8DU?$char_traits@D@std@@V?$allocator@D@1@@std@@YA_NAEBV?$basic_string@DU?$char_traits@D@std@@V?$allocator@D@2@@0@0@Z 0000000140000000     View.obj
 0003:fffad000       $cppxdata$??$_Construct_in_place@PEADAEBQEAD@std@@YAXAEAPEADAEBQEAD@Z 0000000140000000     View.obj
 0003:fffad000       $cppxdata$??$_Construct_in_place@U_Container_proxy@std@@PEAU_Container_base12@2@@std@@YAXAEAU_Container_proxy@0@$$QEAPEAU_Container_base12@0@@Z 0000000140000000     View.obj
 0003:fffad000       $cppxdata$??$_Convert_size@_K@std@@YA_K_K@Z 0000000140000000     View.obj
 0003:fffad000       $cppxdata$??$_Deallocate@$0BA@$0A@@std@@YAXPEAX_K@Z 0000000140000000     View.obj
 0003:fffad000       $cppxdata$??$_Deallocate_plain@V?$allocator@U_Container_proxy@std@@@std@@@std@@YAXAEAV?$allocator@U_Container_proxy@std@@@0@QEAU_Container_proxy@0@@Z 0000000140000000     View.obj
 0003:fffad000       $cppxdata$??$_Delete_plain_internal@V?$allocator@U_Container_proxy@std@@@std@@@std@@YAXAEAV?$allocator@U_Container_proxy@std@@@0@QEAU_Container_proxy@0@@Z 0000000140000000     View.obj
