; Listing generated by Microsoft (R) Optimizing Compiler Version 19.23.28106.4 

include listing.inc

INCLUDELIB MSVCRTD
INCLUDELIB OLDNAMES

msvcjmc	SEGMENT
__24E9E95F_stdlib@h DB 01H
__F66CEB67_corecrt_stdio_config@h DB 01H
__101834BA_corecrt_wstdio@h DB 01H
__AD6A91B7_stdio@h DB 01H
__367CC694_corecrt_memcpy_s@h DB 01H
__5467428D_corecrt_wconio@h DB 01H
__4442441F_corecrt_wio@h DB 01H
__DC9673E3_corecrt_wstring@h DB 01H
__45F4AF76_corecrt_wtime@h DB 01H
__186FF47F_stat@h DB 01H
__534C724A_wchar@h DB 01H
__231D85A1_cstddef DB 01H
__09340588_corecrt_math@h DB 01H
__86D65F0C_cstdlib DB 01H
__843B0F21_limits DB 01H
__031C4ED9_ViewHandler@hpp DB 01H
__0A074437_vcruntime_new@h DB 01H
__6A0B36D1_cmath DB 01H
__FFC6471F_type_traits DB 01H
__B0C4CEA9_malloc@h DB 01H
__69245D52_vcruntime_exception@h DB 01H
__536DB091_exception DB 01H
__35D7DDB3_corecrt_memory@h DB 01H
__A29A7DFB_string@h DB 01H
__86E03ACD_xutility DB 01H
__DB4EB944_xmemory DB 01H
__CC282F90_tuple DB 01H
__C9317CBB_xpolymorphic_allocator@h DB 01H
__AF9D3FD8_xstring DB 01H
__DA238ACC_stdexcept DB 01H
__65AE1ACD_xcall_once@h DB 01H
__DAF308ED_system_error DB 01H
__36900320_vcruntime_typeinfo@h DB 01H
__F63FC9D4_typeinfo DB 01H
__389503AF_memory DB 01H
__14D054A0_xfacet DB 01H
__7242C389_ctype@h DB 01H
__E9B62A1C_xlocinfo DB 01H
__70A34BE9_xlocale DB 01H
__D0535D0F_xiosbase DB 01H
__EE242DFE_xlocnum DB 01H
__D17CECDD_ios DB 01H
__B9A1F245_algorithm DB 01H
__C4C3ED4F_random DB 01H
__3FA3F145_SDL_stdinc@h DB 01H
__1662896C_SDL_endian@h DB 01H
__E3097871_SDL_rect@h DB 01H
__BB5134BF_Snake@hpp DB 01H
__4C468533_string DB 01H
__20CC7B81_PersistenceHandler@hpp DB 01H
__AF8FE13E_PlayerHandler@hpp DB 01H
__84FFAAFB_corecrt_io@h DB 01H
__90A1F774_basetsd@h DB 01H
__3C23D660_guiddef@h DB 01H
__AF541008_winnt@h DB 01H
__0D001789_processthreadsapi@h DB 01H
__F972325D_memoryapi@h DB 01H
__76CD430D_winerror@h DB 01H
__737D49DB_winbase@h DB 01H
__1B9502AC_winuser@h DB 01H
__376EBCA0_winioctl@h DB 01H
__2CCBBE23_propidl@h DB 01H
__AD360DAF_oleauto@h DB 01H
__0396F1A5_stralign@h DB 01H
__9AA6091B_termcolor@hpp DB 01H
__A9CC8C43_LoggerHandler@hpp DB 01H
__06B8AF7F_ratio DB 01H
__8AA3BE86_time@h DB 01H
__E0D609AB_chrono DB 01H
__C54638C6_xlocmon DB 01H
__4DAB830E_xloctime DB 01H
__56A4B53F_SimpleLogger@hpp DB 01H
__4741CBCA_CreditCard@hpp DB 01H
__525557A3_main@cpp DB 01H
__C9967FC1_vector DB 01H
__0063A417_istream DB 01H
__63B3912D_ostream DB 01H
__D8833270_streambuf DB 01H
__48D2DAA7_iosfwd DB 01H
__B1DBDA87_utility DB 01H
__46C44D95_xstddef DB 01H
__59613C47_xatomic@h DB 01H
__FCA16245_iomanip DB 01H
msvcjmc	ENDS
PUBLIC	?__empty_global_delete@@YAXPEAX@Z		; __empty_global_delete
PUBLIC	?__empty_global_delete@@YAXPEAX_K@Z		; __empty_global_delete
PUBLIC	?__empty_global_delete@@YAXPEAXW4align_val_t@std@@@Z ; __empty_global_delete
PUBLIC	?__empty_global_delete@@YAXPEAX_KW4align_val_t@std@@@Z ; __empty_global_delete
PUBLIC	wmemcpy
PUBLIC	??$_Maklocstr@_W@std@@YAPEA_WPEBDPEA_WAEBU_Cvtvec@@@Z ; std::_Maklocstr<wchar_t>
PUBLIC	?_Maklocwcs@std@@YAPEA_WPEB_W@Z			; std::_Maklocwcs
PUBLIC	??$_Maklocstr@D@std@@YAPEADPEBDPEADAEBU_Cvtvec@@@Z ; std::_Maklocstr<char>
PUBLIC	SDL_main
PUBLIC	??$_Getvals@_W@?$time_get@DV?$istreambuf_iterator@DU?$char_traits@D@std@@@std@@@std@@IEAAX_WAEBV_Locinfo@1@@Z ; std::time_get<char,std::istreambuf_iterator<char,std::char_traits<char> > >::_Getvals<wchar_t>
PUBLIC	??$_Getvals@_W@?$time_get@_WV?$istreambuf_iterator@_WU?$char_traits@_W@std@@@std@@@std@@IEAAX_WAEBV_Locinfo@1@@Z ; std::time_get<wchar_t,std::istreambuf_iterator<wchar_t,std::char_traits<wchar_t> > >::_Getvals<wchar_t>
PUBLIC	?__autoclassinit2@View@view@ui_layer@@QEAAX_K@Z	; ui_layer::view::View::__autoclassinit2
PUBLIC	__JustMyCode_Default
PUBLIC	??_C@_0GI@PBEGAEEH@C?3?2Program?5Files?5?$CIx86?$CJ?2Microsof@ ; `string'
PUBLIC	?__LINE__Var@?0??_Maklocwcs@std@@YAPEA_WPEB_W@Z@4JA ; `std::_Maklocwcs'::`1'::__LINE__Var
PUBLIC	??_C@_0GI@HCALAGOG@C?3?2Program?5Files?5?$CIx86?$CJ?2Microsof@ ; `string'
PUBLIC	??_C@_0N@LPFKKEBD@?3AM?3am?3PM?3pm@		; `string'
PUBLIC	??_C@_1BK@MHIKGOKE@?$AA?3?$AAA?$AAM?$AA?3?$AAa?$AAm?$AA?3?$AAP?$AAM?$AA?3?$AAp?$AAm@ ; `string'
EXTRN	??2@YAPEAX_K@Z:PROC				; operator new
EXTRN	memcpy:PROC
EXTRN	__imp_wcslen:PROC
EXTRN	__imp__calloc_dbg:PROC
EXTRN	strlen:PROC
EXTRN	?_Xbad_alloc@std@@YAXXZ:PROC			; std::_Xbad_alloc
EXTRN	_Mbrtowc:PROC
EXTRN	__imp_?_Getcvt@_Locinfo@std@@QEBA?AU_Cvtvec@@XZ:PROC
EXTRN	__imp_?_Getdays@_Locinfo@std@@QEBAPEBDXZ:PROC
EXTRN	__imp_?_Getmonths@_Locinfo@std@@QEBAPEBDXZ:PROC
EXTRN	__imp_?_W_Getdays@_Locinfo@std@@QEBAPEBGXZ:PROC
EXTRN	__imp_?_W_Getmonths@_Locinfo@std@@QEBAPEBGXZ:PROC
EXTRN	__imp_?xalloc@ios_base@std@@SAHXZ:PROC
EXTRN	??0View@view@ui_layer@@QEAA@XZ:PROC		; ui_layer::view::View::View
EXTRN	_RTC_CheckStackVars:PROC
EXTRN	_RTC_InitBase:PROC
EXTRN	_RTC_Shutdown:PROC
EXTRN	__CheckForDebuggerJustMyCode:PROC
EXTRN	__CxxFrameHandler4:PROC
EXTRN	__GSHandlerCheck:PROC
EXTRN	__security_check_cookie:PROC
EXTRN	__security_cookie:QWORD
_BSS	SEGMENT
?colorize_index@_internal@termcolor@@3HA DD 01H DUP (?)	; termcolor::_internal::colorize_index
_BSS	ENDS
;	COMDAT pdata
pdata	SEGMENT
$pdata$?__empty_global_delete@@YAXPEAX@Z DD imagerel $LN3
	DD	imagerel $LN3+65
	DD	imagerel $unwind$?__empty_global_delete@@YAXPEAX@Z
pdata	ENDS
;	COMDAT pdata
pdata	SEGMENT
$pdata$?__empty_global_delete@@YAXPEAX_K@Z DD imagerel $LN3
	DD	imagerel $LN3+70
	DD	imagerel $unwind$?__empty_global_delete@@YAXPEAX_K@Z
pdata	ENDS
;	COMDAT pdata
pdata	SEGMENT
$pdata$?__empty_global_delete@@YAXPEAXW4align_val_t@std@@@Z DD imagerel $LN3
	DD	imagerel $LN3+70
	DD	imagerel $unwind$?__empty_global_delete@@YAXPEAXW4align_val_t@std@@@Z
pdata	ENDS
;	COMDAT pdata
pdata	SEGMENT
$pdata$?__empty_global_delete@@YAXPEAX_KW4align_val_t@std@@@Z DD imagerel $LN3
	DD	imagerel $LN3+75
	DD	imagerel $unwind$?__empty_global_delete@@YAXPEAX_KW4align_val_t@std@@@Z
pdata	ENDS
;	COMDAT pdata
pdata	SEGMENT
$pdata$wmemcpy DD imagerel $LN3
	DD	imagerel $LN3+106
	DD	imagerel $unwind$wmemcpy
pdata	ENDS
;	COMDAT pdata
pdata	SEGMENT
$pdata$??$_Maklocstr@_W@std@@YAPEA_WPEBDPEA_WAEBU_Cvtvec@@@Z DD imagerel $LN12
	DD	imagerel $LN12+584
	DD	imagerel $unwind$??$_Maklocstr@_W@std@@YAPEA_WPEBDPEA_WAEBU_Cvtvec@@@Z
pdata	ENDS
;	COMDAT pdata
pdata	SEGMENT
$pdata$?_Maklocwcs@std@@YAPEA_WPEB_W@Z DD imagerel $LN4
	DD	imagerel $LN4+165
	DD	imagerel $unwind$?_Maklocwcs@std@@YAPEA_WPEB_W@Z
pdata	ENDS
;	COMDAT pdata
pdata	SEGMENT
$pdata$??$_Maklocstr@D@std@@YAPEADPEBDPEADAEBU_Cvtvec@@@Z DD imagerel $LN7
	DD	imagerel $LN7+223
	DD	imagerel $unwind$??$_Maklocstr@D@std@@YAPEADPEBDPEADAEBU_Cvtvec@@@Z
pdata	ENDS
;	COMDAT pdata
pdata	SEGMENT
$pdata$SDL_main DD imagerel $LN5
	DD	imagerel $LN5+184
	DD	imagerel $unwind$SDL_main
pdata	ENDS
;	COMDAT pdata
pdata	SEGMENT
$pdata$??__Ecolorize_index@_internal@termcolor@@YAXXZ DD imagerel ??__Ecolorize_index@_internal@termcolor@@YAXXZ
	DD	imagerel ??__Ecolorize_index@_internal@termcolor@@YAXXZ+64
	DD	imagerel $unwind$??__Ecolorize_index@_internal@termcolor@@YAXXZ
pdata	ENDS
;	COMDAT pdata
pdata	SEGMENT
$pdata$??$_Getvals@_W@?$time_get@DV?$istreambuf_iterator@DU?$char_traits@D@std@@@std@@@std@@IEAAX_WAEBV_Locinfo@1@@Z DD imagerel $LN5
	DD	imagerel $LN5+379
	DD	imagerel $unwind$??$_Getvals@_W@?$time_get@DV?$istreambuf_iterator@DU?$char_traits@D@std@@@std@@@std@@IEAAX_WAEBV_Locinfo@1@@Z
pdata	ENDS
;	COMDAT pdata
pdata	SEGMENT
$pdata$??$_Getvals@_W@?$time_get@_WV?$istreambuf_iterator@_WU?$char_traits@_W@std@@@std@@@std@@IEAAX_WAEBV_Locinfo@1@@Z DD imagerel $LN5
	DD	imagerel $LN5+379
	DD	imagerel $unwind$??$_Getvals@_W@?$time_get@_WV?$istreambuf_iterator@_WU?$char_traits@_W@std@@@std@@@std@@IEAAX_WAEBV_Locinfo@1@@Z
pdata	ENDS
;	COMDAT pdata
pdata	SEGMENT
$pdata$?__autoclassinit2@View@view@ui_layer@@QEAAX_K@Z DD imagerel $LN3
	DD	imagerel $LN3+73
	DD	imagerel $unwind$?__autoclassinit2@View@view@ui_layer@@QEAAX_K@Z
pdata	ENDS
CRT$XCU	SEGMENT
?colorize_index$initializer$@_internal@termcolor@@3P6AXXZEA DQ FLAT:??__Ecolorize_index@_internal@termcolor@@YAXXZ ; termcolor::_internal::colorize_index$initializer$
CRT$XCU	ENDS
;	COMDAT rtc$TMZ
rtc$TMZ	SEGMENT
_RTC_Shutdown.rtc$TMZ DQ FLAT:_RTC_Shutdown
rtc$TMZ	ENDS
;	COMDAT rtc$IMZ
rtc$IMZ	SEGMENT
_RTC_InitBase.rtc$IMZ DQ FLAT:_RTC_InitBase
rtc$IMZ	ENDS
;	COMDAT ??_C@_1BK@MHIKGOKE@?$AA?3?$AAA?$AAM?$AA?3?$AAa?$AAm?$AA?3?$AAP?$AAM?$AA?3?$AAp?$AAm@
CONST	SEGMENT
??_C@_1BK@MHIKGOKE@?$AA?3?$AAA?$AAM?$AA?3?$AAa?$AAm?$AA?3?$AAP?$AAM?$AA?3?$AAp?$AAm@ DB ':'
	DB	00H, 'A', 00H, 'M', 00H, ':', 00H, 'a', 00H, 'm', 00H, ':', 00H
	DB	'P', 00H, 'M', 00H, ':', 00H, 'p', 00H, 'm', 00H, 00H, 00H ; `string'
CONST	ENDS
;	COMDAT ??_C@_0N@LPFKKEBD@?3AM?3am?3PM?3pm@
CONST	SEGMENT
??_C@_0N@LPFKKEBD@?3AM?3am?3PM?3pm@ DB ':AM:am:PM:pm', 00H ; `string'
CONST	ENDS
;	COMDAT ??_C@_0GI@HCALAGOG@C?3?2Program?5Files?5?$CIx86?$CJ?2Microsof@
CONST	SEGMENT
??_C@_0GI@HCALAGOG@C?3?2Program?5Files?5?$CIx86?$CJ?2Microsof@ DB 'C:\Pro'
	DB	'gram Files (x86)\Microsoft Visual Studio\2019\Community\VC\To'
	DB	'ols\MSVC\14.23.28105\include\xlocnum', 00H	; `string'
CONST	ENDS
;	COMDAT ?__LINE__Var@?0??_Maklocwcs@std@@YAPEA_WPEB_W@Z@4JA
_DATA	SEGMENT
?__LINE__Var@?0??_Maklocwcs@std@@YAPEA_WPEB_W@Z@4JA DD 059H ; `std::_Maklocwcs'::`1'::__LINE__Var
_DATA	ENDS
;	COMDAT ??_C@_0GI@PBEGAEEH@C?3?2Program?5Files?5?$CIx86?$CJ?2Microsof@
CONST	SEGMENT
??_C@_0GI@PBEGAEEH@C?3?2Program?5Files?5?$CIx86?$CJ?2Microsof@ DB 'C:\Pro'
	DB	'gram Files (x86)\Microsoft Visual Studio\2019\Community\VC\To'
	DB	'ols\MSVC\14.23.28105\include\xlocale', 00H	; `string'
CONST	ENDS
;	COMDAT xdata
xdata	SEGMENT
$unwind$?__autoclassinit2@View@view@ui_layer@@QEAAX_K@Z DD 05052d01H
	DD	01130316H
	DD	0700c0019H
	DD	0500bH
xdata	ENDS
;	COMDAT xdata
xdata	SEGMENT
$unwind$??$_Getvals@_W@?$time_get@_WV?$istreambuf_iterator@_WU?$char_traits@_W@std@@@std@@@std@@IEAAX_WAEBV_Locinfo@1@@Z DD 025063501H
	DD	0119231eH
	DD	070120026H
	DD	050106011H
xdata	ENDS
;	COMDAT xdata
xdata	SEGMENT
$unwind$??$_Getvals@_W@?$time_get@DV?$istreambuf_iterator@DU?$char_traits@D@std@@@std@@@std@@IEAAX_WAEBV_Locinfo@1@@Z DD 025063501H
	DD	0119231eH
	DD	070120026H
	DD	050106011H
xdata	ENDS
;	COMDAT xdata
xdata	SEGMENT
$unwind$??__Ecolorize_index@_internal@termcolor@@YAXXZ DD 025051e01H
	DD	010a230fH
	DD	07003001dH
	DD	05002H
xdata	ENDS
;	COMDAT xdata
xdata	SEGMENT
$unwind$SDL_main DD 025052d01H
	DD	01122317H
	DD	0700b0029H
	DD	0500aH
xdata	ENDS
;	COMDAT xdata
xdata	SEGMENT
$unwind$??$_Maklocstr@D@std@@YAPEADPEBDPEADAEBU_Cvtvec@@@Z DD 035053401H
	DD	0118331dH
	DD	07011002bH
	DD	05010H
xdata	ENDS
;	COMDAT xdata
xdata	SEGMENT
$unwind$?_Maklocwcs@std@@YAPEA_WPEB_W@Z DD 035052a01H
	DD	010e3313H
	DD	070070027H
	DD	05006H
xdata	ENDS
;	COMDAT xdata
xdata	SEGMENT
$unwind$??$_Maklocstr@_W@std@@YAPEA_WPEBDPEA_WAEBU_Cvtvec@@@Z DD 035054519H
	DD	0118331dH
	DD	070110047H
	DD	05010H
	DD	imagerel __GSHandlerCheck
	DD	0228H
xdata	ENDS
;	COMDAT CONST
CONST	SEGMENT
??$_Maklocstr@_W@std@@YAPEA_WPEBDPEA_WAEBU_Cvtvec@@@Z$rtcName$0 DB 05fH ; std::_Maklocstr<wchar_t>
	DB	057H
	DB	063H
	DB	00H
??$_Maklocstr@_W@std@@YAPEA_WPEBDPEA_WAEBU_Cvtvec@@@Z$rtcName$1 DB 05fH ; std::_Maklocstr<wchar_t>
	DB	04dH
	DB	062H
	DB	073H
	DB	074H
	DB	031H
	DB	00H
	ORG $+1
??$_Maklocstr@_W@std@@YAPEA_WPEBDPEA_WAEBU_Cvtvec@@@Z$rtcName$2 DB 05fH ; std::_Maklocstr<wchar_t>
	DB	04dH
	DB	062H
	DB	073H
	DB	074H
	DB	032H
	DB	00H
	ORG $+13
??$_Maklocstr@_W@std@@YAPEA_WPEBDPEA_WAEBU_Cvtvec@@@Z$rtcVarDesc DD 0158H ; std::_Maklocstr<wchar_t>
	DD	08H
	DQ	FLAT:??$_Maklocstr@_W@std@@YAPEA_WPEBDPEA_WAEBU_Cvtvec@@@Z$rtcName$2
	DD	0f8H
	DD	08H
	DQ	FLAT:??$_Maklocstr@_W@std@@YAPEA_WPEBDPEA_WAEBU_Cvtvec@@@Z$rtcName$1
	DD	0d4H
	DD	02H
	DQ	FLAT:??$_Maklocstr@_W@std@@YAPEA_WPEBDPEA_WAEBU_Cvtvec@@@Z$rtcName$0
	ORG $+144
??$_Maklocstr@_W@std@@YAPEA_WPEBDPEA_WAEBU_Cvtvec@@@Z$rtcFrameData DD 03H ; std::_Maklocstr<wchar_t>
	DD	00H
	DQ	FLAT:??$_Maklocstr@_W@std@@YAPEA_WPEBDPEA_WAEBU_Cvtvec@@@Z$rtcVarDesc
CONST	ENDS
;	COMDAT xdata
xdata	SEGMENT
$unwind$wmemcpy DD 025053401H
	DD	0118231dH
	DD	07011001dH
	DD	05010H
xdata	ENDS
;	COMDAT xdata
xdata	SEGMENT
$ip2state$?__empty_global_delete@@YAXPEAX_KW4align_val_t@std@@@Z DB 02H
	DB	00H
	DB	00H
xdata	ENDS
;	COMDAT xdata
xdata	SEGMENT
$cppxdata$?__empty_global_delete@@YAXPEAX_KW4align_val_t@std@@@Z DB 060H
	DD	imagerel $ip2state$?__empty_global_delete@@YAXPEAX_KW4align_val_t@std@@@Z
xdata	ENDS
;	COMDAT xdata
xdata	SEGMENT
$unwind$?__empty_global_delete@@YAXPEAX_KW4align_val_t@std@@@Z DD 025053419H
	DD	0118231dH
	DD	07011001dH
	DD	05010H
	DD	imagerel __CxxFrameHandler4
	DD	imagerel $cppxdata$?__empty_global_delete@@YAXPEAX_KW4align_val_t@std@@@Z
xdata	ENDS
;	COMDAT xdata
xdata	SEGMENT
$ip2state$?__empty_global_delete@@YAXPEAXW4align_val_t@std@@@Z DB 02H
	DB	00H
	DB	00H
xdata	ENDS
;	COMDAT xdata
xdata	SEGMENT
$cppxdata$?__empty_global_delete@@YAXPEAXW4align_val_t@std@@@Z DB 060H
	DD	imagerel $ip2state$?__empty_global_delete@@YAXPEAXW4align_val_t@std@@@Z
xdata	ENDS
;	COMDAT xdata
xdata	SEGMENT
$unwind$?__empty_global_delete@@YAXPEAXW4align_val_t@std@@@Z DD 025052f19H
	DD	01132318H
	DD	0700c001dH
	DD	0500bH
	DD	imagerel __CxxFrameHandler4
	DD	imagerel $cppxdata$?__empty_global_delete@@YAXPEAXW4align_val_t@std@@@Z
xdata	ENDS
;	COMDAT xdata
xdata	SEGMENT
$ip2state$?__empty_global_delete@@YAXPEAX_K@Z DB 02H
	DB	00H
	DB	00H
xdata	ENDS
;	COMDAT xdata
xdata	SEGMENT
$cppxdata$?__empty_global_delete@@YAXPEAX_K@Z DB 060H
	DD	imagerel $ip2state$?__empty_global_delete@@YAXPEAX_K@Z
xdata	ENDS
;	COMDAT xdata
xdata	SEGMENT
$unwind$?__empty_global_delete@@YAXPEAX_K@Z DD 025052f19H
	DD	01132318H
	DD	0700c001dH
	DD	0500bH
	DD	imagerel __CxxFrameHandler4
	DD	imagerel $cppxdata$?__empty_global_delete@@YAXPEAX_K@Z
xdata	ENDS
;	COMDAT xdata
xdata	SEGMENT
$ip2state$?__empty_global_delete@@YAXPEAX@Z DB 02H
	DB	00H
	DB	00H
xdata	ENDS
;	COMDAT xdata
xdata	SEGMENT
$cppxdata$?__empty_global_delete@@YAXPEAX@Z DB 060H
	DD	imagerel $ip2state$?__empty_global_delete@@YAXPEAX@Z
xdata	ENDS
;	COMDAT xdata
xdata	SEGMENT
$unwind$?__empty_global_delete@@YAXPEAX@Z DD 025052a19H
	DD	010e2313H
	DD	07007001dH
	DD	05006H
	DD	imagerel __CxxFrameHandler4
	DD	imagerel $cppxdata$?__empty_global_delete@@YAXPEAX@Z
xdata	ENDS
; Function compile flags: /Odt
;	COMDAT __JustMyCode_Default
_TEXT	SEGMENT
__JustMyCode_Default PROC				; COMDAT
	ret	0
__JustMyCode_Default ENDP
_TEXT	ENDS
; Function compile flags: /Odtp /RTCsu /ZI
;	COMDAT ?__autoclassinit2@View@view@ui_layer@@QEAAX_K@Z
_TEXT	SEGMENT
this$ = 224
classSize$ = 232
?__autoclassinit2@View@view@ui_layer@@QEAAX_K@Z PROC	; ui_layer::view::View::__autoclassinit2, COMDAT
$LN3:
	mov	QWORD PTR [rsp+16], rdx
	mov	QWORD PTR [rsp+8], rcx
	push	rbp
	push	rdi
	sub	rsp, 200				; 000000c8H
	mov	rbp, rsp
	mov	rdi, rsp
	mov	ecx, 50					; 00000032H
	mov	eax, -858993460				; ccccccccH
	rep stosd
	mov	rcx, QWORD PTR [rsp+232]
	mov	rdi, QWORD PTR this$[rbp]
	xor	eax, eax
	mov	rcx, QWORD PTR classSize$[rbp]
	rep stosb
	lea	rsp, QWORD PTR [rbp+200]
	pop	rdi
	pop	rbp
	ret	0
?__autoclassinit2@View@view@ui_layer@@QEAAX_K@Z ENDP	; ui_layer::view::View::__autoclassinit2
_TEXT	ENDS
; Function compile flags: /Odtp /RTCsu /ZI
; File C:\Program Files (x86)\Microsoft Visual Studio\2019\Community\VC\Tools\MSVC\14.23.28105\include\xloctime
;	COMDAT ??$_Getvals@_W@?$time_get@_WV?$istreambuf_iterator@_WU?$char_traits@_W@std@@@std@@@std@@IEAAX_WAEBV_Locinfo@1@@Z
_TEXT	SEGMENT
$T1 = 200
tv93 = 264
tv85 = 264
this$ = 304
__formal$ = 312
_Lobj$ = 320
??$_Getvals@_W@?$time_get@_WV?$istreambuf_iterator@_WU?$char_traits@_W@std@@@std@@@std@@IEAAX_WAEBV_Locinfo@1@@Z PROC ; std::time_get<wchar_t,std::istreambuf_iterator<wchar_t,std::char_traits<wchar_t> > >::_Getvals<wchar_t>, COMDAT

; 173  :     void __CLR_OR_THIS_CALL _Getvals(_Elem2, const _Locinfo& _Lobj) { // get values

$LN5:
	mov	QWORD PTR [rsp+24], r8
	mov	WORD PTR [rsp+16], dx
	mov	QWORD PTR [rsp+8], rcx
	push	rbp
	push	rsi
	push	rdi
	sub	rsp, 304				; 00000130H
	lea	rbp, QWORD PTR [rsp+32]
	mov	rdi, rsp
	mov	ecx, 76					; 0000004cH
	mov	eax, -858993460				; ccccccccH
	rep stosd
	mov	rcx, QWORD PTR [rsp+344]
	lea	rcx, OFFSET FLAT:__4DAB830E_xloctime
	call	__CheckForDebuggerJustMyCode

; 174  :         _Cvt = _Lobj._Getcvt();

	lea	rdx, QWORD PTR $T1[rbp]
	mov	rcx, QWORD PTR _Lobj$[rbp]
	call	QWORD PTR __imp_?_Getcvt@_Locinfo@std@@QEBA?AU_Cvtvec@@XZ
	mov	rcx, QWORD PTR this$[rbp]
	lea	rdi, QWORD PTR [rcx+44]
	mov	rsi, rax
	mov	ecx, 44					; 0000002cH
	rep movsb

; 175  : 
; 176  :         if (is_same_v<_Elem2, wchar_t>) {

	xor	eax, eax
	cmp	eax, 1
	je	SHORT $LN2@Getvals

; 177  :             _Days = reinterpret_cast<const _Elem*>(_Maklocwcs(reinterpret_cast<const wchar_t*>(_Lobj._W_Getdays())));

	mov	rcx, QWORD PTR _Lobj$[rbp]
	call	QWORD PTR __imp_?_W_Getdays@_Locinfo@std@@QEBAPEBGXZ
	mov	rcx, rax
	call	?_Maklocwcs@std@@YAPEA_WPEB_W@Z		; std::_Maklocwcs
	mov	rcx, QWORD PTR this$[rbp]
	mov	QWORD PTR [rcx+16], rax

; 178  :             _Months =

	mov	rcx, QWORD PTR _Lobj$[rbp]
	call	QWORD PTR __imp_?_W_Getmonths@_Locinfo@std@@QEBAPEBGXZ
	mov	rcx, rax
	call	?_Maklocwcs@std@@YAPEA_WPEB_W@Z		; std::_Maklocwcs
	mov	rcx, QWORD PTR this$[rbp]
	mov	QWORD PTR [rcx+24], rax

; 179  :                 reinterpret_cast<const _Elem*>(_Maklocwcs(reinterpret_cast<const wchar_t*>(_Lobj._W_Getmonths())));
; 180  :             _Ampm = reinterpret_cast<const _Elem*>(_Maklocwcs(L":AM:am:PM:pm"));

	lea	rcx, OFFSET FLAT:??_C@_1BK@MHIKGOKE@?$AA?3?$AAA?$AAM?$AA?3?$AAa?$AAm?$AA?3?$AAP?$AAM?$AA?3?$AAp?$AAm@
	call	?_Maklocwcs@std@@YAPEA_WPEB_W@Z		; std::_Maklocwcs
	mov	rcx, QWORD PTR this$[rbp]
	mov	QWORD PTR [rcx+32], rax

; 181  :         } else {

	jmp	$LN3@Getvals
$LN2@Getvals:

; 182  :             _Days   = _Maklocstr(_Lobj._Getdays(), static_cast<_Elem*>(nullptr), _Cvt);

	mov	rax, QWORD PTR this$[rbp]
	add	rax, 44					; 0000002cH
	mov	QWORD PTR tv85[rbp], rax
	mov	rcx, QWORD PTR _Lobj$[rbp]
	call	QWORD PTR __imp_?_Getdays@_Locinfo@std@@QEBAPEBDXZ
	mov	rcx, QWORD PTR tv85[rbp]
	mov	r8, rcx
	xor	edx, edx
	mov	rcx, rax
	call	??$_Maklocstr@_W@std@@YAPEA_WPEBDPEA_WAEBU_Cvtvec@@@Z ; std::_Maklocstr<wchar_t>
	mov	rcx, QWORD PTR this$[rbp]
	mov	QWORD PTR [rcx+16], rax

; 183  :             _Months = _Maklocstr(_Lobj._Getmonths(), static_cast<_Elem*>(nullptr), _Cvt);

	mov	rax, QWORD PTR this$[rbp]
	add	rax, 44					; 0000002cH
	mov	QWORD PTR tv93[rbp], rax
	mov	rcx, QWORD PTR _Lobj$[rbp]
	call	QWORD PTR __imp_?_Getmonths@_Locinfo@std@@QEBAPEBDXZ
	mov	rcx, QWORD PTR tv93[rbp]
	mov	r8, rcx
	xor	edx, edx
	mov	rcx, rax
	call	??$_Maklocstr@_W@std@@YAPEA_WPEBDPEA_WAEBU_Cvtvec@@@Z ; std::_Maklocstr<wchar_t>
	mov	rcx, QWORD PTR this$[rbp]
	mov	QWORD PTR [rcx+24], rax

; 184  :             _Ampm   = _Maklocstr(":AM:am:PM:pm", static_cast<_Elem*>(nullptr), _Cvt);

	mov	rax, QWORD PTR this$[rbp]
	add	rax, 44					; 0000002cH
	mov	r8, rax
	xor	edx, edx
	lea	rcx, OFFSET FLAT:??_C@_0N@LPFKKEBD@?3AM?3am?3PM?3pm@
	call	??$_Maklocstr@_W@std@@YAPEA_WPEBDPEA_WAEBU_Cvtvec@@@Z ; std::_Maklocstr<wchar_t>
	mov	rcx, QWORD PTR this$[rbp]
	mov	QWORD PTR [rcx+32], rax
$LN3@Getvals:

; 185  :         }
; 186  :     }

	lea	rsp, QWORD PTR [rbp+272]
	pop	rdi
	pop	rsi
	pop	rbp
	ret	0
??$_Getvals@_W@?$time_get@_WV?$istreambuf_iterator@_WU?$char_traits@_W@std@@@std@@@std@@IEAAX_WAEBV_Locinfo@1@@Z ENDP ; std::time_get<wchar_t,std::istreambuf_iterator<wchar_t,std::char_traits<wchar_t> > >::_Getvals<wchar_t>
_TEXT	ENDS
; Function compile flags: /Odtp /RTCsu /ZI
; File C:\Program Files (x86)\Microsoft Visual Studio\2019\Community\VC\Tools\MSVC\14.23.28105\include\xloctime
;	COMDAT ??$_Getvals@_W@?$time_get@DV?$istreambuf_iterator@DU?$char_traits@D@std@@@std@@@std@@IEAAX_WAEBV_Locinfo@1@@Z
_TEXT	SEGMENT
$T1 = 200
tv93 = 264
tv85 = 264
this$ = 304
__formal$ = 312
_Lobj$ = 320
??$_Getvals@_W@?$time_get@DV?$istreambuf_iterator@DU?$char_traits@D@std@@@std@@@std@@IEAAX_WAEBV_Locinfo@1@@Z PROC ; std::time_get<char,std::istreambuf_iterator<char,std::char_traits<char> > >::_Getvals<wchar_t>, COMDAT

; 173  :     void __CLR_OR_THIS_CALL _Getvals(_Elem2, const _Locinfo& _Lobj) { // get values

$LN5:
	mov	QWORD PTR [rsp+24], r8
	mov	WORD PTR [rsp+16], dx
	mov	QWORD PTR [rsp+8], rcx
	push	rbp
	push	rsi
	push	rdi
	sub	rsp, 304				; 00000130H
	lea	rbp, QWORD PTR [rsp+32]
	mov	rdi, rsp
	mov	ecx, 76					; 0000004cH
	mov	eax, -858993460				; ccccccccH
	rep stosd
	mov	rcx, QWORD PTR [rsp+344]
	lea	rcx, OFFSET FLAT:__4DAB830E_xloctime
	call	__CheckForDebuggerJustMyCode

; 174  :         _Cvt = _Lobj._Getcvt();

	lea	rdx, QWORD PTR $T1[rbp]
	mov	rcx, QWORD PTR _Lobj$[rbp]
	call	QWORD PTR __imp_?_Getcvt@_Locinfo@std@@QEBA?AU_Cvtvec@@XZ
	mov	rcx, QWORD PTR this$[rbp]
	lea	rdi, QWORD PTR [rcx+44]
	mov	rsi, rax
	mov	ecx, 44					; 0000002cH
	rep movsb

; 175  : 
; 176  :         if (is_same_v<_Elem2, wchar_t>) {

	xor	eax, eax
	cmp	eax, 1
	je	SHORT $LN2@Getvals

; 177  :             _Days = reinterpret_cast<const _Elem*>(_Maklocwcs(reinterpret_cast<const wchar_t*>(_Lobj._W_Getdays())));

	mov	rcx, QWORD PTR _Lobj$[rbp]
	call	QWORD PTR __imp_?_W_Getdays@_Locinfo@std@@QEBAPEBGXZ
	mov	rcx, rax
	call	?_Maklocwcs@std@@YAPEA_WPEB_W@Z		; std::_Maklocwcs
	mov	rcx, QWORD PTR this$[rbp]
	mov	QWORD PTR [rcx+16], rax

; 178  :             _Months =

	mov	rcx, QWORD PTR _Lobj$[rbp]
	call	QWORD PTR __imp_?_W_Getmonths@_Locinfo@std@@QEBAPEBGXZ
	mov	rcx, rax
	call	?_Maklocwcs@std@@YAPEA_WPEB_W@Z		; std::_Maklocwcs
	mov	rcx, QWORD PTR this$[rbp]
	mov	QWORD PTR [rcx+24], rax

; 179  :                 reinterpret_cast<const _Elem*>(_Maklocwcs(reinterpret_cast<const wchar_t*>(_Lobj._W_Getmonths())));
; 180  :             _Ampm = reinterpret_cast<const _Elem*>(_Maklocwcs(L":AM:am:PM:pm"));

	lea	rcx, OFFSET FLAT:??_C@_1BK@MHIKGOKE@?$AA?3?$AAA?$AAM?$AA?3?$AAa?$AAm?$AA?3?$AAP?$AAM?$AA?3?$AAp?$AAm@
	call	?_Maklocwcs@std@@YAPEA_WPEB_W@Z		; std::_Maklocwcs
	mov	rcx, QWORD PTR this$[rbp]
	mov	QWORD PTR [rcx+32], rax

; 181  :         } else {

	jmp	$LN3@Getvals
$LN2@Getvals:

; 182  :             _Days   = _Maklocstr(_Lobj._Getdays(), static_cast<_Elem*>(nullptr), _Cvt);

	mov	rax, QWORD PTR this$[rbp]
	add	rax, 44					; 0000002cH
	mov	QWORD PTR tv85[rbp], rax
	mov	rcx, QWORD PTR _Lobj$[rbp]
	call	QWORD PTR __imp_?_Getdays@_Locinfo@std@@QEBAPEBDXZ
	mov	rcx, QWORD PTR tv85[rbp]
	mov	r8, rcx
	xor	edx, edx
	mov	rcx, rax
	call	??$_Maklocstr@D@std@@YAPEADPEBDPEADAEBU_Cvtvec@@@Z ; std::_Maklocstr<char>
	mov	rcx, QWORD PTR this$[rbp]
	mov	QWORD PTR [rcx+16], rax

; 183  :             _Months = _Maklocstr(_Lobj._Getmonths(), static_cast<_Elem*>(nullptr), _Cvt);

	mov	rax, QWORD PTR this$[rbp]
	add	rax, 44					; 0000002cH
	mov	QWORD PTR tv93[rbp], rax
	mov	rcx, QWORD PTR _Lobj$[rbp]
	call	QWORD PTR __imp_?_Getmonths@_Locinfo@std@@QEBAPEBDXZ
	mov	rcx, QWORD PTR tv93[rbp]
	mov	r8, rcx
	xor	edx, edx
	mov	rcx, rax
	call	??$_Maklocstr@D@std@@YAPEADPEBDPEADAEBU_Cvtvec@@@Z ; std::_Maklocstr<char>
	mov	rcx, QWORD PTR this$[rbp]
	mov	QWORD PTR [rcx+24], rax

; 184  :             _Ampm   = _Maklocstr(":AM:am:PM:pm", static_cast<_Elem*>(nullptr), _Cvt);

	mov	rax, QWORD PTR this$[rbp]
	add	rax, 44					; 0000002cH
	mov	r8, rax
	xor	edx, edx
	lea	rcx, OFFSET FLAT:??_C@_0N@LPFKKEBD@?3AM?3am?3PM?3pm@
	call	??$_Maklocstr@D@std@@YAPEADPEBDPEADAEBU_Cvtvec@@@Z ; std::_Maklocstr<char>
	mov	rcx, QWORD PTR this$[rbp]
	mov	QWORD PTR [rcx+32], rax
$LN3@Getvals:

; 185  :         }
; 186  :     }

	lea	rsp, QWORD PTR [rbp+272]
	pop	rdi
	pop	rsi
	pop	rbp
	ret	0
??$_Getvals@_W@?$time_get@DV?$istreambuf_iterator@DU?$char_traits@D@std@@@std@@@std@@IEAAX_WAEBV_Locinfo@1@@Z ENDP ; std::time_get<char,std::istreambuf_iterator<char,std::char_traits<char> > >::_Getvals<wchar_t>
_TEXT	ENDS
; Function compile flags: /Odtp /RTCsu /ZI
; File C:\Users\CSUFTitan\Downloads\snakeGame-master (1)\snakeGame-master\SourceCode\ui_layer\view\termcolor.hpp
;	COMDAT ??__Ecolorize_index@_internal@termcolor@@YAXXZ
text$di	SEGMENT
??__Ecolorize_index@_internal@termcolor@@YAXXZ PROC	; termcolor::_internal::`dynamic initializer for 'colorize_index'', COMDAT

; 54   :         static int colorize_index = std::ios_base::xalloc();

	push	rbp
	push	rdi
	sub	rsp, 232				; 000000e8H
	lea	rbp, QWORD PTR [rsp+32]
	mov	rdi, rsp
	mov	ecx, 58					; 0000003aH
	mov	eax, -858993460				; ccccccccH
	rep stosd
	lea	rcx, OFFSET FLAT:__9AA6091B_termcolor@hpp
	call	__CheckForDebuggerJustMyCode
	call	QWORD PTR __imp_?xalloc@ios_base@std@@SAHXZ
	mov	DWORD PTR ?colorize_index@_internal@termcolor@@3HA, eax
	lea	rsp, QWORD PTR [rbp+200]
	pop	rdi
	pop	rbp
	ret	0
??__Ecolorize_index@_internal@termcolor@@YAXXZ ENDP	; termcolor::_internal::`dynamic initializer for 'colorize_index''
text$di	ENDS
; Function compile flags: /Odtp /RTCsu /ZI
; File C:\Users\CSUFTitan\Downloads\snakeGame-master (1)\snakeGame-master\SourceCode\main.cpp
;	COMDAT SDL_main
_TEXT	SEGMENT
userInterface$ = 8
$T1 = 232
$T2 = 264
tv80 = 280
argc$ = 320
argv$ = 328
SDL_main PROC						; COMDAT

; 22   : {

$LN5:
	mov	QWORD PTR [rsp+16], rdx
	mov	DWORD PTR [rsp+8], ecx
	push	rbp
	push	rdi
	sub	rsp, 328				; 00000148H
	lea	rbp, QWORD PTR [rsp+32]
	mov	rdi, rsp
	mov	ecx, 82					; 00000052H
	mov	eax, -858993460				; ccccccccH
	rep stosd
	mov	ecx, DWORD PTR [rsp+360]
	lea	rcx, OFFSET FLAT:__525557A3_main@cpp
	call	__CheckForDebuggerJustMyCode

; 23   :     UNUSED(argc);
; 24   :     UNUSED(argv);
; 25   : 
; 26   :     // create the viewhandler object.
; 27   :     ui_layer::view::ViewHandler *userInterface = new ui_layer::view::View;

	mov	ecx, 64					; 00000040H
	call	??2@YAPEAX_K@Z				; operator new
	mov	QWORD PTR $T2[rbp], rax
	cmp	QWORD PTR $T2[rbp], 0
	je	SHORT $LN3@SDL_main
	mov	edx, 64					; 00000040H
	mov	rcx, QWORD PTR $T2[rbp]
	call	?__autoclassinit2@View@view@ui_layer@@QEAAX_K@Z
	mov	rcx, QWORD PTR $T2[rbp]
	call	??0View@view@ui_layer@@QEAA@XZ		; ui_layer::view::View::View
	mov	QWORD PTR tv80[rbp], rax
	jmp	SHORT $LN4@SDL_main
$LN3@SDL_main:
	mov	QWORD PTR tv80[rbp], 0
$LN4@SDL_main:
	mov	rax, QWORD PTR tv80[rbp]
	mov	QWORD PTR $T1[rbp], rax
	mov	rax, QWORD PTR $T1[rbp]
	mov	QWORD PTR userInterface$[rbp], rax

; 28   : 
; 29   :     // launch the ui.
; 30   :     userInterface->launch();

	mov	rax, QWORD PTR userInterface$[rbp]
	mov	rax, QWORD PTR [rax]
	mov	rcx, QWORD PTR userInterface$[rbp]
	call	QWORD PTR [rax+8]

; 31   : 
; 32   :     return 0;

	xor	eax, eax

; 33   : }

	lea	rsp, QWORD PTR [rbp+296]
	pop	rdi
	pop	rbp
	ret	0
SDL_main ENDP
_TEXT	ENDS
; Function compile flags: /Odtp /RTCsu /ZI
; File C:\Program Files (x86)\Microsoft Visual Studio\2019\Community\VC\Tools\MSVC\14.23.28105\include\xlocale
;	COMDAT ??$_Maklocstr@D@std@@YAPEADPEBDPEADAEBU_Cvtvec@@@Z
_TEXT	SEGMENT
_Count$ = 8
_Ptrdest$ = 40
_Ptrnext$1 = 72
_Ptr$ = 320
__formal$ = 328
__formal$ = 336
??$_Maklocstr@D@std@@YAPEADPEBDPEADAEBU_Cvtvec@@@Z PROC	; std::_Maklocstr<char>, COMDAT

; 564  : _Elem* __CRTDECL _Maklocstr(const char* _Ptr, _Elem*, const _Locinfo::_Cvtvec&) {

$LN7:
	mov	QWORD PTR [rsp+24], r8
	mov	QWORD PTR [rsp+16], rdx
	mov	QWORD PTR [rsp+8], rcx
	push	rbp
	push	rdi
	sub	rsp, 344				; 00000158H
	lea	rbp, QWORD PTR [rsp+48]
	mov	rdi, rsp
	mov	ecx, 86					; 00000056H
	mov	eax, -858993460				; ccccccccH
	rep stosd
	mov	rcx, QWORD PTR [rsp+376]
	lea	rcx, OFFSET FLAT:__70A34BE9_xlocale
	call	__CheckForDebuggerJustMyCode

; 565  :     // convert C string to _Elem sequence using _Cvtvec
; 566  :     size_t _Count = _CSTD strlen(_Ptr) + 1;

	mov	rcx, QWORD PTR _Ptr$[rbp]
	call	strlen
	inc	rax
	mov	QWORD PTR _Count$[rbp], rax

; 567  : 
; 568  :     _Elem* _Ptrdest = static_cast<_Elem*>(_calloc_dbg(_Count, sizeof(_Elem), _CRT_BLOCK, __FILE__, __LINE__));

	mov	DWORD PTR [rsp+32], 568			; 00000238H
	lea	r9, OFFSET FLAT:??_C@_0GI@PBEGAEEH@C?3?2Program?5Files?5?$CIx86?$CJ?2Microsof@
	mov	r8d, 2
	mov	edx, 1
	mov	rcx, QWORD PTR _Count$[rbp]
	call	QWORD PTR __imp__calloc_dbg
	mov	QWORD PTR _Ptrdest$[rbp], rax

; 569  : 
; 570  :     if (!_Ptrdest) {

	cmp	QWORD PTR _Ptrdest$[rbp], 0
	jne	SHORT $LN5@Maklocstr

; 571  :         _Xbad_alloc();

	call	?_Xbad_alloc@std@@YAXXZ			; std::_Xbad_alloc
$LN5@Maklocstr:

; 572  :     }
; 573  : 
; 574  :     for (_Elem* _Ptrnext = _Ptrdest; 0 < _Count; --_Count, ++_Ptrnext, ++_Ptr) {

	mov	rax, QWORD PTR _Ptrdest$[rbp]
	mov	QWORD PTR _Ptrnext$1[rbp], rax
	jmp	SHORT $LN4@Maklocstr
$LN2@Maklocstr:
	mov	rax, QWORD PTR _Count$[rbp]
	dec	rax
	mov	QWORD PTR _Count$[rbp], rax
	mov	rax, QWORD PTR _Ptrnext$1[rbp]
	inc	rax
	mov	QWORD PTR _Ptrnext$1[rbp], rax
	mov	rax, QWORD PTR _Ptr$[rbp]
	inc	rax
	mov	QWORD PTR _Ptr$[rbp], rax
$LN4@Maklocstr:
	cmp	QWORD PTR _Count$[rbp], 0
	jbe	SHORT $LN3@Maklocstr

; 575  :         *_Ptrnext = static_cast<_Elem>(static_cast<unsigned char>(*_Ptr));

	mov	rax, QWORD PTR _Ptrnext$1[rbp]
	mov	rcx, QWORD PTR _Ptr$[rbp]
	movzx	ecx, BYTE PTR [rcx]
	mov	BYTE PTR [rax], cl

; 576  :     }

	jmp	SHORT $LN2@Maklocstr
$LN3@Maklocstr:

; 577  : 
; 578  :     return _Ptrdest;

	mov	rax, QWORD PTR _Ptrdest$[rbp]
$LN6@Maklocstr:

; 579  : }

	lea	rsp, QWORD PTR [rbp+296]
	pop	rdi
	pop	rbp
	ret	0
??$_Maklocstr@D@std@@YAPEADPEBDPEADAEBU_Cvtvec@@@Z ENDP	; std::_Maklocstr<char>
_TEXT	ENDS
; Function compile flags: /Odtp /RTCsu /ZI
; File C:\Program Files (x86)\Microsoft Visual Studio\2019\Community\VC\Tools\MSVC\14.23.28105\include\xlocnum
;	COMDAT ?_Maklocwcs@std@@YAPEA_WPEB_W@Z
_TEXT	SEGMENT
_Count$ = 8
_Ptrdest$ = 40
_Ptr$ = 288
?_Maklocwcs@std@@YAPEA_WPEB_W@Z PROC			; std::_Maklocwcs, COMDAT

; 89   : inline wchar_t* _Maklocwcs(const wchar_t* _Ptr) { // copy NTWCS to allocated storage

$LN4:
	mov	QWORD PTR [rsp+8], rcx
	push	rbp
	push	rdi
	sub	rsp, 312				; 00000138H
	lea	rbp, QWORD PTR [rsp+48]
	mov	rdi, rsp
	mov	ecx, 78					; 0000004eH
	mov	eax, -858993460				; ccccccccH
	rep stosd
	mov	rcx, QWORD PTR [rsp+344]
	lea	rcx, OFFSET FLAT:__EE242DFE_xlocnum
	call	__CheckForDebuggerJustMyCode

; 90   :     const size_t _Count = _CSTD wcslen(_Ptr) + 1;

	mov	rcx, QWORD PTR _Ptr$[rbp]
	call	QWORD PTR __imp_wcslen
	inc	rax
	mov	QWORD PTR _Count$[rbp], rax

; 91   : 
; 92   :     wchar_t* _Ptrdest = static_cast<wchar_t*>(_calloc_dbg(_Count, sizeof(wchar_t), _CRT_BLOCK, __FILE__, __LINE__));

	mov	eax, DWORD PTR ?__LINE__Var@?0??_Maklocwcs@std@@YAPEA_WPEB_W@Z@4JA
	add	eax, 3
	mov	DWORD PTR [rsp+32], eax
	lea	r9, OFFSET FLAT:??_C@_0GI@HCALAGOG@C?3?2Program?5Files?5?$CIx86?$CJ?2Microsof@
	mov	r8d, 2
	mov	edx, 2
	mov	rcx, QWORD PTR _Count$[rbp]
	call	QWORD PTR __imp__calloc_dbg
	mov	QWORD PTR _Ptrdest$[rbp], rax

; 93   : 
; 94   :     if (!_Ptrdest) {

	cmp	QWORD PTR _Ptrdest$[rbp], 0
	jne	SHORT $LN2@Maklocwcs

; 95   :         _Xbad_alloc();

	call	?_Xbad_alloc@std@@YAXXZ			; std::_Xbad_alloc
$LN2@Maklocwcs:

; 96   :     }
; 97   : 
; 98   :     _CSTD wmemcpy(_Ptrdest, _Ptr, _Count);

	mov	r8, QWORD PTR _Count$[rbp]
	mov	rdx, QWORD PTR _Ptr$[rbp]
	mov	rcx, QWORD PTR _Ptrdest$[rbp]
	call	wmemcpy

; 99   :     return _Ptrdest;

	mov	rax, QWORD PTR _Ptrdest$[rbp]
$LN3@Maklocwcs:

; 100  : }

	lea	rsp, QWORD PTR [rbp+264]
	pop	rdi
	pop	rbp
	ret	0
?_Maklocwcs@std@@YAPEA_WPEB_W@Z ENDP			; std::_Maklocwcs
_TEXT	ENDS
; Function compile flags: /Odtp /RTCsu /ZI
; File C:\Program Files (x86)\Microsoft Visual Studio\2019\Community\VC\Tools\MSVC\14.23.28105\include\xlocale
;	COMDAT ??$_Maklocstr@_W@std@@YAPEA_WPEBDPEA_WAEBU_Cvtvec@@@Z
_TEXT	SEGMENT
_Count$ = 8
_Count1$ = 40
_Wchars$ = 72
_Ptr1$ = 104
_Bytes$ = 132
_Wc$ = 164
_Mbst1$ = 200
_Ptrdest$ = 232
_Ptrnext$ = 264
_Mbst2$ = 296
__$ArrayPad$ = 504
_Ptr$ = 544
__formal$ = 552
_Cvt$ = 560
??$_Maklocstr@_W@std@@YAPEA_WPEBDPEA_WAEBU_Cvtvec@@@Z PROC ; std::_Maklocstr<wchar_t>, COMDAT

; 582  : inline wchar_t* __CRTDECL _Maklocstr(const char* _Ptr, wchar_t*, const _Locinfo::_Cvtvec& _Cvt) {

$LN12:
	mov	QWORD PTR [rsp+24], r8
	mov	QWORD PTR [rsp+16], rdx
	mov	QWORD PTR [rsp+8], rcx
	push	rbp
	push	rdi
	sub	rsp, 568				; 00000238H
	lea	rbp, QWORD PTR [rsp+48]
	mov	rdi, rsp
	mov	ecx, 142				; 0000008eH
	mov	eax, -858993460				; ccccccccH
	rep stosd
	mov	rcx, QWORD PTR [rsp+600]
	mov	rax, QWORD PTR __security_cookie
	xor	rax, rbp
	mov	QWORD PTR __$ArrayPad$[rbp], rax
	lea	rcx, OFFSET FLAT:__70A34BE9_xlocale
	call	__CheckForDebuggerJustMyCode

; 583  :     // convert C string to wchar_t sequence using _Cvtvec
; 584  :     size_t _Count;
; 585  :     size_t _Count1;
; 586  :     size_t _Wchars;
; 587  :     const char* _Ptr1;
; 588  :     int _Bytes;
; 589  :     wchar_t _Wc;
; 590  :     mbstate_t _Mbst1 = {};

	lea	rax, QWORD PTR _Mbst1$[rbp]
	mov	rdi, rax
	xor	eax, eax
	mov	ecx, 8
	rep stosb

; 591  : 
; 592  :     _Count1 = _CSTD strlen(_Ptr) + 1;

	mov	rcx, QWORD PTR _Ptr$[rbp]
	call	strlen
	inc	rax
	mov	QWORD PTR _Count1$[rbp], rax

; 593  :     for (_Count = _Count1, _Wchars = 0, _Ptr1 = _Ptr; 0 < _Count; _Count -= _Bytes, _Ptr1 += _Bytes, ++_Wchars) {

	mov	rax, QWORD PTR _Count1$[rbp]
	mov	QWORD PTR _Count$[rbp], rax
	mov	QWORD PTR _Wchars$[rbp], 0
	mov	rax, QWORD PTR _Ptr$[rbp]
	mov	QWORD PTR _Ptr1$[rbp], rax
	jmp	SHORT $LN4@Maklocstr
$LN2@Maklocstr:
	movsxd	rax, DWORD PTR _Bytes$[rbp]
	mov	rcx, QWORD PTR _Count$[rbp]
	sub	rcx, rax
	mov	rax, rcx
	mov	QWORD PTR _Count$[rbp], rax
	movsxd	rax, DWORD PTR _Bytes$[rbp]
	mov	rcx, QWORD PTR _Ptr1$[rbp]
	add	rcx, rax
	mov	rax, rcx
	mov	QWORD PTR _Ptr1$[rbp], rax
	mov	rax, QWORD PTR _Wchars$[rbp]
	inc	rax
	mov	QWORD PTR _Wchars$[rbp], rax
$LN4@Maklocstr:
	cmp	QWORD PTR _Count$[rbp], 0
	jbe	SHORT $LN3@Maklocstr

; 594  :         if ((_Bytes = _Mbrtowc(&_Wc, _Ptr1, _Count, &_Mbst1, &_Cvt)) <= 0) {

	mov	rax, QWORD PTR _Cvt$[rbp]
	mov	QWORD PTR [rsp+32], rax
	lea	r9, QWORD PTR _Mbst1$[rbp]
	mov	r8, QWORD PTR _Count$[rbp]
	mov	rdx, QWORD PTR _Ptr1$[rbp]
	lea	rcx, QWORD PTR _Wc$[rbp]
	call	_Mbrtowc
	mov	DWORD PTR _Bytes$[rbp], eax
	cmp	DWORD PTR _Bytes$[rbp], 0
	jg	SHORT $LN8@Maklocstr

; 595  :             break;

	jmp	SHORT $LN3@Maklocstr
$LN8@Maklocstr:

; 596  :         }
; 597  :     }

	jmp	SHORT $LN2@Maklocstr
$LN3@Maklocstr:

; 598  : 
; 599  :     ++_Wchars; // count terminating nul

	mov	rax, QWORD PTR _Wchars$[rbp]
	inc	rax
	mov	QWORD PTR _Wchars$[rbp], rax

; 600  : 
; 601  :     wchar_t* _Ptrdest = static_cast<wchar_t*>(_calloc_dbg(_Wchars, sizeof(wchar_t), _CRT_BLOCK, __FILE__, __LINE__));

	mov	DWORD PTR [rsp+32], 601			; 00000259H
	lea	r9, OFFSET FLAT:??_C@_0GI@PBEGAEEH@C?3?2Program?5Files?5?$CIx86?$CJ?2Microsof@
	mov	r8d, 2
	mov	edx, 2
	mov	rcx, QWORD PTR _Wchars$[rbp]
	call	QWORD PTR __imp__calloc_dbg
	mov	QWORD PTR _Ptrdest$[rbp], rax

; 602  : 
; 603  :     if (!_Ptrdest) {

	cmp	QWORD PTR _Ptrdest$[rbp], 0
	jne	SHORT $LN9@Maklocstr

; 604  :         _Xbad_alloc();

	call	?_Xbad_alloc@std@@YAXXZ			; std::_Xbad_alloc
$LN9@Maklocstr:

; 605  :     }
; 606  : 
; 607  :     wchar_t* _Ptrnext = _Ptrdest;

	mov	rax, QWORD PTR _Ptrdest$[rbp]
	mov	QWORD PTR _Ptrnext$[rbp], rax

; 608  :     mbstate_t _Mbst2  = {};

	lea	rax, QWORD PTR _Mbst2$[rbp]
	mov	rdi, rax
	xor	eax, eax
	mov	ecx, 8
	rep stosb

; 609  : 
; 610  :     for (; 0 < _Wchars; _Count -= _Bytes, _Ptr += _Bytes, --_Wchars, ++_Ptrnext) {

	jmp	SHORT $LN7@Maklocstr
$LN5@Maklocstr:
	movsxd	rax, DWORD PTR _Bytes$[rbp]
	mov	rcx, QWORD PTR _Count$[rbp]
	sub	rcx, rax
	mov	rax, rcx
	mov	QWORD PTR _Count$[rbp], rax
	movsxd	rax, DWORD PTR _Bytes$[rbp]
	mov	rcx, QWORD PTR _Ptr$[rbp]
	add	rcx, rax
	mov	rax, rcx
	mov	QWORD PTR _Ptr$[rbp], rax
	mov	rax, QWORD PTR _Wchars$[rbp]
	dec	rax
	mov	QWORD PTR _Wchars$[rbp], rax
	mov	rax, QWORD PTR _Ptrnext$[rbp]
	add	rax, 2
	mov	QWORD PTR _Ptrnext$[rbp], rax
$LN7@Maklocstr:
	cmp	QWORD PTR _Wchars$[rbp], 0
	jbe	SHORT $LN6@Maklocstr

; 611  :         if ((_Bytes = _Mbrtowc(_Ptrnext, _Ptr, _Count1, &_Mbst2, &_Cvt)) <= 0) {

	mov	rax, QWORD PTR _Cvt$[rbp]
	mov	QWORD PTR [rsp+32], rax
	lea	r9, QWORD PTR _Mbst2$[rbp]
	mov	r8, QWORD PTR _Count1$[rbp]
	mov	rdx, QWORD PTR _Ptr$[rbp]
	mov	rcx, QWORD PTR _Ptrnext$[rbp]
	call	_Mbrtowc
	mov	DWORD PTR _Bytes$[rbp], eax
	cmp	DWORD PTR _Bytes$[rbp], 0
	jg	SHORT $LN10@Maklocstr

; 612  :             break;

	jmp	SHORT $LN6@Maklocstr
$LN10@Maklocstr:

; 613  :         }
; 614  :     }

	jmp	$LN5@Maklocstr
$LN6@Maklocstr:

; 615  : 
; 616  :     *_Ptrnext = L'\0';

	xor	eax, eax
	mov	rcx, QWORD PTR _Ptrnext$[rbp]
	mov	WORD PTR [rcx], ax

; 617  : 
; 618  :     return _Ptrdest;

	mov	rax, QWORD PTR _Ptrdest$[rbp]
$LN11@Maklocstr:

; 619  : }

	mov	rdi, rax
	lea	rcx, QWORD PTR [rbp-48]
	lea	rdx, OFFSET FLAT:??$_Maklocstr@_W@std@@YAPEA_WPEBDPEA_WAEBU_Cvtvec@@@Z$rtcFrameData
	call	_RTC_CheckStackVars
	mov	rax, rdi
	mov	rcx, QWORD PTR __$ArrayPad$[rbp]
	xor	rcx, rbp
	call	__security_check_cookie
	lea	rsp, QWORD PTR [rbp+520]
	pop	rdi
	pop	rbp
	ret	0
??$_Maklocstr@_W@std@@YAPEA_WPEBDPEA_WAEBU_Cvtvec@@@Z ENDP ; std::_Maklocstr<wchar_t>
_TEXT	ENDS
; Function compile flags: /Odtp /RTCsu /ZI
; File C:\Program Files (x86)\Windows Kits\10\Include\10.0.18362.0\ucrt\wchar.h
;	COMDAT wmemcpy
_TEXT	SEGMENT
_S1$ = 224
_S2$ = 232
_N$ = 240
wmemcpy	PROC						; COMDAT

; 230  :     {

$LN3:
	mov	QWORD PTR [rsp+24], r8
	mov	QWORD PTR [rsp+16], rdx
	mov	QWORD PTR [rsp+8], rcx
	push	rbp
	push	rdi
	sub	rsp, 232				; 000000e8H
	lea	rbp, QWORD PTR [rsp+32]
	mov	rdi, rsp
	mov	ecx, 58					; 0000003aH
	mov	eax, -858993460				; ccccccccH
	rep stosd
	mov	rcx, QWORD PTR [rsp+264]
	lea	rcx, OFFSET FLAT:__534C724A_wchar@h
	call	__CheckForDebuggerJustMyCode

; 231  :         #pragma warning(push)
; 232  :         #pragma warning(disable : 4995 4996 6386)
; 233  :         return (wchar_t*)memcpy(_S1, _S2, _N*sizeof(wchar_t));

	mov	rax, QWORD PTR _N$[rbp]
	shl	rax, 1
	mov	r8, rax
	mov	rdx, QWORD PTR _S2$[rbp]
	mov	rcx, QWORD PTR _S1$[rbp]
	call	memcpy

; 234  :         #pragma warning(pop)
; 235  :     }

	lea	rsp, QWORD PTR [rbp+200]
	pop	rdi
	pop	rbp
	ret	0
wmemcpy	ENDP
_TEXT	ENDS
; Function compile flags: /Odtp /RTCsu /ZI
; File C:\Users\CSUFTitan\Downloads\snakeGame-master (1)\snakeGame-master\SourceCode\main.cpp
;	COMDAT ?__empty_global_delete@@YAXPEAX_KW4align_val_t@std@@@Z
_TEXT	SEGMENT
__formal$ = 224
__formal$ = 232
__formal$ = 240
?__empty_global_delete@@YAXPEAX_KW4align_val_t@std@@@Z PROC ; __empty_global_delete, COMDAT

$LN3:
	mov	QWORD PTR [rsp+24], r8
	mov	QWORD PTR [rsp+16], rdx
	mov	QWORD PTR [rsp+8], rcx
	push	rbp
	push	rdi
	sub	rsp, 232				; 000000e8H
	lea	rbp, QWORD PTR [rsp+32]
	mov	rdi, rsp
	mov	ecx, 58					; 0000003aH
	mov	eax, -858993460				; ccccccccH
	rep stosd
	mov	rcx, QWORD PTR [rsp+264]
	lea	rcx, OFFSET FLAT:__525557A3_main@cpp
	call	__CheckForDebuggerJustMyCode
	npad	1
	lea	rsp, QWORD PTR [rbp+200]
	pop	rdi
	pop	rbp
	ret	0
?__empty_global_delete@@YAXPEAX_KW4align_val_t@std@@@Z ENDP ; __empty_global_delete
_TEXT	ENDS
; Function compile flags: /Odtp /RTCsu /ZI
; File C:\Users\CSUFTitan\Downloads\snakeGame-master (1)\snakeGame-master\SourceCode\main.cpp
;	COMDAT ?__empty_global_delete@@YAXPEAXW4align_val_t@std@@@Z
_TEXT	SEGMENT
__formal$ = 224
__formal$ = 232
?__empty_global_delete@@YAXPEAXW4align_val_t@std@@@Z PROC ; __empty_global_delete, COMDAT

$LN3:
	mov	QWORD PTR [rsp+16], rdx
	mov	QWORD PTR [rsp+8], rcx
	push	rbp
	push	rdi
	sub	rsp, 232				; 000000e8H
	lea	rbp, QWORD PTR [rsp+32]
	mov	rdi, rsp
	mov	ecx, 58					; 0000003aH
	mov	eax, -858993460				; ccccccccH
	rep stosd
	mov	rcx, QWORD PTR [rsp+264]
	lea	rcx, OFFSET FLAT:__525557A3_main@cpp
	call	__CheckForDebuggerJustMyCode
	npad	1
	lea	rsp, QWORD PTR [rbp+200]
	pop	rdi
	pop	rbp
	ret	0
?__empty_global_delete@@YAXPEAXW4align_val_t@std@@@Z ENDP ; __empty_global_delete
_TEXT	ENDS
; Function compile flags: /Odtp /RTCsu /ZI
; File C:\Users\CSUFTitan\Downloads\snakeGame-master (1)\snakeGame-master\SourceCode\main.cpp
;	COMDAT ?__empty_global_delete@@YAXPEAX_K@Z
_TEXT	SEGMENT
__formal$ = 224
__formal$ = 232
?__empty_global_delete@@YAXPEAX_K@Z PROC		; __empty_global_delete, COMDAT

$LN3:
	mov	QWORD PTR [rsp+16], rdx
	mov	QWORD PTR [rsp+8], rcx
	push	rbp
	push	rdi
	sub	rsp, 232				; 000000e8H
	lea	rbp, QWORD PTR [rsp+32]
	mov	rdi, rsp
	mov	ecx, 58					; 0000003aH
	mov	eax, -858993460				; ccccccccH
	rep stosd
	mov	rcx, QWORD PTR [rsp+264]
	lea	rcx, OFFSET FLAT:__525557A3_main@cpp
	call	__CheckForDebuggerJustMyCode
	npad	1
	lea	rsp, QWORD PTR [rbp+200]
	pop	rdi
	pop	rbp
	ret	0
?__empty_global_delete@@YAXPEAX_K@Z ENDP		; __empty_global_delete
_TEXT	ENDS
; Function compile flags: /Odtp /RTCsu /ZI
; File C:\Users\CSUFTitan\Downloads\snakeGame-master (1)\snakeGame-master\SourceCode\main.cpp
;	COMDAT ?__empty_global_delete@@YAXPEAX@Z
_TEXT	SEGMENT
__formal$ = 224
?__empty_global_delete@@YAXPEAX@Z PROC			; __empty_global_delete, COMDAT

$LN3:
	mov	QWORD PTR [rsp+8], rcx
	push	rbp
	push	rdi
	sub	rsp, 232				; 000000e8H
	lea	rbp, QWORD PTR [rsp+32]
	mov	rdi, rsp
	mov	ecx, 58					; 0000003aH
	mov	eax, -858993460				; ccccccccH
	rep stosd
	mov	rcx, QWORD PTR [rsp+264]
	lea	rcx, OFFSET FLAT:__525557A3_main@cpp
	call	__CheckForDebuggerJustMyCode
	npad	1
	lea	rsp, QWORD PTR [rbp+200]
	pop	rdi
	pop	rbp
	ret	0
?__empty_global_delete@@YAXPEAX@Z ENDP			; __empty_global_delete
_TEXT	ENDS
END
