; Listing generated by Microsoft (R) Optimizing Compiler Version 19.23.28106.4 

include listing.inc

INCLUDELIB MSVCRTD
INCLUDELIB OLDNAMES

msvcjmc	SEGMENT
__0A074437_vcruntime_new@h DB 01H
__09340588_corecrt_math@h DB 01H
__24E9E95F_stdlib@h DB 01H
__86D65F0C_cstdlib DB 01H
__F66CEB67_corecrt_stdio_config@h DB 01H
__101834BA_corecrt_wstdio@h DB 01H
__AD6A91B7_stdio@h DB 01H
__367CC694_corecrt_memcpy_s@h DB 01H
__5467428D_corecrt_wconio@h DB 01H
__4442441F_corecrt_wio@h DB 01H
__DC9673E3_corecrt_wstring@h DB 01H
__45F4AF76_corecrt_wtime@h DB 01H
__186FF47F_stat@h DB 01H
__534C724A_wchar@h DB 01H
__231D85A1_cstddef DB 01H
__843B0F21_limits DB 01H
__FFC6471F_type_traits DB 01H
__B0C4CEA9_malloc@h DB 01H
__69245D52_vcruntime_exception@h DB 01H
__536DB091_exception DB 01H
__35D7DDB3_corecrt_memory@h DB 01H
__A29A7DFB_string@h DB 01H
__86E03ACD_xutility DB 01H
__DB4EB944_xmemory DB 01H
__B9A1F245_algorithm DB 01H
__6A0B36D1_cmath DB 01H
__CC282F90_tuple DB 01H
__C9317CBB_xpolymorphic_allocator@h DB 01H
__AF9D3FD8_xstring DB 01H
__DA238ACC_stdexcept DB 01H
__65AE1ACD_xcall_once@h DB 01H
__DAF308ED_system_error DB 01H
__36900320_vcruntime_typeinfo@h DB 01H
__F63FC9D4_typeinfo DB 01H
__389503AF_memory DB 01H
__14D054A0_xfacet DB 01H
__7242C389_ctype@h DB 01H
__E9B62A1C_xlocinfo DB 01H
__70A34BE9_xlocale DB 01H
__D0535D0F_xiosbase DB 01H
__EE242DFE_xlocnum DB 01H
__D17CECDD_ios DB 01H
__C4C3ED4F_random DB 01H
__3FA3F145_SDL_stdinc@h DB 01H
__1662896C_SDL_endian@h DB 01H
__E3097871_SDL_rect@h DB 01H
__BB5134BF_Snake@hpp DB 01H
__4C468533_string DB 01H
__20CC7B81_PersistenceHandler@hpp DB 01H
__AF8FE13E_PlayerHandler@hpp DB 01H
__84FFAAFB_corecrt_io@h DB 01H
__90A1F774_basetsd@h DB 01H
__3C23D660_guiddef@h DB 01H
__AF541008_winnt@h DB 01H
__0D001789_processthreadsapi@h DB 01H
__F972325D_memoryapi@h DB 01H
__76CD430D_winerror@h DB 01H
__737D49DB_winbase@h DB 01H
__1B9502AC_winuser@h DB 01H
__376EBCA0_winioctl@h DB 01H
__2CCBBE23_propidl@h DB 01H
__AD360DAF_oleauto@h DB 01H
__0396F1A5_stralign@h DB 01H
__9AA6091B_termcolor@hpp DB 01H
__031C4ED9_ViewHandler@hpp DB 01H
__A9CC8C43_LoggerHandler@hpp DB 01H
__06B8AF7F_ratio DB 01H
__8AA3BE86_time@h DB 01H
__E0D609AB_chrono DB 01H
__C54638C6_xlocmon DB 01H
__4DAB830E_xloctime DB 01H
__56A4B53F_SimpleLogger@hpp DB 01H
__4741CBCA_CreditCard@hpp DB 01H
__44C2ADAE_View@hpp DB 01H
__4897424F_View@cpp DB 01H
__C9967FC1_vector DB 01H
__0063A417_istream DB 01H
__63B3912D_ostream DB 01H
__D8833270_streambuf DB 01H
__48D2DAA7_iosfwd DB 01H
__B1DBDA87_utility DB 01H
__46C44D95_xstddef DB 01H
__59613C47_xatomic@h DB 01H
__FCA16245_iomanip DB 01H
msvcjmc	ENDS
PUBLIC	?__empty_global_delete@@YAXPEAX@Z		; __empty_global_delete
PUBLIC	?__empty_global_delete@@YAXPEAX_K@Z		; __empty_global_delete
PUBLIC	?__empty_global_delete@@YAXPEAXW4align_val_t@std@@@Z ; __empty_global_delete
PUBLIC	?__empty_global_delete@@YAXPEAX_KW4align_val_t@std@@@Z ; __empty_global_delete
PUBLIC	??2@YAPEAX_KPEAX@Z				; operator new
PUBLIC	__local_stdio_printf_options
PUBLIC	_vsprintf_s_l
PUBLIC	vsprintf_s
PUBLIC	wmemcpy
PUBLIC	?max@?$numeric_limits@_J@std@@SA_JXZ		; std::numeric_limits<__int64>::max
PUBLIC	??0exception@std@@QEAA@QEBDH@Z			; std::exception::exception
PUBLIC	??0exception@std@@QEAA@AEBV01@@Z		; std::exception::exception
PUBLIC	??1exception@std@@UEAA@XZ			; std::exception::~exception
PUBLIC	?what@exception@std@@UEBAPEBDXZ			; std::exception::what
PUBLIC	??_Gexception@std@@UEAAPEAXI@Z			; std::exception::`scalar deleting destructor'
PUBLIC	??0bad_alloc@std@@AEAA@QEBD@Z			; std::bad_alloc::bad_alloc
PUBLIC	??1bad_alloc@std@@UEAA@XZ			; std::bad_alloc::~bad_alloc
PUBLIC	??0bad_alloc@std@@QEAA@AEBV01@@Z		; std::bad_alloc::bad_alloc
PUBLIC	??_Gbad_alloc@std@@UEAAPEAXI@Z			; std::bad_alloc::`scalar deleting destructor'
PUBLIC	??0bad_array_new_length@std@@QEAA@XZ		; std::bad_array_new_length::bad_array_new_length
PUBLIC	??1bad_array_new_length@std@@UEAA@XZ		; std::bad_array_new_length::~bad_array_new_length
PUBLIC	??0bad_array_new_length@std@@QEAA@AEBV01@@Z	; std::bad_array_new_length::bad_array_new_length
PUBLIC	??_Gbad_array_new_length@std@@UEAAPEAXI@Z	; std::bad_array_new_length::`scalar deleting destructor'
PUBLIC	?_Throw_bad_array_new_length@std@@YAXXZ		; std::_Throw_bad_array_new_length
PUBLIC	?_Allocate@_Default_allocate_traits@std@@SAPEAX_K@Z ; std::_Default_allocate_traits::_Allocate
PUBLIC	?_Adjust_manually_vector_aligned@std@@YAXAEAPEAXAEA_K@Z ; std::_Adjust_manually_vector_aligned
PUBLIC	??$_Convert_size@_K@std@@YA_K_K@Z		; std::_Convert_size<unsigned __int64>
PUBLIC	??0_Container_proxy@std@@QEAA@PEAU_Container_base12@1@@Z ; std::_Container_proxy::_Container_proxy
PUBLIC	??0_Container_base12@std@@QEAA@XZ		; std::_Container_base12::_Container_base12
PUBLIC	?_Orphan_all@_Container_base12@std@@QEAAXXZ	; std::_Container_base12::_Orphan_all
PUBLIC	?_Swap_proxy_and_iterators@_Container_base12@std@@QEAAXAEAU12@@Z ; std::_Container_base12::_Swap_proxy_and_iterators
PUBLIC	??$_Construct_in_place@U_Container_proxy@std@@PEAU_Container_base12@2@@std@@YAXAEAU_Container_proxy@0@$$QEAPEAU_Container_base12@0@@Z ; std::_Construct_in_place<std::_Container_proxy,std::_Container_base12 *>
PUBLIC	??0_Iterator_base12@std@@QEAA@XZ		; std::_Iterator_base12::_Iterator_base12
PUBLIC	??1_Iterator_base12@std@@QEAA@XZ		; std::_Iterator_base12::~_Iterator_base12
PUBLIC	?_Adopt@_Iterator_base12@std@@QEAAXPEBU_Container_base12@2@@Z ; std::_Iterator_base12::_Adopt
PUBLIC	?_Getcont@_Iterator_base12@std@@QEBAPEBU_Container_base12@2@XZ ; std::_Iterator_base12::_Getcont
PUBLIC	?_Orphan_me@_Iterator_base12@std@@QEAAXXZ	; std::_Iterator_base12::_Orphan_me
PUBLIC	?_Release@_Basic_container_proxy_ptr12@std@@QEAAXXZ ; std::_Basic_container_proxy_ptr12::_Release
PUBLIC	??$addressof@U_Container_base12@std@@@std@@YAPEAU_Container_base12@0@AEAU10@@Z ; std::addressof<std::_Container_base12>
PUBLIC	??0?$allocator@D@std@@QEAA@XZ			; std::allocator<char>::allocator<char>
PUBLIC	?deallocate@?$allocator@D@std@@QEAAXQEAD_K@Z	; std::allocator<char>::deallocate
PUBLIC	?allocate@?$allocator@D@std@@QEAAPEAD_K@Z	; std::allocator<char>::allocate
PUBLIC	?compare@?$_Narrow_char_traits@DH@std@@SAHQEBD0_K@Z ; std::_Narrow_char_traits<char,int>::compare
PUBLIC	?length@?$_Narrow_char_traits@DH@std@@SA_KQEBD@Z ; std::_Narrow_char_traits<char,int>::length
PUBLIC	?copy@?$_Narrow_char_traits@DH@std@@SAPEADQEADQEBD_K@Z ; std::_Narrow_char_traits<char,int>::copy
PUBLIC	?move@?$_Narrow_char_traits@DH@std@@SAPEADQEADQEBD_K@Z ; std::_Narrow_char_traits<char,int>::move
PUBLIC	?assign@?$_Narrow_char_traits@DH@std@@SAXAEADAEBD@Z ; std::_Narrow_char_traits<char,int>::assign
PUBLIC	?to_char_type@?$_Narrow_char_traits@DH@std@@SADAEBH@Z ; std::_Narrow_char_traits<char,int>::to_char_type
PUBLIC	?to_int_type@?$_Narrow_char_traits@DH@std@@SAHAEBD@Z ; std::_Narrow_char_traits<char,int>::to_int_type
PUBLIC	?eq_int_type@?$_Narrow_char_traits@DH@std@@SA_NAEBH0@Z ; std::_Narrow_char_traits<char,int>::eq_int_type
PUBLIC	?eof@?$_Narrow_char_traits@DH@std@@SAHXZ	; std::_Narrow_char_traits<char,int>::eof
PUBLIC	??$_Min_value@_K@std@@YAAEB_KAEB_K0@Z		; std::_Min_value<unsigned __int64>
PUBLIC	?max_size@?$_Default_allocator_traits@V?$allocator@D@std@@@std@@SA_KAEBV?$allocator@D@2@@Z ; std::_Default_allocator_traits<std::allocator<char> >::max_size
PUBLIC	?select_on_container_copy_construction@?$_Default_allocator_traits@V?$allocator@D@std@@@std@@SA?AV?$allocator@D@2@AEBV32@@Z ; std::_Default_allocator_traits<std::allocator<char> >::select_on_container_copy_construction
PUBLIC	??0?$_String_val@U?$_Simple_types@D@std@@@std@@QEAA@XZ ; std::_String_val<std::_Simple_types<char> >::_String_val<std::_Simple_types<char> >
PUBLIC	?_Myptr@?$_String_val@U?$_Simple_types@D@std@@@std@@QEAAPEADXZ ; std::_String_val<std::_Simple_types<char> >::_Myptr
PUBLIC	?_Myptr@?$_String_val@U?$_Simple_types@D@std@@@std@@QEBAPEBDXZ ; std::_String_val<std::_Simple_types<char> >::_Myptr
PUBLIC	?_Large_string_engaged@?$_String_val@U?$_Simple_types@D@std@@@std@@QEBA_NXZ ; std::_String_val<std::_Simple_types<char> >::_Large_string_engaged
PUBLIC	?_Check_offset@?$_String_val@U?$_Simple_types@D@std@@@std@@QEBAX_K@Z ; std::_String_val<std::_Simple_types<char> >::_Check_offset
PUBLIC	?_Xran@?$_String_val@U?$_Simple_types@D@std@@@std@@SAXXZ ; std::_String_val<std::_Simple_types<char> >::_Xran
PUBLIC	??0_Bxty@?$_String_val@U?$_Simple_types@D@std@@@std@@QEAA@XZ ; std::_String_val<std::_Simple_types<char> >::_Bxty::_Bxty
PUBLIC	??1_Bxty@?$_String_val@U?$_Simple_types@D@std@@@std@@QEAA@XZ ; std::_String_val<std::_Simple_types<char> >::_Bxty::~_Bxty
PUBLIC	??1?$_String_val@U?$_Simple_types@D@std@@@std@@QEAA@XZ ; std::_String_val<std::_Simple_types<char> >::~_String_val<std::_Simple_types<char> >
PUBLIC	??0?$basic_string@DU?$char_traits@D@std@@V?$allocator@D@2@@std@@QEAA@AEBV01@@Z ; std::basic_string<char,std::char_traits<char>,std::allocator<char> >::basic_string<char,std::char_traits<char>,std::allocator<char> >
PUBLIC	??0?$basic_string@DU?$char_traits@D@std@@V?$allocator@D@2@@std@@QEAA@XZ ; std::basic_string<char,std::char_traits<char>,std::allocator<char> >::basic_string<char,std::char_traits<char>,std::allocator<char> >
PUBLIC	??0?$basic_string@DU?$char_traits@D@std@@V?$allocator@D@2@@std@@QEAA@QEBD@Z ; std::basic_string<char,std::char_traits<char>,std::allocator<char> >::basic_string<char,std::char_traits<char>,std::allocator<char> >
PUBLIC	??0?$basic_string@DU?$char_traits@D@std@@V?$allocator@D@2@@std@@QEAA@$$QEAV01@@Z ; std::basic_string<char,std::char_traits<char>,std::allocator<char> >::basic_string<char,std::char_traits<char>,std::allocator<char> >
PUBLIC	?_Move_assign@?$basic_string@DU?$char_traits@D@std@@V?$allocator@D@2@@std@@AEAAXAEAV12@U_Equal_allocators@2@@Z ; std::basic_string<char,std::char_traits<char>,std::allocator<char> >::_Move_assign
PUBLIC	??4?$basic_string@DU?$char_traits@D@std@@V?$allocator@D@2@@std@@QEAAAEAV01@$$QEAV01@@Z ; std::basic_string<char,std::char_traits<char>,std::allocator<char> >::operator=
PUBLIC	?_Memcpy_val_from@?$basic_string@DU?$char_traits@D@std@@V?$allocator@D@2@@std@@AEAAXAEBV12@@Z ; std::basic_string<char,std::char_traits<char>,std::allocator<char> >::_Memcpy_val_from
PUBLIC	?_Take_contents@?$basic_string@DU?$char_traits@D@std@@V?$allocator@D@2@@std@@AEAAXAEAV12@U?$integral_constant@_N$00@2@@Z ; std::basic_string<char,std::char_traits<char>,std::allocator<char> >::_Take_contents
PUBLIC	?_Construct_lv_contents@?$basic_string@DU?$char_traits@D@std@@V?$allocator@D@2@@std@@AEAAXAEBV12@@Z ; std::basic_string<char,std::char_traits<char>,std::allocator<char> >::_Construct_lv_contents
PUBLIC	??1?$basic_string@DU?$char_traits@D@std@@V?$allocator@D@2@@std@@QEAA@XZ ; std::basic_string<char,std::char_traits<char>,std::allocator<char> >::~basic_string<char,std::char_traits<char>,std::allocator<char> >
PUBLIC	?_Copy_assign@?$basic_string@DU?$char_traits@D@std@@V?$allocator@D@2@@std@@AEAAXAEBV12@U?$integral_constant@_N$0A@@2@@Z ; std::basic_string<char,std::char_traits<char>,std::allocator<char> >::_Copy_assign
PUBLIC	??4?$basic_string@DU?$char_traits@D@std@@V?$allocator@D@2@@std@@QEAAAEAV01@AEBV01@@Z ; std::basic_string<char,std::char_traits<char>,std::allocator<char> >::operator=
PUBLIC	??Y?$basic_string@DU?$char_traits@D@std@@V?$allocator@D@2@@std@@QEAAAEAV01@D@Z ; std::basic_string<char,std::char_traits<char>,std::allocator<char> >::operator+=
PUBLIC	?assign@?$basic_string@DU?$char_traits@D@std@@V?$allocator@D@2@@std@@QEAAAEAV12@QEBD_K@Z ; std::basic_string<char,std::char_traits<char>,std::allocator<char> >::assign
PUBLIC	?assign@?$basic_string@DU?$char_traits@D@std@@V?$allocator@D@2@@std@@QEAAAEAV12@QEBD@Z ; std::basic_string<char,std::char_traits<char>,std::allocator<char> >::assign
PUBLIC	?erase@?$basic_string@DU?$char_traits@D@std@@V?$allocator@D@2@@std@@QEAAAEAV12@_K@Z ; std::basic_string<char,std::char_traits<char>,std::allocator<char> >::erase
PUBLIC	?push_back@?$basic_string@DU?$char_traits@D@std@@V?$allocator@D@2@@std@@QEAAXD@Z ; std::basic_string<char,std::char_traits<char>,std::allocator<char> >::push_back
PUBLIC	?data@?$basic_string@DU?$char_traits@D@std@@V?$allocator@D@2@@std@@QEBAPEBDXZ ; std::basic_string<char,std::char_traits<char>,std::allocator<char> >::data
PUBLIC	?size@?$basic_string@DU?$char_traits@D@std@@V?$allocator@D@2@@std@@QEBA_KXZ ; std::basic_string<char,std::char_traits<char>,std::allocator<char> >::size
PUBLIC	?max_size@?$basic_string@DU?$char_traits@D@std@@V?$allocator@D@2@@std@@QEBA_KXZ ; std::basic_string<char,std::char_traits<char>,std::allocator<char> >::max_size
PUBLIC	?_Equal@?$basic_string@DU?$char_traits@D@std@@V?$allocator@D@2@@std@@QEBA_NAEBV12@@Z ; std::basic_string<char,std::char_traits<char>,std::allocator<char> >::_Equal
PUBLIC	?_Calculate_growth@?$basic_string@DU?$char_traits@D@std@@V?$allocator@D@2@@std@@CA_K_K00@Z ; std::basic_string<char,std::char_traits<char>,std::allocator<char> >::_Calculate_growth
PUBLIC	?_Calculate_growth@?$basic_string@DU?$char_traits@D@std@@V?$allocator@D@2@@std@@AEBA_K_K@Z ; std::basic_string<char,std::char_traits<char>,std::allocator<char> >::_Calculate_growth
PUBLIC	?_Eos@?$basic_string@DU?$char_traits@D@std@@V?$allocator@D@2@@std@@AEAAX_K@Z ; std::basic_string<char,std::char_traits<char>,std::allocator<char> >::_Eos
PUBLIC	?_Tidy_init@?$basic_string@DU?$char_traits@D@std@@V?$allocator@D@2@@std@@AEAAXXZ ; std::basic_string<char,std::char_traits<char>,std::allocator<char> >::_Tidy_init
PUBLIC	?_Tidy_deallocate@?$basic_string@DU?$char_traits@D@std@@V?$allocator@D@2@@std@@AEAAXXZ ; std::basic_string<char,std::char_traits<char>,std::allocator<char> >::_Tidy_deallocate
PUBLIC	?_Xlen@?$basic_string@DU?$char_traits@D@std@@V?$allocator@D@2@@std@@CAXXZ ; std::basic_string<char,std::char_traits<char>,std::allocator<char> >::_Xlen
PUBLIC	?_Swap_proxy_and_iterators@?$basic_string@DU?$char_traits@D@std@@V?$allocator@D@2@@std@@AEAAXAEAV12@@Z ; std::basic_string<char,std::char_traits<char>,std::allocator<char> >::_Swap_proxy_and_iterators
PUBLIC	?_Getal@?$basic_string@DU?$char_traits@D@std@@V?$allocator@D@2@@std@@AEAAAEAV?$allocator@D@2@XZ ; std::basic_string<char,std::char_traits<char>,std::allocator<char> >::_Getal
PUBLIC	?_Getal@?$basic_string@DU?$char_traits@D@std@@V?$allocator@D@2@@std@@AEBAAEBV?$allocator@D@2@XZ ; std::basic_string<char,std::char_traits<char>,std::allocator<char> >::_Getal
PUBLIC	?_Get_first@?$_Compressed_pair@V?$allocator@D@std@@V?$_String_val@U?$_Simple_types@D@std@@@2@$00@std@@QEAAAEAV?$allocator@D@2@XZ ; std::_Compressed_pair<std::allocator<char>,std::_String_val<std::_Simple_types<char> >,1>::_Get_first
PUBLIC	?_Get_first@?$_Compressed_pair@V?$allocator@D@std@@V?$_String_val@U?$_Simple_types@D@std@@@2@$00@std@@QEBAAEBV?$allocator@D@2@XZ ; std::_Compressed_pair<std::allocator<char>,std::_String_val<std::_Simple_types<char> >,1>::_Get_first
PUBLIC	??1?$_Compressed_pair@V?$allocator@D@std@@V?$_String_val@U?$_Simple_types@D@std@@@2@$00@std@@QEAA@XZ ; std::_Compressed_pair<std::allocator<char>,std::_String_val<std::_Simple_types<char> >,1>::~_Compressed_pair<std::allocator<char>,std::_String_val<std::_Simple_types<char> >,1>
PUBLIC	??0bad_cast@std@@QEAA@XZ			; std::bad_cast::bad_cast
PUBLIC	??1bad_cast@std@@UEAA@XZ			; std::bad_cast::~bad_cast
PUBLIC	??0bad_cast@std@@QEAA@AEBV01@@Z			; std::bad_cast::bad_cast
PUBLIC	??_Gbad_cast@std@@UEAAPEAXI@Z			; std::bad_cast::`scalar deleting destructor'
PUBLIC	?_Throw_bad_cast@std@@YAXXZ			; std::_Throw_bad_cast
PUBLIC	??1locale@std@@QEAA@XZ				; std::locale::~locale
PUBLIC	?_Getfacet@locale@std@@QEBAPEBVfacet@12@_K@Z	; std::locale::_Getfacet
PUBLIC	??R?$default_delete@V_Facet_base@std@@@std@@QEBAXPEAV_Facet_base@1@@Z ; std::default_delete<std::_Facet_base>::operator()
PUBLIC	??1?$unique_ptr@V_Facet_base@std@@U?$default_delete@V_Facet_base@std@@@2@@std@@QEAA@XZ ; std::unique_ptr<std::_Facet_base,std::default_delete<std::_Facet_base> >::~unique_ptr<std::_Facet_base,std::default_delete<std::_Facet_base> >
PUBLIC	?release@?$unique_ptr@V_Facet_base@std@@U?$default_delete@V_Facet_base@std@@@2@@std@@QEAAPEAV_Facet_base@2@XZ ; std::unique_ptr<std::_Facet_base,std::default_delete<std::_Facet_base> >::release
PUBLIC	?_Get_first@?$_Compressed_pair@U?$default_delete@V_Facet_base@std@@@std@@PEAV_Facet_base@2@$00@std@@QEAAAEAU?$default_delete@V_Facet_base@std@@@2@XZ ; std::_Compressed_pair<std::default_delete<std::_Facet_base>,std::_Facet_base *,1>::_Get_first
PUBLIC	?__autoclassinit2@?$unique_ptr@V_Facet_base@std@@U?$default_delete@V_Facet_base@std@@@2@@std@@QEAAX_K@Z ; std::unique_ptr<std::_Facet_base,std::default_delete<std::_Facet_base> >::__autoclassinit2
PUBLIC	??$_Maklocstr@_W@std@@YAPEA_WPEBDPEA_WAEBU_Cvtvec@@@Z ; std::_Maklocstr<wchar_t>
PUBLIC	?_Maklocwcs@std@@YAPEA_WPEB_W@Z			; std::_Maklocwcs
PUBLIC	??$_Maklocstr@D@std@@YAPEADPEBDPEADAEBU_Cvtvec@@@Z ; std::_Maklocstr<char>
PUBLIC	??0?$allocator@I@std@@QEAA@XZ			; std::allocator<unsigned int>::allocator<unsigned int>
PUBLIC	?deallocate@?$allocator@I@std@@QEAAXQEAI_K@Z	; std::allocator<unsigned int>::deallocate
PUBLIC	??0?$vector@IV?$allocator@I@std@@@std@@QEAA@XZ	; std::vector<unsigned int,std::allocator<unsigned int> >::vector<unsigned int,std::allocator<unsigned int> >
PUBLIC	?_Move_assign@?$vector@IV?$allocator@I@std@@@std@@AEAAXAEAV12@U_Equal_allocators@2@@Z ; std::vector<unsigned int,std::allocator<unsigned int> >::_Move_assign
PUBLIC	??4?$vector@IV?$allocator@I@std@@@std@@QEAAAEAV01@$$QEAV01@@Z ; std::vector<unsigned int,std::allocator<unsigned int> >::operator=
PUBLIC	??1?$vector@IV?$allocator@I@std@@@std@@QEAA@XZ	; std::vector<unsigned int,std::allocator<unsigned int> >::~vector<unsigned int,std::allocator<unsigned int> >
PUBLIC	?begin@?$vector@IV?$allocator@I@std@@@std@@QEAA?AV?$_Vector_iterator@V?$_Vector_val@U?$_Simple_types@I@std@@@std@@@2@XZ ; std::vector<unsigned int,std::allocator<unsigned int> >::begin
PUBLIC	?end@?$vector@IV?$allocator@I@std@@@std@@QEAA?AV?$_Vector_iterator@V?$_Vector_val@U?$_Simple_types@I@std@@@std@@@2@XZ ; std::vector<unsigned int,std::allocator<unsigned int> >::end
PUBLIC	?_Destroy@?$vector@IV?$allocator@I@std@@@std@@AEAAXPEAI0@Z ; std::vector<unsigned int,std::allocator<unsigned int> >::_Destroy
PUBLIC	?_Tidy@?$vector@IV?$allocator@I@std@@@std@@AEAAXXZ ; std::vector<unsigned int,std::allocator<unsigned int> >::_Tidy
PUBLIC	?_Getal@?$vector@IV?$allocator@I@std@@@std@@AEAAAEAV?$allocator@I@2@XZ ; std::vector<unsigned int,std::allocator<unsigned int> >::_Getal
PUBLIC	??0?$_Vector_val@U?$_Simple_types@I@std@@@std@@QEAA@XZ ; std::_Vector_val<std::_Simple_types<unsigned int> >::_Vector_val<std::_Simple_types<unsigned int> >
PUBLIC	?_Take_contents@?$_Vector_val@U?$_Simple_types@I@std@@@std@@QEAAXAEAV12@@Z ; std::_Vector_val<std::_Simple_types<unsigned int> >::_Take_contents
PUBLIC	?_Get_first@?$_Compressed_pair@V?$allocator@I@std@@V?$_Vector_val@U?$_Simple_types@I@std@@@2@$00@std@@QEAAAEAV?$allocator@I@2@XZ ; std::_Compressed_pair<std::allocator<unsigned int>,std::_Vector_val<std::_Simple_types<unsigned int> >,1>::_Get_first
PUBLIC	?__autoclassinit2@?$vector@IV?$allocator@I@std@@@std@@QEAAX_K@Z ; std::vector<unsigned int,std::allocator<unsigned int> >::__autoclassinit2
PUBLIC	?deallocate@?$allocator@USDL_Point@@@std@@QEAAXQEAUSDL_Point@@_K@Z ; std::allocator<SDL_Point>::deallocate
PUBLIC	??1?$vector@USDL_Point@@V?$allocator@USDL_Point@@@std@@@std@@QEAA@XZ ; std::vector<SDL_Point,std::allocator<SDL_Point> >::~vector<SDL_Point,std::allocator<SDL_Point> >
PUBLIC	?_Destroy@?$vector@USDL_Point@@V?$allocator@USDL_Point@@@std@@@std@@AEAAXPEAUSDL_Point@@0@Z ; std::vector<SDL_Point,std::allocator<SDL_Point> >::_Destroy
PUBLIC	?_Tidy@?$vector@USDL_Point@@V?$allocator@USDL_Point@@@std@@@std@@AEAAXXZ ; std::vector<SDL_Point,std::allocator<SDL_Point> >::_Tidy
PUBLIC	?_Getal@?$vector@USDL_Point@@V?$allocator@USDL_Point@@@std@@@std@@AEAAAEAV?$allocator@USDL_Point@@@2@XZ ; std::vector<SDL_Point,std::allocator<SDL_Point> >::_Getal
PUBLIC	?_Get_first@?$_Compressed_pair@V?$allocator@USDL_Point@@@std@@V?$_Vector_val@U?$_Simple_types@USDL_Point@@@std@@@2@$00@std@@QEAAAEAV?$allocator@USDL_Point@@@2@XZ ; std::_Compressed_pair<std::allocator<SDL_Point>,std::_Vector_val<std::_Simple_types<SDL_Point> >,1>::_Get_first
PUBLIC	??1Snake@@QEAA@XZ				; Snake::~Snake
PUBLIC	?__autoclassinit2@PlayZone@@QEAAX_K@Z		; PlayZone::__autoclassinit2
PUBLIC	??0UserCredentials@Persistence@technical_services_layer@@QEAA@XZ ; technical_services_layer::Persistence::UserCredentials::UserCredentials
PUBLIC	??1UserCredentials@Persistence@technical_services_layer@@QEAA@XZ ; technical_services_layer::Persistence::UserCredentials::~UserCredentials
PUBLIC	??0UserCredentials@Persistence@technical_services_layer@@QEAA@AEBU012@@Z ; technical_services_layer::Persistence::UserCredentials::UserCredentials
PUBLIC	??4UserCredentials@Persistence@technical_services_layer@@QEAAAEAU012@$$QEAU012@@Z ; technical_services_layer::Persistence::UserCredentials::operator=
PUBLIC	??1Score@Persistence@technical_services_layer@@QEAA@XZ ; technical_services_layer::Persistence::Score::~Score
PUBLIC	??0Score@Persistence@technical_services_layer@@QEAA@$$QEAU012@@Z ; technical_services_layer::Persistence::Score::Score
PUBLIC	??4Score@Persistence@technical_services_layer@@QEAAAEAU012@$$QEAU012@@Z ; technical_services_layer::Persistence::Score::operator=
PUBLIC	??_GScore@Persistence@technical_services_layer@@QEAAPEAXI@Z ; technical_services_layer::Persistence::Score::`scalar deleting destructor'
PUBLIC	?__autoclassinit2@Player@player@domain_layer@@QEAAX_K@Z ; domain_layer::player::Player::__autoclassinit2
PUBLIC	??1Game@@QEAA@XZ				; Game::~Game
PUBLIC	?__autoclassinit2@Game@@QEAAX_K@Z		; Game::__autoclassinit2
PUBLIC	?get_standard_stream@_internal@termcolor@@YAPEAU_iobuf@@AEBV?$basic_ostream@DU?$char_traits@D@std@@@std@@@Z ; termcolor::_internal::get_standard_stream
PUBLIC	?is_colorized@_internal@termcolor@@YA_NAEAV?$basic_ostream@DU?$char_traits@D@std@@@std@@@Z ; termcolor::_internal::is_colorized
PUBLIC	?is_atty@_internal@termcolor@@YA_NAEBV?$basic_ostream@DU?$char_traits@D@std@@@std@@@Z ; termcolor::_internal::is_atty
PUBLIC	?win_change_attributes@_internal@termcolor@@YAXAEAV?$basic_ostream@DU?$char_traits@D@std@@@std@@HH@Z ; termcolor::_internal::win_change_attributes
PUBLIC	?reset@termcolor@@YAAEAV?$basic_ostream@DU?$char_traits@D@std@@@std@@AEAV23@@Z ; termcolor::reset
PUBLIC	?red@termcolor@@YAAEAV?$basic_ostream@DU?$char_traits@D@std@@@std@@AEAV23@@Z ; termcolor::red
PUBLIC	?green@termcolor@@YAAEAV?$basic_ostream@DU?$char_traits@D@std@@@std@@AEAV23@@Z ; termcolor::green
PUBLIC	??0ViewHandler@view@ui_layer@@QEAA@XZ		; ui_layer::view::ViewHandler::ViewHandler
PUBLIC	??1ViewHandler@view@ui_layer@@UEAA@XZ		; ui_layer::view::ViewHandler::~ViewHandler
PUBLIC	??0LoggerHandler@Logging@technical_services_layer@@QEAA@AEAV?$basic_ostream@DU?$char_traits@D@std@@@std@@@Z ; technical_services_layer::Logging::LoggerHandler::LoggerHandler
PUBLIC	??1LoggerHandler@Logging@technical_services_layer@@UEAA@XZ ; technical_services_layer::Logging::LoggerHandler::~LoggerHandler
PUBLIC	?now@system_clock@chrono@std@@SA?AV?$time_point@Usystem_clock@chrono@std@@V?$duration@_JU?$ratio@$00$0JIJGIA@@std@@@23@@23@XZ ; std::chrono::system_clock::now
PUBLIC	?to_time_t@system_clock@chrono@std@@SA_JAEBV?$time_point@Usystem_clock@chrono@std@@V?$duration@_JU?$ratio@$00$0JIJGIA@@std@@@23@@23@@Z ; std::chrono::system_clock::to_time_t
PUBLIC	?count@?$duration@_JU?$ratio@$00$0JIJGIA@@std@@@chrono@std@@QEBA_JXZ ; std::chrono::duration<__int64,std::ratio<1,10000000> >::count
PUBLIC	??0?$time_point@Usystem_clock@chrono@std@@V?$duration@_JU?$ratio@$00$0JIJGIA@@std@@@23@@chrono@std@@QEAA@AEBV?$duration@_JU?$ratio@$00$0JIJGIA@@std@@@12@@Z ; std::chrono::time_point<std::chrono::system_clock,std::chrono::duration<__int64,std::ratio<1,10000000> > >::time_point<std::chrono::system_clock,std::chrono::duration<__int64,std::ratio<1,10000000> > >
PUBLIC	?time_since_epoch@?$time_point@Usystem_clock@chrono@std@@V?$duration@_JU?$ratio@$00$0JIJGIA@@std@@@23@@chrono@std@@QEBA?AV?$duration@_JU?$ratio@$00$0JIJGIA@@std@@@23@XZ ; std::chrono::time_point<std::chrono::system_clock,std::chrono::duration<__int64,std::ratio<1,10000000> > >::time_since_epoch
PUBLIC	??$?0_JX@?$duration@_JU?$ratio@$00$0JIJGIA@@std@@@chrono@std@@QEAA@AEB_J@Z ; std::chrono::duration<__int64,std::ratio<1,10000000> >::duration<__int64,std::ratio<1,10000000> ><__int64,void>
PUBLIC	??$_Getvals@_W@?$time_get@DV?$istreambuf_iterator@DU?$char_traits@D@std@@@std@@@std@@IEAAX_WAEBV_Locinfo@1@@Z ; std::time_get<char,std::istreambuf_iterator<char,std::char_traits<char> > >::_Getvals<wchar_t>
PUBLIC	??$_Getvals@_W@?$time_get@_WV?$istreambuf_iterator@_WU?$char_traits@_W@std@@@std@@@std@@IEAAX_WAEBV_Locinfo@1@@Z ; std::time_get<wchar_t,std::istreambuf_iterator<wchar_t,std::char_traits<wchar_t> > >::_Getvals<wchar_t>
PUBLIC	??0SimpleLogger@Logging@technical_services_layer@@QEAA@AEAV?$basic_ostream@DU?$char_traits@D@std@@@std@@@Z ; technical_services_layer::Logging::SimpleLogger::SimpleLogger
PUBLIC	??1SimpleLogger@Logging@technical_services_layer@@UEAA@XZ ; technical_services_layer::Logging::SimpleLogger::~SimpleLogger
PUBLIC	??6SimpleLogger@Logging@technical_services_layer@@UEAAAEAV012@AEBV?$basic_string@DU?$char_traits@D@std@@V?$allocator@D@2@@std@@@Z ; technical_services_layer::Logging::SimpleLogger::operator<<
PUBLIC	??_GSimpleLogger@Logging@technical_services_layer@@UEAAPEAXI@Z ; technical_services_layer::Logging::SimpleLogger::`scalar deleting destructor'
PUBLIC	??$put_time@D@std@@YA?AU?$_Timeobj@DPEBUtm@@@0@PEBUtm@@PEBD@Z ; std::put_time<char>
PUBLIC	??0?$_Timeobj@DPEBUtm@@@std@@QEAA@PEBUtm@@PEBD@Z ; std::_Timeobj<char,tm const *>::_Timeobj<char,tm const *>
PUBLIC	??$?6U?$char_traits@D@std@@@std@@YAAEAV?$basic_ostream@DU?$char_traits@D@std@@@0@AEAV10@PEBD@Z ; std::operator<<<std::char_traits<char> >
PUBLIC	??$?6U?$char_traits@D@std@@@std@@YAAEAV?$basic_ostream@DU?$char_traits@D@std@@@0@AEAV10@D@Z ; std::operator<<<std::char_traits<char> >
PUBLIC	??$?6DU?$char_traits@D@std@@D@std@@YAAEAV?$basic_ostream@DU?$char_traits@D@std@@@0@AEAV10@AEBU?$_Timeobj@DPEBUtm@@@0@@Z ; std::operator<<<char,std::char_traits<char>,char>
PUBLIC	??$?6DU?$char_traits@D@std@@V?$allocator@D@1@@std@@YAAEAV?$basic_ostream@DU?$char_traits@D@std@@@0@AEAV10@AEBV?$basic_string@DU?$char_traits@D@std@@V?$allocator@D@2@@0@@Z ; std::operator<<<char,std::char_traits<char>,std::allocator<char> >
PUBLIC	??0CreditCardInfo@payment@technical_services_layer@@QEAA@XZ ; technical_services_layer::payment::CreditCardInfo::CreditCardInfo
PUBLIC	??1CreditCardInfo@payment@technical_services_layer@@QEAA@XZ ; technical_services_layer::payment::CreditCardInfo::~CreditCardInfo
PUBLIC	??0View@view@ui_layer@@QEAA@XZ			; ui_layer::view::View::View
PUBLIC	?launch@View@view@ui_layer@@UEAAXXZ		; ui_layer::view::View::launch
PUBLIC	??1View@view@ui_layer@@UEAA@XZ			; ui_layer::view::View::~View
PUBLIC	?messageBox@View@view@ui_layer@@AEAAHXZ		; ui_layer::view::View::messageBox
PUBLIC	?cleanup_SDL@View@view@ui_layer@@AEAAXXZ	; ui_layer::view::View::cleanup_SDL
PUBLIC	?showScore@View@view@ui_layer@@AEAAXI@Z		; ui_layer::view::View::showScore
PUBLIC	?clearScreen@View@view@ui_layer@@AEAAXXZ	; ui_layer::view::View::clearScreen
PUBLIC	?initialize_system@View@view@ui_layer@@AEAA_NXZ	; ui_layer::view::View::initialize_system
PUBLIC	?display_main_menu@View@view@ui_layer@@AEAA_NXZ	; ui_layer::view::View::display_main_menu
PUBLIC	?display_user_menu@View@view@ui_layer@@AEAA_NXZ	; ui_layer::view::View::display_user_menu
PUBLIC	?register_player@View@view@ui_layer@@AEAAXXZ	; ui_layer::view::View::register_player
PUBLIC	?login_user@View@view@ui_layer@@AEAA_NXZ	; ui_layer::view::View::login_user
PUBLIC	?play_game@View@view@ui_layer@@AEAAXXZ		; ui_layer::view::View::play_game
PUBLIC	?check_player_status@View@view@ui_layer@@AEAA_NXZ ; ui_layer::view::View::check_player_status
PUBLIC	?buy_premium@View@view@ui_layer@@AEAAXXZ	; ui_layer::view::View::buy_premium
PUBLIC	?view_previous_score@View@view@ui_layer@@AEAAXXZ ; ui_layer::view::View::view_previous_score
PUBLIC	?view_leaderboard@View@view@ui_layer@@AEAAXXZ	; ui_layer::view::View::view_leaderboard
PUBLIC	??_GView@view@ui_layer@@UEAAPEAXI@Z		; ui_layer::view::View::`scalar deleting destructor'
PUBLIC	?__autoclassinit2@Storage@Persistence@technical_services_layer@@QEAAX_K@Z ; technical_services_layer::Persistence::Storage::__autoclassinit2
PUBLIC	??$endl@DU?$char_traits@D@std@@@std@@YAAEAV?$basic_ostream@DU?$char_traits@D@std@@@0@AEAV10@@Z ; std::endl<char,std::char_traits<char> >
PUBLIC	??$getline@DU?$char_traits@D@std@@V?$allocator@D@2@@std@@YAAEAV?$basic_istream@DU?$char_traits@D@std@@@0@AEAV10@AEAV?$basic_string@DU?$char_traits@D@std@@V?$allocator@D@2@@0@@Z ; std::getline<char,std::char_traits<char>,std::allocator<char> >
PUBLIC	??$?9DU?$char_traits@D@std@@V?$allocator@D@1@@std@@YA_NAEBV?$basic_string@DU?$char_traits@D@std@@V?$allocator@D@2@@0@0@Z ; std::operator!=<char,std::char_traits<char>,std::allocator<char> >
PUBLIC	??0?$_Vector_const_iterator@V?$_Vector_val@U?$_Simple_types@I@std@@@std@@@std@@QEAA@PEAIPEBU_Container_base12@1@@Z ; std::_Vector_const_iterator<std::_Vector_val<std::_Simple_types<unsigned int> > >::_Vector_const_iterator<std::_Vector_val<std::_Simple_types<unsigned int> > >
PUBLIC	??D?$_Vector_const_iterator@V?$_Vector_val@U?$_Simple_types@I@std@@@std@@@std@@QEBAAEBIXZ ; std::_Vector_const_iterator<std::_Vector_val<std::_Simple_types<unsigned int> > >::operator*
PUBLIC	??E?$_Vector_const_iterator@V?$_Vector_val@U?$_Simple_types@I@std@@@std@@@std@@QEAAAEAV01@XZ ; std::_Vector_const_iterator<std::_Vector_val<std::_Simple_types<unsigned int> > >::operator++
PUBLIC	??8?$_Vector_const_iterator@V?$_Vector_val@U?$_Simple_types@I@std@@@std@@@std@@QEBA_NAEBV01@@Z ; std::_Vector_const_iterator<std::_Vector_val<std::_Simple_types<unsigned int> > >::operator==
PUBLIC	??9?$_Vector_const_iterator@V?$_Vector_val@U?$_Simple_types@I@std@@@std@@@std@@QEBA_NAEBV01@@Z ; std::_Vector_const_iterator<std::_Vector_val<std::_Simple_types<unsigned int> > >::operator!=
PUBLIC	?_Compat@?$_Vector_const_iterator@V?$_Vector_val@U?$_Simple_types@I@std@@@std@@@std@@QEBAXAEBV12@@Z ; std::_Vector_const_iterator<std::_Vector_val<std::_Simple_types<unsigned int> > >::_Compat
PUBLIC	??1?$_Vector_const_iterator@V?$_Vector_val@U?$_Simple_types@I@std@@@std@@@std@@QEAA@XZ ; std::_Vector_const_iterator<std::_Vector_val<std::_Simple_types<unsigned int> > >::~_Vector_const_iterator<std::_Vector_val<std::_Simple_types<unsigned int> > >
PUBLIC	??0?$_Vector_iterator@V?$_Vector_val@U?$_Simple_types@I@std@@@std@@@std@@QEAA@PEAIPEBU_Container_base12@1@@Z ; std::_Vector_iterator<std::_Vector_val<std::_Simple_types<unsigned int> > >::_Vector_iterator<std::_Vector_val<std::_Simple_types<unsigned int> > >
PUBLIC	??D?$_Vector_iterator@V?$_Vector_val@U?$_Simple_types@I@std@@@std@@@std@@QEBAAEAIXZ ; std::_Vector_iterator<std::_Vector_val<std::_Simple_types<unsigned int> > >::operator*
PUBLIC	??E?$_Vector_iterator@V?$_Vector_val@U?$_Simple_types@I@std@@@std@@@std@@QEAAAEAV01@XZ ; std::_Vector_iterator<std::_Vector_val<std::_Simple_types<unsigned int> > >::operator++
PUBLIC	??1?$_Vector_iterator@V?$_Vector_val@U?$_Simple_types@I@std@@@std@@@std@@QEAA@XZ ; std::_Vector_iterator<std::_Vector_val<std::_Simple_types<unsigned int> > >::~_Vector_iterator<std::_Vector_val<std::_Simple_types<unsigned int> > >
PUBLIC	?__autoclassinit2@?$_Vector_iterator@V?$_Vector_val@U?$_Simple_types@I@std@@@std@@@std@@QEAAX_K@Z ; std::_Vector_iterator<std::_Vector_val<std::_Simple_types<unsigned int> > >::__autoclassinit2
PUBLIC	?sortbyscore@view@ui_layer@@YA_NAEAUScore@Persistence@technical_services_layer@@0@Z ; ui_layer::view::sortbyscore
PUBLIC	??0?$allocator@UScore@Persistence@technical_services_layer@@@std@@QEAA@XZ ; std::allocator<technical_services_layer::Persistence::Score>::allocator<technical_services_layer::Persistence::Score>
PUBLIC	?deallocate@?$allocator@UScore@Persistence@technical_services_layer@@@std@@QEAAXQEAUScore@Persistence@technical_services_layer@@_K@Z ; std::allocator<technical_services_layer::Persistence::Score>::deallocate
PUBLIC	??0?$vector@UScore@Persistence@technical_services_layer@@V?$allocator@UScore@Persistence@technical_services_layer@@@std@@@std@@QEAA@XZ ; std::vector<technical_services_layer::Persistence::Score,std::allocator<technical_services_layer::Persistence::Score> >::vector<technical_services_layer::Persistence::Score,std::allocator<technical_services_layer::Persistence::Score> >
PUBLIC	?_Move_assign@?$vector@UScore@Persistence@technical_services_layer@@V?$allocator@UScore@Persistence@technical_services_layer@@@std@@@std@@AEAAXAEAV12@U_Equal_allocators@2@@Z ; std::vector<technical_services_layer::Persistence::Score,std::allocator<technical_services_layer::Persistence::Score> >::_Move_assign
PUBLIC	??4?$vector@UScore@Persistence@technical_services_layer@@V?$allocator@UScore@Persistence@technical_services_layer@@@std@@@std@@QEAAAEAV01@$$QEAV01@@Z ; std::vector<technical_services_layer::Persistence::Score,std::allocator<technical_services_layer::Persistence::Score> >::operator=
PUBLIC	??1?$vector@UScore@Persistence@technical_services_layer@@V?$allocator@UScore@Persistence@technical_services_layer@@@std@@@std@@QEAA@XZ ; std::vector<technical_services_layer::Persistence::Score,std::allocator<technical_services_layer::Persistence::Score> >::~vector<technical_services_layer::Persistence::Score,std::allocator<technical_services_layer::Persistence::Score> >
PUBLIC	?begin@?$vector@UScore@Persistence@technical_services_layer@@V?$allocator@UScore@Persistence@technical_services_layer@@@std@@@std@@QEAA?AV?$_Vector_iterator@V?$_Vector_val@U?$_Simple_types@UScore@Persistence@technical_services_layer@@@std@@@std@@@2@XZ ; std::vector<technical_services_layer::Persistence::Score,std::allocator<technical_services_layer::Persistence::Score> >::begin
PUBLIC	?end@?$vector@UScore@Persistence@technical_services_layer@@V?$allocator@UScore@Persistence@technical_services_layer@@@std@@@std@@QEAA?AV?$_Vector_iterator@V?$_Vector_val@U?$_Simple_types@UScore@Persistence@technical_services_layer@@@std@@@std@@@2@XZ ; std::vector<technical_services_layer::Persistence::Score,std::allocator<technical_services_layer::Persistence::Score> >::end
PUBLIC	?_Destroy@?$vector@UScore@Persistence@technical_services_layer@@V?$allocator@UScore@Persistence@technical_services_layer@@@std@@@std@@AEAAXPEAUScore@Persistence@technical_services_layer@@0@Z ; std::vector<technical_services_layer::Persistence::Score,std::allocator<technical_services_layer::Persistence::Score> >::_Destroy
PUBLIC	?_Tidy@?$vector@UScore@Persistence@technical_services_layer@@V?$allocator@UScore@Persistence@technical_services_layer@@@std@@@std@@AEAAXXZ ; std::vector<technical_services_layer::Persistence::Score,std::allocator<technical_services_layer::Persistence::Score> >::_Tidy
PUBLIC	?_Getal@?$vector@UScore@Persistence@technical_services_layer@@V?$allocator@UScore@Persistence@technical_services_layer@@@std@@@std@@AEAAAEAV?$allocator@UScore@Persistence@technical_services_layer@@@2@XZ ; std::vector<technical_services_layer::Persistence::Score,std::allocator<technical_services_layer::Persistence::Score> >::_Getal
PUBLIC	??0?$_Vector_val@U?$_Simple_types@UScore@Persistence@technical_services_layer@@@std@@@std@@QEAA@XZ ; std::_Vector_val<std::_Simple_types<technical_services_layer::Persistence::Score> >::_Vector_val<std::_Simple_types<technical_services_layer::Persistence::Score> >
PUBLIC	?_Take_contents@?$_Vector_val@U?$_Simple_types@UScore@Persistence@technical_services_layer@@@std@@@std@@QEAAXAEAV12@@Z ; std::_Vector_val<std::_Simple_types<technical_services_layer::Persistence::Score> >::_Take_contents
PUBLIC	?_Get_first@?$_Compressed_pair@V?$allocator@UScore@Persistence@technical_services_layer@@@std@@V?$_Vector_val@U?$_Simple_types@UScore@Persistence@technical_services_layer@@@std@@@2@$00@std@@QEAAAEAV?$allocator@UScore@Persistence@technical_services_layer@@@2@XZ ; std::_Compressed_pair<std::allocator<technical_services_layer::Persistence::Score>,std::_Vector_val<std::_Simple_types<technical_services_layer::Persistence::Score> >,1>::_Get_first
PUBLIC	?__autoclassinit2@?$vector@UScore@Persistence@technical_services_layer@@V?$allocator@UScore@Persistence@technical_services_layer@@@std@@@std@@QEAAX_K@Z ; std::vector<technical_services_layer::Persistence::Score,std::allocator<technical_services_layer::Persistence::Score> >::__autoclassinit2
PUBLIC	??0?$_Vector_const_iterator@V?$_Vector_val@U?$_Simple_types@UScore@Persistence@technical_services_layer@@@std@@@std@@@std@@QEAA@PEAUScore@Persistence@technical_services_layer@@PEBU_Container_base12@1@@Z ; std::_Vector_const_iterator<std::_Vector_val<std::_Simple_types<technical_services_layer::Persistence::Score> > >::_Vector_const_iterator<std::_Vector_val<std::_Simple_types<technical_services_layer::Persistence::Score> > >
PUBLIC	??D?$_Vector_const_iterator@V?$_Vector_val@U?$_Simple_types@UScore@Persistence@technical_services_layer@@@std@@@std@@@std@@QEBAAEBUScore@Persistence@technical_services_layer@@XZ ; std::_Vector_const_iterator<std::_Vector_val<std::_Simple_types<technical_services_layer::Persistence::Score> > >::operator*
PUBLIC	??E?$_Vector_const_iterator@V?$_Vector_val@U?$_Simple_types@UScore@Persistence@technical_services_layer@@@std@@@std@@@std@@QEAAAEAV01@XZ ; std::_Vector_const_iterator<std::_Vector_val<std::_Simple_types<technical_services_layer::Persistence::Score> > >::operator++
PUBLIC	??8?$_Vector_const_iterator@V?$_Vector_val@U?$_Simple_types@UScore@Persistence@technical_services_layer@@@std@@@std@@@std@@QEBA_NAEBV01@@Z ; std::_Vector_const_iterator<std::_Vector_val<std::_Simple_types<technical_services_layer::Persistence::Score> > >::operator==
PUBLIC	??9?$_Vector_const_iterator@V?$_Vector_val@U?$_Simple_types@UScore@Persistence@technical_services_layer@@@std@@@std@@@std@@QEBA_NAEBV01@@Z ; std::_Vector_const_iterator<std::_Vector_val<std::_Simple_types<technical_services_layer::Persistence::Score> > >::operator!=
PUBLIC	?_Compat@?$_Vector_const_iterator@V?$_Vector_val@U?$_Simple_types@UScore@Persistence@technical_services_layer@@@std@@@std@@@std@@QEBAXAEBV12@@Z ; std::_Vector_const_iterator<std::_Vector_val<std::_Simple_types<technical_services_layer::Persistence::Score> > >::_Compat
PUBLIC	?_Verify_range@std@@YAXAEBV?$_Vector_const_iterator@V?$_Vector_val@U?$_Simple_types@UScore@Persistence@technical_services_layer@@@std@@@std@@@1@0@Z ; std::_Verify_range
PUBLIC	??1?$_Vector_const_iterator@V?$_Vector_val@U?$_Simple_types@UScore@Persistence@technical_services_layer@@@std@@@std@@@std@@QEAA@XZ ; std::_Vector_const_iterator<std::_Vector_val<std::_Simple_types<technical_services_layer::Persistence::Score> > >::~_Vector_const_iterator<std::_Vector_val<std::_Simple_types<technical_services_layer::Persistence::Score> > >
PUBLIC	??0?$_Vector_iterator@V?$_Vector_val@U?$_Simple_types@UScore@Persistence@technical_services_layer@@@std@@@std@@@std@@QEAA@PEAUScore@Persistence@technical_services_layer@@PEBU_Container_base12@1@@Z ; std::_Vector_iterator<std::_Vector_val<std::_Simple_types<technical_services_layer::Persistence::Score> > >::_Vector_iterator<std::_Vector_val<std::_Simple_types<technical_services_layer::Persistence::Score> > >
PUBLIC	??D?$_Vector_iterator@V?$_Vector_val@U?$_Simple_types@UScore@Persistence@technical_services_layer@@@std@@@std@@@std@@QEBAAEAUScore@Persistence@technical_services_layer@@XZ ; std::_Vector_iterator<std::_Vector_val<std::_Simple_types<technical_services_layer::Persistence::Score> > >::operator*
PUBLIC	??E?$_Vector_iterator@V?$_Vector_val@U?$_Simple_types@UScore@Persistence@technical_services_layer@@@std@@@std@@@std@@QEAAAEAV01@XZ ; std::_Vector_iterator<std::_Vector_val<std::_Simple_types<technical_services_layer::Persistence::Score> > >::operator++
PUBLIC	?_Unwrapped@?$_Vector_iterator@V?$_Vector_val@U?$_Simple_types@UScore@Persistence@technical_services_layer@@@std@@@std@@@std@@QEBAPEAUScore@Persistence@technical_services_layer@@XZ ; std::_Vector_iterator<std::_Vector_val<std::_Simple_types<technical_services_layer::Persistence::Score> > >::_Unwrapped
PUBLIC	??1?$_Vector_iterator@V?$_Vector_val@U?$_Simple_types@UScore@Persistence@technical_services_layer@@@std@@@std@@@std@@QEAA@XZ ; std::_Vector_iterator<std::_Vector_val<std::_Simple_types<technical_services_layer::Persistence::Score> > >::~_Vector_iterator<std::_Vector_val<std::_Simple_types<technical_services_layer::Persistence::Score> > >
PUBLIC	?__autoclassinit2@?$_Vector_iterator@V?$_Vector_val@U?$_Simple_types@UScore@Persistence@technical_services_layer@@@std@@@std@@@std@@QEAAX_K@Z ; std::_Vector_iterator<std::_Vector_val<std::_Simple_types<technical_services_layer::Persistence::Score> > >::__autoclassinit2
PUBLIC	??$sort@V?$_Vector_iterator@V?$_Vector_val@U?$_Simple_types@UScore@Persistence@technical_services_layer@@@std@@@std@@@std@@P6A_NAEAUScore@Persistence@technical_services_layer@@0@Z@std@@YAXV?$_Vector_iterator@V?$_Vector_val@U?$_Simple_types@UScore@Persistence@technical_services_layer@@@std@@@std@@@0@0P6A_NAEAUScore@Persistence@technical_services_layer@@1@Z@Z ; std::sort<std::_Vector_iterator<std::_Vector_val<std::_Simple_types<technical_services_layer::Persistence::Score> > >,bool (__cdecl*)(technical_services_layer::Persistence::Score &,technical_services_layer::Persistence::Score &)>
PUBLIC	??$sprintf_s@$0BE@@@YAHAEAY0BE@DPEBDZZ		; sprintf_s<20>
PUBLIC	??$addressof@V?$_Vector_val@U?$_Simple_types@UScore@Persistence@technical_services_layer@@@std@@@std@@@std@@YAPEAV?$_Vector_val@U?$_Simple_types@UScore@Persistence@technical_services_layer@@@std@@@0@AEAV10@@Z ; std::addressof<std::_Vector_val<std::_Simple_types<technical_services_layer::Persistence::Score> > >
PUBLIC	?allocate@?$allocator@U_Container_proxy@std@@@std@@QEAAPEAU_Container_proxy@2@_K@Z ; std::allocator<std::_Container_proxy>::allocate
PUBLIC	??$?0UScore@Persistence@technical_services_layer@@@?$allocator@U_Container_proxy@std@@@std@@QEAA@AEBV?$allocator@UScore@Persistence@technical_services_layer@@@1@@Z ; std::allocator<std::_Container_proxy>::allocator<std::_Container_proxy><technical_services_layer::Persistence::Score>
PUBLIC	??$exchange@PEAU_Container_proxy@std@@$$T@std@@YAPEAU_Container_proxy@0@AEAPEAU10@$$QEA$$T@Z ; std::exchange<std::_Container_proxy *,std::nullptr_t>
PUBLIC	??$_Delete_plain_internal@V?$allocator@U_Container_proxy@std@@@std@@@std@@YAXAEAV?$allocator@U_Container_proxy@std@@@0@QEAU_Container_proxy@0@@Z ; std::_Delete_plain_internal<std::allocator<std::_Container_proxy> >
PUBLIC	??$addressof@V?$vector@UScore@Persistence@technical_services_layer@@V?$allocator@UScore@Persistence@technical_services_layer@@@std@@@std@@@std@@YAPEAV?$vector@UScore@Persistence@technical_services_layer@@V?$allocator@UScore@Persistence@technical_services_layer@@@std@@@0@AEAV10@@Z ; std::addressof<std::vector<technical_services_layer::Persistence::Score,std::allocator<technical_services_layer::Persistence::Score> > >
PUBLIC	??$?0$$V@?$_Compressed_pair@V?$allocator@UScore@Persistence@technical_services_layer@@@std@@V?$_Vector_val@U?$_Simple_types@UScore@Persistence@technical_services_layer@@@std@@@2@$00@std@@QEAA@U_Zero_then_variadic_args_t@1@@Z ; std::_Compressed_pair<std::allocator<technical_services_layer::Persistence::Score>,std::_Vector_val<std::_Simple_types<technical_services_layer::Persistence::Score> >,1>::_Compressed_pair<std::allocator<technical_services_layer::Persistence::Score>,std::_Vector_val<std::_Simple_types<technical_services_layer::Persistence::Score> >,1><>
PUBLIC	??$_Alloc_proxy@V?$allocator@U_Container_proxy@std@@@std@@@_Container_base12@std@@QEAAX$$QEAV?$allocator@U_Container_proxy@std@@@1@@Z ; std::_Container_base12::_Alloc_proxy<std::allocator<std::_Container_proxy> >
PUBLIC	??0?$ostreambuf_iterator@DU?$char_traits@D@std@@@std@@QEAA@PEAV?$basic_streambuf@DU?$char_traits@D@std@@@1@@Z ; std::ostreambuf_iterator<char,std::char_traits<char> >::ostreambuf_iterator<char,std::char_traits<char> >
PUBLIC	?failed@?$ostreambuf_iterator@DU?$char_traits@D@std@@@std@@QEBA_NXZ ; std::ostreambuf_iterator<char,std::char_traits<char> >::failed
PUBLIC	??$?0USDL_Point@@@?$allocator@U_Container_proxy@std@@@std@@QEAA@AEBV?$allocator@USDL_Point@@@1@@Z ; std::allocator<std::_Container_proxy>::allocator<std::_Container_proxy><SDL_Point>
PUBLIC	??$addressof@V?$_Vector_val@U?$_Simple_types@I@std@@@std@@@std@@YAPEAV?$_Vector_val@U?$_Simple_types@I@std@@@0@AEAV10@@Z ; std::addressof<std::_Vector_val<std::_Simple_types<unsigned int> > >
PUBLIC	??$?0I@?$allocator@U_Container_proxy@std@@@std@@QEAA@AEBV?$allocator@I@1@@Z ; std::allocator<std::_Container_proxy>::allocator<std::_Container_proxy><unsigned int>
PUBLIC	??$addressof@V?$vector@IV?$allocator@I@std@@@std@@@std@@YAPEAV?$vector@IV?$allocator@I@std@@@0@AEAV10@@Z ; std::addressof<std::vector<unsigned int,std::allocator<unsigned int> > >
PUBLIC	??$?0$$V@?$_Compressed_pair@V?$allocator@I@std@@V?$_Vector_val@U?$_Simple_types@I@std@@@2@$00@std@@QEAA@U_Zero_then_variadic_args_t@1@@Z ; std::_Compressed_pair<std::allocator<unsigned int>,std::_Vector_val<std::_Simple_types<unsigned int> >,1>::_Compressed_pair<std::allocator<unsigned int>,std::_Vector_val<std::_Simple_types<unsigned int> >,1><>
PUBLIC	??0_Sentry_base@?$basic_istream@DU?$char_traits@D@std@@@std@@QEAA@AEAV12@@Z ; std::basic_istream<char,std::char_traits<char> >::_Sentry_base::_Sentry_base
PUBLIC	??1_Sentry_base@?$basic_istream@DU?$char_traits@D@std@@@std@@QEAA@XZ ; std::basic_istream<char,std::char_traits<char> >::_Sentry_base::~_Sentry_base
PUBLIC	??0sentry@?$basic_istream@DU?$char_traits@D@std@@@std@@QEAA@AEAV12@_N@Z ; std::basic_istream<char,std::char_traits<char> >::sentry::sentry
PUBLIC	??Bsentry@?$basic_istream@DU?$char_traits@D@std@@@std@@QEBA_NXZ ; std::basic_istream<char,std::char_traits<char> >::sentry::operator bool
PUBLIC	??1sentry@?$basic_istream@DU?$char_traits@D@std@@@std@@QEAA@XZ ; std::basic_istream<char,std::char_traits<char> >::sentry::~sentry
PUBLIC	??0_Sentry_base@?$basic_ostream@DU?$char_traits@D@std@@@std@@QEAA@AEAV12@@Z ; std::basic_ostream<char,std::char_traits<char> >::_Sentry_base::_Sentry_base
PUBLIC	??1_Sentry_base@?$basic_ostream@DU?$char_traits@D@std@@@std@@QEAA@XZ ; std::basic_ostream<char,std::char_traits<char> >::_Sentry_base::~_Sentry_base
PUBLIC	??0sentry@?$basic_ostream@DU?$char_traits@D@std@@@std@@QEAA@AEAV12@@Z ; std::basic_ostream<char,std::char_traits<char> >::sentry::sentry
PUBLIC	??1sentry@?$basic_ostream@DU?$char_traits@D@std@@@std@@QEAA@XZ ; std::basic_ostream<char,std::char_traits<char> >::sentry::~sentry
PUBLIC	??Bsentry@?$basic_ostream@DU?$char_traits@D@std@@@std@@QEBA_NXZ ; std::basic_ostream<char,std::char_traits<char> >::sentry::operator bool
PUBLIC	??0?$_Container_proxy_ptr12@V?$allocator@U_Container_proxy@std@@@std@@@std@@QEAA@AEAV?$allocator@U_Container_proxy@std@@@1@AEAU_Container_base12@1@@Z ; std::_Container_proxy_ptr12<std::allocator<std::_Container_proxy> >::_Container_proxy_ptr12<std::allocator<std::_Container_proxy> >
PUBLIC	??1?$_Container_proxy_ptr12@V?$allocator@U_Container_proxy@std@@@std@@@std@@QEAA@XZ ; std::_Container_proxy_ptr12<std::allocator<std::_Container_proxy> >::~_Container_proxy_ptr12<std::allocator<std::_Container_proxy> >
PUBLIC	??$_Unfancy@D@std@@YAPEADPEAD@Z			; std::_Unfancy<char>
PUBLIC	??$addressof@$$CBV?$basic_string@DU?$char_traits@D@std@@V?$allocator@D@2@@std@@@std@@YAPEBV?$basic_string@DU?$char_traits@D@std@@V?$allocator@D@2@@0@AEBV10@@Z ; std::addressof<std::basic_string<char,std::char_traits<char>,std::allocator<char> > const >
PUBLIC	??$?0D@?$allocator@U_Container_proxy@std@@@std@@QEAA@AEBV?$allocator@D@1@@Z ; std::allocator<std::_Container_proxy>::allocator<std::_Container_proxy><char>
PUBLIC	??$addressof@V?$basic_string@DU?$char_traits@D@std@@V?$allocator@D@2@@std@@@std@@YAPEAV?$basic_string@DU?$char_traits@D@std@@V?$allocator@D@2@@0@AEAV10@@Z ; std::addressof<std::basic_string<char,std::char_traits<char>,std::allocator<char> > >
PUBLIC	??$move@AEAV?$allocator@D@std@@@std@@YA$$QEAV?$allocator@D@0@AEAV10@@Z ; std::move<std::allocator<char> &>
PUBLIC	??$?0V?$allocator@D@std@@$$V@?$_Compressed_pair@V?$allocator@D@std@@V?$_String_val@U?$_Simple_types@D@std@@@2@$00@std@@QEAA@U_One_then_variadic_args_t@1@$$QEAV?$allocator@D@1@@Z ; std::_Compressed_pair<std::allocator<char>,std::_String_val<std::_Simple_types<char> >,1>::_Compressed_pair<std::allocator<char>,std::_String_val<std::_Simple_types<char> >,1><std::allocator<char> >
PUBLIC	??$?0$$V@?$_Compressed_pair@V?$allocator@D@std@@V?$_String_val@U?$_Simple_types@D@std@@@2@$00@std@@QEAA@U_Zero_then_variadic_args_t@1@@Z ; std::_Compressed_pair<std::allocator<char>,std::_String_val<std::_Simple_types<char> >,1>::_Compressed_pair<std::allocator<char>,std::_String_val<std::_Simple_types<char> >,1><>
PUBLIC	??$_Unfancy@U_Container_proxy@std@@@std@@YAPEAU_Container_proxy@0@PEAU10@@Z ; std::_Unfancy<std::_Container_proxy>
PUBLIC	??$_Pocma@V?$allocator@UScore@Persistence@technical_services_layer@@@std@@@std@@YAXAEAV?$allocator@UScore@Persistence@technical_services_layer@@@0@0@Z ; std::_Pocma<std::allocator<technical_services_layer::Persistence::Score> >
PUBLIC	??$_Pocma@V?$allocator@I@std@@@std@@YAXAEAV?$allocator@I@0@0@Z ; std::_Pocma<std::allocator<unsigned int> >
PUBLIC	??$_Destroy_in_place@PEAD@std@@YAXAEAPEAD@Z	; std::_Destroy_in_place<char *>
PUBLIC	??$_Max_value@_K@std@@YAAEB_KAEB_K0@Z		; std::_Max_value<unsigned __int64>
PUBLIC	??R<lambda_319d5e083f45f90dcdce5dce53cbb275>@@QEBA@QEADQEBD_KD@Z ; <lambda_319d5e083f45f90dcdce5dce53cbb275>::operator()
PUBLIC	??$_Reallocate_grow_by@V<lambda_319d5e083f45f90dcdce5dce53cbb275>@@D@?$basic_string@DU?$char_traits@D@std@@V?$allocator@D@2@@std@@AEAAAEAV01@_KV<lambda_319d5e083f45f90dcdce5dce53cbb275>@@D@Z ; std::basic_string<char,std::char_traits<char>,std::allocator<char> >::_Reallocate_grow_by<<lambda_319d5e083f45f90dcdce5dce53cbb275>,char>
PUBLIC	??R<lambda_66f57f934f28d61049862f64df852ff0>@@QEBA@QEAD_KQEBD@Z ; <lambda_66f57f934f28d61049862f64df852ff0>::operator()
PUBLIC	??$_Reallocate_for@V<lambda_66f57f934f28d61049862f64df852ff0>@@PEBD@?$basic_string@DU?$char_traits@D@std@@V?$allocator@D@2@@std@@AEAAAEAV01@_KV<lambda_66f57f934f28d61049862f64df852ff0>@@PEBD@Z ; std::basic_string<char,std::char_traits<char>,std::allocator<char> >::_Reallocate_for<<lambda_66f57f934f28d61049862f64df852ff0>,char const *>
PUBLIC	??$_Pocca@V?$allocator@D@std@@@std@@YAXAEAV?$allocator@D@0@AEBV10@@Z ; std::_Pocca<std::allocator<char> >
PUBLIC	??$_Construct_in_place@PEADAEBQEAD@std@@YAXAEAPEADAEBQEAD@Z ; std::_Construct_in_place<char *,char * const &>
PUBLIC	??$_Pocma@V?$allocator@D@std@@@std@@YAXAEAV?$allocator@D@0@0@Z ; std::_Pocma<std::allocator<char> >
PUBLIC	??$_Get_size_of_n@$00@std@@YA_K_K@Z		; std::_Get_size_of_n<1>
PUBLIC	??$_Allocate@$0BA@U_Default_allocate_traits@std@@$0A@@std@@YAPEAX_K@Z ; std::_Allocate<16,std::_Default_allocate_traits,0>
PUBLIC	??$_Deallocate@$0BA@$0A@@std@@YAXPEAX_K@Z	; std::_Deallocate<16,0>
PUBLIC	??$_Get_size_of_n@$0BA@@std@@YA_K_K@Z		; std::_Get_size_of_n<16>
PUBLIC	??$_Destroy_range@V?$allocator@UScore@Persistence@technical_services_layer@@@std@@@std@@YAXPEAUScore@Persistence@technical_services_layer@@QEAU123@AEAV?$allocator@UScore@Persistence@technical_services_layer@@@0@@Z ; std::_Destroy_range<std::allocator<technical_services_layer::Persistence::Score> >
PUBLIC	??$_Destroy_range@V?$allocator@USDL_Point@@@std@@@std@@YAXPEAUSDL_Point@@QEAU1@AEAV?$allocator@USDL_Point@@@0@@Z ; std::_Destroy_range<std::allocator<SDL_Point> >
PUBLIC	??$_Destroy_range@V?$allocator@I@std@@@std@@YAXPEAIQEAIAEAV?$allocator@I@0@@Z ; std::_Destroy_range<std::allocator<unsigned int> >
PUBLIC	??$addressof@V?$_String_val@U?$_Simple_types@D@std@@@std@@@std@@YAPEAV?$_String_val@U?$_Simple_types@D@std@@@0@AEAV10@@Z ; std::addressof<std::_String_val<std::_Simple_types<char> > >
PUBLIC	??$addressof@$$CBV?$_String_val@U?$_Simple_types@D@std@@@std@@@std@@YAPEBV?$_String_val@U?$_Simple_types@D@std@@@0@AEBV10@@Z ; std::addressof<std::_String_val<std::_Simple_types<char> > const >
PUBLIC	??$addressof@U_Container_proxy@std@@@std@@YAPEAU_Container_proxy@0@AEAU10@@Z ; std::addressof<std::_Container_proxy>
PUBLIC	??$forward@PEAU_Container_base12@std@@@std@@YA$$QEAPEAU_Container_base12@0@AEAPEAU10@@Z ; std::forward<std::_Container_base12 *>
PUBLIC	??$?0U?$default_delete@V_Facet_base@std@@@std@@$0A@@?$unique_ptr@V_Facet_base@std@@U?$default_delete@V_Facet_base@std@@@2@@std@@QEAA@PEAV_Facet_base@1@@Z ; std::unique_ptr<std::_Facet_base,std::default_delete<std::_Facet_base> >::unique_ptr<std::_Facet_base,std::default_delete<std::_Facet_base> ><std::default_delete<std::_Facet_base>,0>
PUBLIC	??$use_facet@V?$time_put@DV?$ostreambuf_iterator@DU?$char_traits@D@std@@@std@@@std@@@std@@YAAEBV?$time_put@DV?$ostreambuf_iterator@DU?$char_traits@D@std@@@std@@@0@AEBVlocale@0@@Z ; std::use_facet<std::time_put<char,std::ostreambuf_iterator<char,std::char_traits<char> > > >
PUBLIC	??$_Insert_string@DU?$char_traits@D@std@@_K@std@@YAAEAV?$basic_ostream@DU?$char_traits@D@std@@@0@AEAV10@QEBD_K@Z ; std::_Insert_string<char,std::char_traits<char>,unsigned __int64>
PUBLIC	??$move@AEAV?$basic_istream@DU?$char_traits@D@std@@@std@@@std@@YA$$QEAV?$basic_istream@DU?$char_traits@D@std@@@0@AEAV10@@Z ; std::move<std::basic_istream<char,std::char_traits<char> > &>
PUBLIC	??$getline@DU?$char_traits@D@std@@V?$allocator@D@2@@std@@YAAEAV?$basic_istream@DU?$char_traits@D@std@@@0@$$QEAV10@AEAV?$basic_string@DU?$char_traits@D@std@@V?$allocator@D@2@@0@D@Z ; std::getline<char,std::char_traits<char>,std::allocator<char> >
PUBLIC	??$?8DU?$char_traits@D@std@@V?$allocator@D@1@@std@@YA_NAEBV?$basic_string@DU?$char_traits@D@std@@V?$allocator@D@2@@0@0@Z ; std::operator==<char,std::char_traits<char>,std::allocator<char> >
PUBLIC	??$_Adl_verify_range@V?$_Vector_iterator@V?$_Vector_val@U?$_Simple_types@UScore@Persistence@technical_services_layer@@@std@@@std@@@std@@V12@@std@@YAXAEBV?$_Vector_iterator@V?$_Vector_val@U?$_Simple_types@UScore@Persistence@technical_services_layer@@@std@@@std@@@0@0@Z ; std::_Adl_verify_range<std::_Vector_iterator<std::_Vector_val<std::_Simple_types<technical_services_layer::Persistence::Score> > >,std::_Vector_iterator<std::_Vector_val<std::_Simple_types<technical_services_layer::Persistence::Score> > > >
PUBLIC	??$_Get_unwrapped@V?$_Vector_iterator@V?$_Vector_val@U?$_Simple_types@UScore@Persistence@technical_services_layer@@@std@@@std@@@std@@$0A@@std@@YA@AEBV?$_Vector_iterator@V?$_Vector_val@U?$_Simple_types@UScore@Persistence@technical_services_layer@@@std@@@std@@@0@@Z ; std::_Get_unwrapped<std::_Vector_iterator<std::_Vector_val<std::_Simple_types<technical_services_layer::Persistence::Score> > >,0>
PUBLIC	??$_Pass_fn@P6A_NAEAUScore@Persistence@technical_services_layer@@0@Z$0A@@std@@YAP6A_NAEAUScore@Persistence@technical_services_layer@@0@ZP6A_N00@Z@Z ; std::_Pass_fn<bool (__cdecl*)(technical_services_layer::Persistence::Score &,technical_services_layer::Persistence::Score &),0>
PUBLIC	??$_Sort_unchecked@PEAUScore@Persistence@technical_services_layer@@P6A_NAEAU123@0@Z@std@@YAXPEAUScore@Persistence@technical_services_layer@@0_JP6A_NAEAU123@2@Z@Z ; std::_Sort_unchecked<technical_services_layer::Persistence::Score *,bool (__cdecl*)(technical_services_layer::Persistence::Score &,technical_services_layer::Persistence::Score &)>
PUBLIC	??$_Deallocate_plain@V?$allocator@U_Container_proxy@std@@@std@@@std@@YAXAEAV?$allocator@U_Container_proxy@std@@@0@QEAU_Container_proxy@0@@Z ; std::_Deallocate_plain<std::allocator<std::_Container_proxy> >
PUBLIC	??$forward@V?$allocator@D@std@@@std@@YA$$QEAV?$allocator@D@0@AEAV10@@Z ; std::forward<std::allocator<char> >
PUBLIC	??$move@AEAV?$allocator@UScore@Persistence@technical_services_layer@@@std@@@std@@YA$$QEAV?$allocator@UScore@Persistence@technical_services_layer@@@0@AEAV10@@Z ; std::move<std::allocator<technical_services_layer::Persistence::Score> &>
PUBLIC	??$move@AEAV?$allocator@I@std@@@std@@YA$$QEAV?$allocator@I@0@AEAV10@@Z ; std::move<std::allocator<unsigned int> &>
PUBLIC	??$addressof@PEAD@std@@YAPEAPEADAEAPEAD@Z	; std::addressof<char *>
PUBLIC	??$forward@AEBQEAD@std@@YAAEBQEADAEBQEAD@Z	; std::forward<char * const &>
PUBLIC	??$_Allocate_manually_vector_aligned@U_Default_allocate_traits@std@@@std@@YAPEAX_K@Z ; std::_Allocate_manually_vector_aligned<std::_Default_allocate_traits>
PUBLIC	??$_Unfancy@UScore@Persistence@technical_services_layer@@@std@@YAPEAUScore@Persistence@technical_services_layer@@PEAU123@@Z ; std::_Unfancy<technical_services_layer::Persistence::Score>
PUBLIC	??$destroy@UScore@Persistence@technical_services_layer@@@?$_Default_allocator_traits@V?$allocator@UScore@Persistence@technical_services_layer@@@std@@@std@@SAXAEAV?$allocator@UScore@Persistence@technical_services_layer@@@1@QEAUScore@Persistence@technical_services_layer@@@Z ; std::_Default_allocator_traits<std::allocator<technical_services_layer::Persistence::Score> >::destroy<technical_services_layer::Persistence::Score>
PUBLIC	??$exchange@PEAV_Facet_base@std@@PEAV12@@std@@YAPEAV_Facet_base@0@AEAPEAV10@$$QEAPEAV10@@Z ; std::exchange<std::_Facet_base *,std::_Facet_base *>
PUBLIC	??$?0AEAPEAV_Facet_base@std@@@?$_Compressed_pair@U?$default_delete@V_Facet_base@std@@@std@@PEAV_Facet_base@2@$00@std@@QEAA@U_Zero_then_variadic_args_t@1@AEAPEAV_Facet_base@1@@Z ; std::_Compressed_pair<std::default_delete<std::_Facet_base>,std::_Facet_base *,1>::_Compressed_pair<std::default_delete<std::_Facet_base>,std::_Facet_base *,1><std::_Facet_base * &>
PUBLIC	??$_Partition_by_median_guess_unchecked@PEAUScore@Persistence@technical_services_layer@@P6A_NAEAU123@0@Z@std@@YA?AU?$pair@PEAUScore@Persistence@technical_services_layer@@PEAU123@@0@PEAUScore@Persistence@technical_services_layer@@0P6A_NAEAU234@1@Z@Z ; std::_Partition_by_median_guess_unchecked<technical_services_layer::Persistence::Score *,bool (__cdecl*)(technical_services_layer::Persistence::Score &,technical_services_layer::Persistence::Score &)>
PUBLIC	??$_Make_heap_unchecked@PEAUScore@Persistence@technical_services_layer@@P6A_NAEAU123@0@Z@std@@YAXPEAUScore@Persistence@technical_services_layer@@0P6A_NAEAU123@1@Z@Z ; std::_Make_heap_unchecked<technical_services_layer::Persistence::Score *,bool (__cdecl*)(technical_services_layer::Persistence::Score &,technical_services_layer::Persistence::Score &)>
PUBLIC	??$_Sort_heap_unchecked@PEAUScore@Persistence@technical_services_layer@@P6A_NAEAU123@0@Z@std@@YAXPEAUScore@Persistence@technical_services_layer@@0P6A_NAEAU123@1@Z@Z ; std::_Sort_heap_unchecked<technical_services_layer::Persistence::Score *,bool (__cdecl*)(technical_services_layer::Persistence::Score &,technical_services_layer::Persistence::Score &)>
PUBLIC	??$_Insertion_sort_unchecked@PEAUScore@Persistence@technical_services_layer@@P6A_NAEAU123@0@Z@std@@YAPEAUScore@Persistence@technical_services_layer@@PEAU123@QEAU123@P6A_NAEAU123@2@Z@Z ; std::_Insertion_sort_unchecked<technical_services_layer::Persistence::Score *,bool (__cdecl*)(technical_services_layer::Persistence::Score &,technical_services_layer::Persistence::Score &)>
PUBLIC	?deallocate@?$_Default_allocator_traits@V?$allocator@U_Container_proxy@std@@@std@@@std@@SAXAEAV?$allocator@U_Container_proxy@std@@@2@QEAU_Container_proxy@2@_K@Z ; std::_Default_allocator_traits<std::allocator<std::_Container_proxy> >::deallocate
PUBLIC	??$_Traits_equal@U?$char_traits@D@std@@@std@@YA_NQEBD_K01@Z ; std::_Traits_equal<std::char_traits<char> >
PUBLIC	??$forward@AEAPEAV_Facet_base@std@@@std@@YAAEAPEAV_Facet_base@0@AEAPEAV10@@Z ; std::forward<std::_Facet_base * &>
PUBLIC	??$_Guess_median_unchecked@PEAUScore@Persistence@technical_services_layer@@P6A_NAEAU123@0@Z@std@@YAXPEAUScore@Persistence@technical_services_layer@@00P6A_NAEAU123@1@Z@Z ; std::_Guess_median_unchecked<technical_services_layer::Persistence::Score *,bool (__cdecl*)(technical_services_layer::Persistence::Score &,technical_services_layer::Persistence::Score &)>
PUBLIC	??$_Debug_lt_pred@AEAP6A_NAEAUScore@Persistence@technical_services_layer@@0@ZAEAU123@AEAU123@$0A@@std@@YA_NAEAP6A_NAEAUScore@Persistence@technical_services_layer@@0@Z00@Z ; std::_Debug_lt_pred<bool (__cdecl*&)(technical_services_layer::Persistence::Score &,technical_services_layer::Persistence::Score &),technical_services_layer::Persistence::Score &,technical_services_layer::Persistence::Score &,0>
PUBLIC	??$iter_swap@PEAUScore@Persistence@technical_services_layer@@PEAU123@@std@@YAXPEAUScore@Persistence@technical_services_layer@@0@Z ; std::iter_swap<technical_services_layer::Persistence::Score *,technical_services_layer::Persistence::Score *>
PUBLIC	??$?0AEAPEAUScore@Persistence@technical_services_layer@@AEAPEAU012@$0A@@?$pair@PEAUScore@Persistence@technical_services_layer@@PEAU123@@std@@QEAA@AEAPEAUScore@Persistence@technical_services_layer@@0@Z ; std::pair<technical_services_layer::Persistence::Score *,technical_services_layer::Persistence::Score *>::pair<technical_services_layer::Persistence::Score *,technical_services_layer::Persistence::Score *><technical_services_layer::Persistence::Score * &,technical_services_layer::Persistence::Score * &,0>
PUBLIC	??$move@AEAUScore@Persistence@technical_services_layer@@@std@@YA$$QEAUScore@Persistence@technical_services_layer@@AEAU123@@Z ; std::move<technical_services_layer::Persistence::Score &>
PUBLIC	??$_Pop_heap_hole_by_index@PEAUScore@Persistence@technical_services_layer@@U123@P6A_NAEAU123@0@Z@std@@YAXPEAUScore@Persistence@technical_services_layer@@_J1$$QEAU123@P6A_NAEAU123@3@Z@Z ; std::_Pop_heap_hole_by_index<technical_services_layer::Persistence::Score *,technical_services_layer::Persistence::Score,bool (__cdecl*)(technical_services_layer::Persistence::Score &,technical_services_layer::Persistence::Score &)>
PUBLIC	??$_Pop_heap_unchecked@PEAUScore@Persistence@technical_services_layer@@P6A_NAEAU123@0@Z@std@@YAXPEAUScore@Persistence@technical_services_layer@@0P6A_NAEAU123@1@Z@Z ; std::_Pop_heap_unchecked<technical_services_layer::Persistence::Score *,bool (__cdecl*)(technical_services_layer::Persistence::Score &,technical_services_layer::Persistence::Score &)>
PUBLIC	??$_Move_backward_unchecked@PEAUScore@Persistence@technical_services_layer@@PEAU123@@std@@YAPEAUScore@Persistence@technical_services_layer@@PEAU123@00@Z ; std::_Move_backward_unchecked<technical_services_layer::Persistence::Score *,technical_services_layer::Persistence::Score *>
PUBLIC	??$_Med3_unchecked@PEAUScore@Persistence@technical_services_layer@@P6A_NAEAU123@0@Z@std@@YAXPEAUScore@Persistence@technical_services_layer@@00P6A_NAEAU123@1@Z@Z ; std::_Med3_unchecked<technical_services_layer::Persistence::Score *,bool (__cdecl*)(technical_services_layer::Persistence::Score &,technical_services_layer::Persistence::Score &)>
PUBLIC	??$swap@UScore@Persistence@technical_services_layer@@X@std@@YAXAEAUScore@Persistence@technical_services_layer@@0@Z ; std::swap<technical_services_layer::Persistence::Score,void>
PUBLIC	??$forward@AEAPEAUScore@Persistence@technical_services_layer@@@std@@YAAEAPEAUScore@Persistence@technical_services_layer@@AEAPEAU123@@Z ; std::forward<technical_services_layer::Persistence::Score * &>
PUBLIC	??$_Push_heap_by_index@PEAUScore@Persistence@technical_services_layer@@U123@P6A_NAEAU123@0@Z@std@@YAXPEAUScore@Persistence@technical_services_layer@@_J1$$QEAU123@P6A_NAEAU123@3@Z@Z ; std::_Push_heap_by_index<technical_services_layer::Persistence::Score *,technical_services_layer::Persistence::Score,bool (__cdecl*)(technical_services_layer::Persistence::Score &,technical_services_layer::Persistence::Score &)>
PUBLIC	??$_Pop_heap_hole_unchecked@PEAUScore@Persistence@technical_services_layer@@U123@P6A_NAEAU123@0@Z@std@@YAXPEAUScore@Persistence@technical_services_layer@@00$$QEAU123@P6A_NAEAU123@2@Z@Z ; std::_Pop_heap_hole_unchecked<technical_services_layer::Persistence::Score *,technical_services_layer::Persistence::Score,bool (__cdecl*)(technical_services_layer::Persistence::Score &,technical_services_layer::Persistence::Score &)>
PUBLIC	__JustMyCode_Default
PUBLIC	?_OptionsStorage@?1??__local_stdio_printf_options@@9@4_KA ; `__local_stdio_printf_options'::`2'::_OptionsStorage
PUBLIC	??_7exception@std@@6B@				; std::exception::`vftable'
PUBLIC	??_C@_0BC@EOODALEL@Unknown?5exception@		; `string'
PUBLIC	??_7bad_alloc@std@@6B@				; std::bad_alloc::`vftable'
PUBLIC	??_7bad_array_new_length@std@@6B@		; std::bad_array_new_length::`vftable'
PUBLIC	??_C@_0BF@KINCDENJ@bad?5array?5new?5length@	; `string'
PUBLIC	_TI3?AVbad_array_new_length@std@@
PUBLIC	_CTA3?AVbad_array_new_length@std@@
PUBLIC	??_R0?AVbad_array_new_length@std@@@8		; std::bad_array_new_length `RTTI Type Descriptor'
PUBLIC	_CT??_R0?AVbad_array_new_length@std@@@8??0bad_array_new_length@std@@QEAA@AEBV01@@Z24
PUBLIC	??_R0?AVbad_alloc@std@@@8			; std::bad_alloc `RTTI Type Descriptor'
PUBLIC	_CT??_R0?AVbad_alloc@std@@@8??0bad_alloc@std@@QEAA@AEBV01@@Z24
PUBLIC	??_R0?AVexception@std@@@8			; std::exception `RTTI Type Descriptor'
PUBLIC	_CT??_R0?AVexception@std@@@8??0exception@std@@QEAA@AEBV01@@Z24
PUBLIC	?__LINE__Var@?0??_Adjust_manually_vector_aligned@std@@YAXAEAPEAXAEA_K@Z@4JA ; `std::_Adjust_manually_vector_aligned'::`1'::__LINE__Var
PUBLIC	??_C@_0BB@FCMFBGOM@invalid?5argument@		; `string'
PUBLIC	??_C@_02DKCKIIND@?$CFs@				; `string'
PUBLIC	??_C@_0GI@FJIKDGOA@C?3?2Program?5Files?5?$CIx86?$CJ?2Microsof@ ; `string'
PUBLIC	??_C@_1NA@CDBIFGMM@?$AAC?$AA?3?$AA?2?$AAP?$AAr?$AAo?$AAg?$AAr?$AAa?$AAm?$AA?5?$AAF?$AAi?$AAl?$AAe@ ; `string'
PUBLIC	??_C@_1EK@NIFDJFDG@?$AAs?$AAt?$AAd?$AA?3?$AA?3?$AA_?$AAA?$AAd?$AAj?$AAu?$AAs?$AAt?$AA_?$AAm?$AAa@ ; `string'
PUBLIC	??_C@_1CG@JNLFBNGN@?$AA?$CC?$AAi?$AAn?$AAv?$AAa?$AAl?$AAi?$AAd?$AA?5?$AAa?$AAr?$AAg?$AAu?$AAm?$AAe@ ; `string'
PUBLIC	??_C@_0BJ@LFDBABJJ@ITERATOR?5LIST?5CORRUPTED?$CB@ ; `string'
PUBLIC	??_C@_1EE@KLDMFDFL@?$AAs?$AAt?$AAd?$AA?3?$AA?3?$AA_?$AAI?$AAt?$AAe?$AAr?$AAa?$AAt?$AAo?$AAr?$AA_@ ; `string'
PUBLIC	??_C@_1DG@PLBPCAEM@?$AA?$CC?$AAI?$AAT?$AAE?$AAR?$AAA?$AAT?$AAO?$AAR?$AA?5?$AAL?$AAI?$AAS?$AAT?$AA?5@ ; `string'
PUBLIC	??_7bad_cast@std@@6B@				; std::bad_cast::`vftable'
PUBLIC	??_C@_08EPJLHIJG@bad?5cast@			; `string'
PUBLIC	_TI2?AVbad_cast@std@@
PUBLIC	_CTA2?AVbad_cast@std@@
PUBLIC	??_R0?AVbad_cast@std@@@8			; std::bad_cast `RTTI Type Descriptor'
PUBLIC	_CT??_R0?AVbad_cast@std@@@8??0bad_cast@std@@QEAA@AEBV01@@Z24
PUBLIC	??_C@_0GI@PBEGAEEH@C?3?2Program?5Files?5?$CIx86?$CJ?2Microsof@ ; `string'
PUBLIC	?__LINE__Var@?0??_Maklocwcs@std@@YAPEA_WPEB_W@Z@4JA ; `std::_Maklocwcs'::`1'::__LINE__Var
PUBLIC	??_C@_0GI@HCALAGOG@C?3?2Program?5Files?5?$CIx86?$CJ?2Microsof@ ; `string'
PUBLIC	?defaultAttributes@?1??win_change_attributes@_internal@termcolor@@YAXAEAV?$basic_ostream@DU?$char_traits@D@std@@@std@@HH@Z@4GA ; `termcolor::_internal::win_change_attributes'::`2'::defaultAttributes
PUBLIC	??_7ViewHandler@view@ui_layer@@6B@		; ui_layer::view::ViewHandler::`vftable'
PUBLIC	??_7LoggerHandler@Logging@technical_services_layer@@6B@ ; technical_services_layer::Logging::LoggerHandler::`vftable'
PUBLIC	??_7SimpleLogger@Logging@technical_services_layer@@6B@ ; technical_services_layer::Logging::SimpleLogger::`vftable'
PUBLIC	??_C@_0CK@PCFGOCAD@Simple?5Logger?5initialization?5su@ ; `string'
PUBLIC	??_C@_0CE@HLNLKCMN@Simple?5Logger?5shutdown?5successf@ ; `string'
PUBLIC	??_C@_03LGOGDKEL@?5?$HM?5@			; `string'
PUBLIC	??_C@_0M@EHAPGNAC@?$CFY?9?$CFm?9?$CFd?5?$CFX@	; `string'
PUBLIC	??_7View@view@ui_layer@@6B@			; ui_layer::view::View::`vftable'
PUBLIC	??_C@_0DG@PPFABNIN@View?5being?5used?5and?5has?5been?5su@ ; `string'
PUBLIC	??_C@_0BL@OFIFOMML@View?5shutdown?5successfully@ ; `string'
PUBLIC	??_C@_03LCPHGAHP@cls@				; `string'
PUBLIC	??_C@_0DF@HKMLLIJM@?$BL?$FL1?$DL31m?9?9?9?9?9?9?9?9?9?9?9?9?9?9?9?9?9?9?9?9?9?9?9?9@ ; `string'
PUBLIC	??_C@_0CG@BFLGPPEN@?5?5?5?5Welcome?5to?5game?5station?5men@ ; `string'
PUBLIC	??_C@_0DD@OIKJGJIH@?$BL?$FL32m?9?9?9?9?9?9?9?9?9?9?9?9?9?9?9?9?9?9?9?9?9?9?9?9?9?9@ ; `string'
PUBLIC	??_C@_0BO@BLBLNBGN@1?5?9?5Create?5New?5Player?5Account@ ; `string'
PUBLIC	??_C@_0BI@GLOIDOLI@2?5?9?5Player?5login?5?5?5?5?5?5?5@ ; `string'
PUBLIC	??_C@_0BI@ECDAJNFO@3?5?9?5Exit?5?5?5?5?5?5?5?5?5?5?5?5?5?5?5@ ; `string'
PUBLIC	??_C@_0CK@OHPHFMNE@?9?9?9?9?9?9?9?9?9?9?9?9?9?9?9?9?9?9?9?9?9?9?9?9?9?9?9?9?9?9?9@ ; `string'
PUBLIC	??_C@_0BE@OGJGLPCI@Enter?5your?5choice?3?5@	; `string'
PUBLIC	??_C@_0BK@NLIMOLCP@Invalid?5option?5selected?5?6@ ; `string'
PUBLIC	??_C@_0BH@IAEICIMF@Press?5enter?5to?5retry?5?6@	; `string'
PUBLIC	??_C@_0BM@DKGMJKGP@?9?9?9?9?9?9?9?9?9?9?9?9?9?9?9?9?9?9?9?9?9?9?9?9?9?9?9@ ; `string'
PUBLIC	??_C@_0BM@HJLOFKBN@?5?5?5?5Player?5Registration?5?5?5?5@ ; `string'
PUBLIC	??_C@_0BI@MKKGGENH@Please?5Enter?5username?3?5@	; `string'
PUBLIC	??_C@_0BB@LAEJCAEB@Enter?5password?3?5@		; `string'
PUBLIC	??_C@_0BL@OMDLFFAC@Username?5is?5already?5taken?4@ ; `string'
PUBLIC	??_C@_0CJ@IFELNDIK@Player?5registration?5failed?4?5Ret@ ; `string'
PUBLIC	??_C@_0CA@IKEDJEOC@Player?5registration?5successfull@ ; `string'
PUBLIC	??_C@_0CA@MDAHJHJI@Thank?5you?5for?5choosing?5our?5game@ ; `string'
PUBLIC	??_C@_0BJ@ONICFHCC@Returning?5to?5main?5screen@	; `string'
PUBLIC	??_C@_0BI@IIAOBMHD@Press?5enter?5to?5continue@	; `string'
PUBLIC	??_C@_0BP@MOMGDLHL@?9?9?9?9?9?9?9?9?9?9?9?9?9?9?9?9?9?9?9?9?9?9?9?9?9?9?9?9?9?9@ ; `string'
PUBLIC	??_C@_0BM@FNKOMKCG@?5?5?5?5?5?5?5?5?5Player?5Login?5?5?5?5?5?5@ ; `string'
PUBLIC	??_C@_0BG@ELLGOJLD@Enter?5your?5username?3?5@	; `string'
PUBLIC	??_C@_0BG@JIIKPABK@Enter?5your?5password?3?5@	; `string'
PUBLIC	??_C@_0BO@JMMMHJJK@Invalid?5username?5or?5password?4@ ; `string'
PUBLIC	??_C@_0BJ@EBLFAKDC@Player?5login?5successfull@	; `string'
PUBLIC	??_C@_0CA@FNLGKEFM@?5?5?5?5?5?5?5?5?5Snake?5Game?5Menu?5?5?5?5?5?5?5@ ; `string'
PUBLIC	??_C@_0CC@HJNHLNGD@1?5?9?5Play?5Snake?5Game?5?5?5?5?5?5?5?5?5?5?5?5@ ; `string'
PUBLIC	??_C@_0CD@ILKDADJL@2?5?9?5Buy?5premium?5version?5?5?5?5?5?5?5?5@ ; `string'
PUBLIC	??_C@_0BM@KOKGLFFD@3?5?9?5View?5previous?5scores?5?5?5@ ; `string'
PUBLIC	??_C@_0BM@OMNFCNI@4?5?9?5View?5Leaderboard?5?5?5?5?5?5?5@ ; `string'
PUBLIC	??_C@_0BE@FACNCEIO@5?5?9?5Game?5help?5?5?5?5?5?5@ ; `string'
PUBLIC	??_C@_0BM@OBBKANAC@6?5?9?5Logout?5?5?5?5?5?5?5?5?5?5?5?5?5?5?5?5?5@ ; `string'
PUBLIC	??_C@_0BL@MDJCONFA@Please?5enter?5your?5choice?3?5@ ; `string'
PUBLIC	??_C@_0BJ@CLCHBJB@Invalid?5choice?5provided?4@	; `string'
PUBLIC	??_C@_0BF@HGIPDIDN@Press?5enter?5to?5retry@	; `string'
PUBLIC	??_C@_0BA@HPJGGEA@Username?3?5admin@		; `string'
PUBLIC	??_C@_05JEBDMKHG@admin@				; `string'
PUBLIC	??_C@_0BI@ENPOKPMF@Invalid?5admin?5password?4@	; `string'
PUBLIC	??_C@_0BC@EFDKNLOJ@Please?5try?5again?4@	; `string'
PUBLIC	??_C@_0BH@FJPLCOPP@System?5start?5initiated@	; `string'
PUBLIC	??_C@_0P@IFHKDODG@System?5started@		; `string'
PUBLIC	??_C@_0BL@COEBBMBA@Press?5enter?5to?5continue?4?4?4@ ; `string'
PUBLIC	??_C@_0BJ@GELJNFON@Your?5game?5limit?5is?5over?4@ ; `string'
PUBLIC	??_C@_0CO@GCOCNHNC@Please?5buy?5premium?5version?5to?5p@ ; `string'
PUBLIC	??_C@_0CD@DFFHLGEO@Game?5has?5terminated?5successfull@ ; `string'
PUBLIC	??_C@_01EEMJAFIK@?6@				; `string'
PUBLIC	??_C@_07DBBKMPDO@Score?3?5@			; `string'
PUBLIC	??_C@_0BD@KEIDEELK@?5?5?5Payment?5Info?5?5?5@	; `string'
PUBLIC	??_C@_0BD@EMMMLPFN@?9?9?9?9?9?9?9?9?9?9?9?9?9?9?9?9?9?9@ ; `string'
PUBLIC	??_C@_0BO@DCDEHBKH@Card?5type?5?$CIvisa?1mastercard?$CJ?3?5@ ; `string'
PUBLIC	??_C@_0P@NOCHKFKF@Name?5on?5card?3?5@		; `string'
PUBLIC	??_C@_0BF@KLIEAAIB@Credit?5card?5number?3?5@	; `string'
PUBLIC	??_C@_0P@GDNMEDAI@Expiry?5month?3?5@		; `string'
PUBLIC	??_C@_0O@KLGFKCGG@Expiry?5year?3?5@		; `string'
PUBLIC	??_C@_05CCLMAIGP@CVV?3?5@			; `string'
PUBLIC	??_C@_0CF@BFANJKPI@Wait?5while?5we?5process?5the?5payme@ ; `string'
PUBLIC	??_C@_0BM@IEHKBLAG@Credit?5card?5payment?5failed?4@ ; `string'
PUBLIC	??_C@_0BD@PJHABHOL@Previous?515?5scores@	; `string'
PUBLIC	??_C@_02KCKGHPCA@?$CJ?5@			; `string'
PUBLIC	??_C@_0M@MHLGOFJG@Leaderboard@			; `string'
PUBLIC	??_C@_0BB@OAGJBGHP@?9?9?9?9?9?9?9?9?9?9?9?9?9?9?9?9@ ; `string'
PUBLIC	??_C@_03NDEAONJP@?5?5?5@			; `string'
PUBLIC	??_C@_02GIPFHKNO@OK@				; `string'
PUBLIC	??_C@_0L@JNFOPKEE@GAME?5OVER?$CB@		; `string'
PUBLIC	??_C@_0BM@DJFOPBBE@Press?5OK?5to?5go?5to?5main?5menu@ ; `string'
PUBLIC	??_C@_0BN@BINLPIBP@error?5displaying?5message?5box@ ; `string'
PUBLIC	??_C@_0N@PBGNHGLN@no?5selection@		; `string'
PUBLIC	??_C@_09HFAJNPOO@Score?3?5?$CFd@		; `string'
PUBLIC	??_C@_0N@LPFKKEBD@?3AM?3am?3PM?3pm@		; `string'
PUBLIC	??_C@_0GJ@GDKIGMBO@C?3?2Program?5Files?5?$CIx86?$CJ?2Microsof@ ; `string'
PUBLIC	??_C@_0DC@KEKNBAEB@can?8t?5increment?5value?9initializ@ ; `string'
PUBLIC	??_C@_0GH@OOPCKGB@C?3?2Program?5Files?5?$CIx86?$CJ?2Microsof@ ; `string'
PUBLIC	??_C@_1MO@NOOOHLI@?$AAC?$AA?3?$AA?2?$AAP?$AAr?$AAo?$AAg?$AAr?$AAa?$AAm?$AA?5?$AAF?$AAi?$AAl?$AAe@ ; `string'
PUBLIC	??_C@_1BCG@DMILBCMK@?$AAs?$AAt?$AAd?$AA?3?$AA?3?$AA_?$AAV?$AAe?$AAc?$AAt?$AAo?$AAr?$AA_?$AAc?$AAo@ ; `string'
PUBLIC	??_C@_1GI@EDCILPL@?$AA?$CC?$AAc?$AAa?$AAn?$AA?8?$AAt?$AA?5?$AAi?$AAn?$AAc?$AAr?$AAe?$AAm?$AAe?$AAn@ ; `string'
PUBLIC	??_C@_0CJ@OAAAAGPM@can?8t?5increment?5vector?5iterator@ ; `string'
PUBLIC	??_C@_1FG@LDPPKMGP@?$AA?$CC?$AAc?$AAa?$AAn?$AA?8?$AAt?$AA?5?$AAi?$AAn?$AAc?$AAr?$AAe?$AAm?$AAe?$AAn@ ; `string'
PUBLIC	??_C@_0DE@CHADHGFF@can?8t?5dereference?5value?9initial@ ; `string'
PUBLIC	??_C@_1BCE@DAINFINE@?$AAs?$AAt?$AAd?$AA?3?$AA?3?$AA_?$AAV?$AAe?$AAc?$AAt?$AAo?$AAr?$AA_?$AAc?$AAo@ ; `string'
PUBLIC	??_C@_1GM@FNBFNBEL@?$AA?$CC?$AAc?$AAa?$AAn?$AA?8?$AAt?$AA?5?$AAd?$AAe?$AAr?$AAe?$AAf?$AAe?$AAr?$AAe@ ; `string'
PUBLIC	??_C@_0CP@MDHADBHN@can?8t?5dereference?5out?5of?5range?5@ ; `string'
PUBLIC	??_C@_1GC@JDCKOLAC@?$AA?$CC?$AAc?$AAa?$AAn?$AA?8?$AAt?$AA?5?$AAd?$AAe?$AAr?$AAe?$AAf?$AAe?$AAr?$AAe@ ; `string'
PUBLIC	??_C@_1NI@CDNGJJHP@?$AAs?$AAt?$AAd?$AA?3?$AA?3?$AA_?$AAV?$AAe?$AAc?$AAt?$AAo?$AAr?$AA_?$AAc?$AAo@ ; `string'
PUBLIC	??_C@_1NG@DAPFFJEF@?$AAs?$AAt?$AAd?$AA?3?$AA?3?$AA_?$AAV?$AAe?$AAc?$AAt?$AAo?$AAr?$AA_?$AAc?$AAo@ ; `string'
PUBLIC	??_C@_0BO@CAOBBIOC@vector?5iterators?5incompatible@ ; `string'
PUBLIC	??_C@_1BBO@PJKBGHCB@?$AAs?$AAt?$AAd?$AA?3?$AA?3?$AA_?$AAV?$AAe?$AAc?$AAt?$AAo?$AAr?$AA_?$AAc?$AAo@ ; `string'
PUBLIC	??_C@_1EA@DJDGNIII@?$AA?$CC?$AAv?$AAe?$AAc?$AAt?$AAo?$AAr?$AA?5?$AAi?$AAt?$AAe?$AAr?$AAa?$AAt?$AAo@ ; `string'
PUBLIC	??_C@_1NA@KDANOKNP@?$AAs?$AAt?$AAd?$AA?3?$AA?3?$AA_?$AAV?$AAe?$AAc?$AAt?$AAo?$AAr?$AA_?$AAc?$AAo@ ; `string'
PUBLIC	??_C@_0BI@CFPLBAOH@invalid?5string?5position@	; `string'
PUBLIC	??_C@_1BK@MHIKGOKE@?$AA?3?$AAA?$AAM?$AA?3?$AAa?$AAm?$AA?3?$AAP?$AAM?$AA?3?$AAp?$AAm@ ; `string'
PUBLIC	??_C@_0BA@JFNIOLAK@string?5too?5long@		; `string'
PUBLIC	??_C@_1NC@OIIHGCJJ@?$AAC?$AA?3?$AA?2?$AAP?$AAr?$AAo?$AAg?$AAr?$AAa?$AAm?$AA?5?$AAF?$AAi?$AAl?$AAe@ ; `string'
PUBLIC	??_C@_1CG@LJCPDKEJ@?$AAs?$AAt?$AAd?$AA?3?$AA?3?$AA_?$AAV?$AAe?$AAr?$AAi?$AAf?$AAy?$AA_?$AAr?$AAa@ ; `string'
PUBLIC	?_Psave@?$_Facetptr@V?$time_put@DV?$ostreambuf_iterator@DU?$char_traits@D@std@@@std@@@std@@@std@@2PEBVfacet@locale@2@EB ; std::_Facetptr<std::time_put<char,std::ostreambuf_iterator<char,std::char_traits<char> > > >::_Psave
PUBLIC	??_C@_1EO@GFNCMDLA@?$AAs?$AAt?$AAd?$AA?3?$AA?3?$AA_?$AAA?$AAl?$AAl?$AAo?$AAc?$AAa?$AAt?$AAe?$AA_@ ; `string'
PUBLIC	??_C@_0DI@PBEELKIF@vector?5iterators?5in?5range?5are?5f@ ; `string'
PUBLIC	??_C@_1HE@KBMFDAFB@?$AA?$CC?$AAv?$AAe?$AAc?$AAt?$AAo?$AAr?$AA?5?$AAi?$AAt?$AAe?$AAr?$AAa?$AAt?$AAo@ ; `string'
PUBLIC	??_C@_0CB@LIAHLBAO@vector?5iterator?5range?5transpose@ ; `string'
PUBLIC	??_C@_1EG@ODKBEHFN@?$AA?$CC?$AAv?$AAe?$AAc?$AAt?$AAo?$AAr?$AA?5?$AAi?$AAt?$AAe?$AAr?$AAa?$AAt?$AAo@ ; `string'
PUBLIC	??_C@_0BD@FEEMDEPI@invalid?5comparator@		; `string'
PUBLIC	??_C@_1CI@JONCLBEJ@?$AAs?$AAt?$AAd?$AA?3?$AA?3?$AA_?$AAD?$AAe?$AAb?$AAu?$AAg?$AA_?$AAl?$AAt?$AA_@ ; `string'
PUBLIC	??_C@_1CK@NDNHPKPI@?$AA?$CC?$AAi?$AAn?$AAv?$AAa?$AAl?$AAi?$AAd?$AA?5?$AAc?$AAo?$AAm?$AAp?$AAa?$AAr@ ; `string'
PUBLIC	??_R4exception@std@@6B@				; std::exception::`RTTI Complete Object Locator'
PUBLIC	??_R3exception@std@@8				; std::exception::`RTTI Class Hierarchy Descriptor'
PUBLIC	??_R2exception@std@@8				; std::exception::`RTTI Base Class Array'
PUBLIC	??_R1A@?0A@EA@exception@std@@8			; std::exception::`RTTI Base Class Descriptor at (0,-1,0,64)'
PUBLIC	??_R4bad_alloc@std@@6B@				; std::bad_alloc::`RTTI Complete Object Locator'
PUBLIC	??_R3bad_alloc@std@@8				; std::bad_alloc::`RTTI Class Hierarchy Descriptor'
PUBLIC	??_R2bad_alloc@std@@8				; std::bad_alloc::`RTTI Base Class Array'
PUBLIC	??_R1A@?0A@EA@bad_alloc@std@@8			; std::bad_alloc::`RTTI Base Class Descriptor at (0,-1,0,64)'
PUBLIC	??_R4bad_array_new_length@std@@6B@		; std::bad_array_new_length::`RTTI Complete Object Locator'
PUBLIC	??_R3bad_array_new_length@std@@8		; std::bad_array_new_length::`RTTI Class Hierarchy Descriptor'
PUBLIC	??_R2bad_array_new_length@std@@8		; std::bad_array_new_length::`RTTI Base Class Array'
PUBLIC	??_R1A@?0A@EA@bad_array_new_length@std@@8	; std::bad_array_new_length::`RTTI Base Class Descriptor at (0,-1,0,64)'
PUBLIC	??_R4bad_cast@std@@6B@				; std::bad_cast::`RTTI Complete Object Locator'
PUBLIC	??_R3bad_cast@std@@8				; std::bad_cast::`RTTI Class Hierarchy Descriptor'
PUBLIC	??_R2bad_cast@std@@8				; std::bad_cast::`RTTI Base Class Array'
PUBLIC	??_R1A@?0A@EA@bad_cast@std@@8			; std::bad_cast::`RTTI Base Class Descriptor at (0,-1,0,64)'
PUBLIC	??_R4ViewHandler@view@ui_layer@@6B@		; ui_layer::view::ViewHandler::`RTTI Complete Object Locator'
PUBLIC	??_R0?AVViewHandler@view@ui_layer@@@8		; ui_layer::view::ViewHandler `RTTI Type Descriptor'
PUBLIC	??_R3ViewHandler@view@ui_layer@@8		; ui_layer::view::ViewHandler::`RTTI Class Hierarchy Descriptor'
PUBLIC	??_R2ViewHandler@view@ui_layer@@8		; ui_layer::view::ViewHandler::`RTTI Base Class Array'
PUBLIC	??_R1A@?0A@EA@ViewHandler@view@ui_layer@@8	; ui_layer::view::ViewHandler::`RTTI Base Class Descriptor at (0,-1,0,64)'
PUBLIC	??_R4LoggerHandler@Logging@technical_services_layer@@6B@ ; technical_services_layer::Logging::LoggerHandler::`RTTI Complete Object Locator'
PUBLIC	??_R0?AVLoggerHandler@Logging@technical_services_layer@@@8 ; technical_services_layer::Logging::LoggerHandler `RTTI Type Descriptor'
PUBLIC	??_R3LoggerHandler@Logging@technical_services_layer@@8 ; technical_services_layer::Logging::LoggerHandler::`RTTI Class Hierarchy Descriptor'
PUBLIC	??_R2LoggerHandler@Logging@technical_services_layer@@8 ; technical_services_layer::Logging::LoggerHandler::`RTTI Base Class Array'
PUBLIC	??_R1A@?0A@EA@LoggerHandler@Logging@technical_services_layer@@8 ; technical_services_layer::Logging::LoggerHandler::`RTTI Base Class Descriptor at (0,-1,0,64)'
PUBLIC	??_R4SimpleLogger@Logging@technical_services_layer@@6B@ ; technical_services_layer::Logging::SimpleLogger::`RTTI Complete Object Locator'
PUBLIC	??_R0?AVSimpleLogger@Logging@technical_services_layer@@@8 ; technical_services_layer::Logging::SimpleLogger `RTTI Type Descriptor'
PUBLIC	??_R3SimpleLogger@Logging@technical_services_layer@@8 ; technical_services_layer::Logging::SimpleLogger::`RTTI Class Hierarchy Descriptor'
PUBLIC	??_R2SimpleLogger@Logging@technical_services_layer@@8 ; technical_services_layer::Logging::SimpleLogger::`RTTI Base Class Array'
PUBLIC	??_R1A@?0A@EA@SimpleLogger@Logging@technical_services_layer@@8 ; technical_services_layer::Logging::SimpleLogger::`RTTI Base Class Descriptor at (0,-1,0,64)'
PUBLIC	??_R4View@view@ui_layer@@6B@			; ui_layer::view::View::`RTTI Complete Object Locator'
PUBLIC	??_R0?AVView@view@ui_layer@@@8			; ui_layer::view::View `RTTI Type Descriptor'
PUBLIC	??_R3View@view@ui_layer@@8			; ui_layer::view::View::`RTTI Class Hierarchy Descriptor'
PUBLIC	??_R2View@view@ui_layer@@8			; ui_layer::view::View::`RTTI Base Class Array'
PUBLIC	??_R1A@?0A@EA@View@view@ui_layer@@8		; ui_layer::view::View::`RTTI Base Class Descriptor at (0,-1,0,64)'
EXTRN	_purecall:PROC
EXTRN	??2@YAPEAX_K@Z:PROC				; operator new
EXTRN	??3@YAXPEAX_K@Z:PROC				; operator delete
EXTRN	__imp__invalid_parameter:PROC
EXTRN	__imp__calloc_dbg:PROC
EXTRN	__imp__CrtDbgReport:PROC
EXTRN	__imp_??0_Lockit@std@@QEAA@H@Z:PROC
EXTRN	__imp_??1_Lockit@std@@QEAA@XZ:PROC
EXTRN	__imp_system:PROC
EXTRN	__imp___acrt_iob_func:PROC
EXTRN	__imp__fileno:PROC
EXTRN	__imp___stdio_common_vsprintf_s:PROC
EXTRN	memcpy:PROC
EXTRN	memmove:PROC
EXTRN	__imp_wcslen:PROC
EXTRN	?uncaught_exception@std@@YA_NXZ:PROC		; std::uncaught_exception
EXTRN	__std_exception_copy:PROC
EXTRN	__std_exception_destroy:PROC
EXTRN	??_Eexception@std@@UEAAPEAXI@Z:PROC		; std::exception::`vector deleting destructor'
EXTRN	??_Ebad_alloc@std@@UEAAPEAXI@Z:PROC		; std::bad_alloc::`vector deleting destructor'
EXTRN	??_Ebad_array_new_length@std@@UEAAPEAXI@Z:PROC	; std::bad_array_new_length::`vector deleting destructor'
EXTRN	strlen:PROC
EXTRN	?_Xbad_alloc@std@@YAXXZ:PROC			; std::_Xbad_alloc
EXTRN	?_Xlength_error@std@@YAXPEBD@Z:PROC		; std::_Xlength_error
EXTRN	?_Xout_of_range@std@@YAXPEBD@Z:PROC		; std::_Xout_of_range
EXTRN	??_Ebad_cast@std@@UEAAPEAXI@Z:PROC		; std::bad_cast::`vector deleting destructor'
EXTRN	?_Facet_Register@std@@YAXPEAV_Facet_base@1@@Z:PROC ; std::_Facet_Register
EXTRN	_Mbrtowc:PROC
EXTRN	__imp_?_Getcvt@_Locinfo@std@@QEBA?AU_Cvtvec@@XZ:PROC
EXTRN	__imp_?_Getdays@_Locinfo@std@@QEBAPEBDXZ:PROC
EXTRN	__imp_?_Getmonths@_Locinfo@std@@QEBAPEBDXZ:PROC
EXTRN	__imp_?_W_Getdays@_Locinfo@std@@QEBAPEBGXZ:PROC
EXTRN	__imp_?_W_Getmonths@_Locinfo@std@@QEBAPEBGXZ:PROC
EXTRN	__imp_??Bid@locale@std@@QEAA_KXZ:PROC
EXTRN	?_Getgloballocale@locale@std@@CAPEAV_Locimp@12@XZ:PROC ; std::locale::_Getgloballocale
EXTRN	__imp_?good@ios_base@std@@QEBA_NXZ:PROC
EXTRN	__imp_?flags@ios_base@std@@QEBAHXZ:PROC
EXTRN	__imp_?width@ios_base@std@@QEBA_JXZ:PROC
EXTRN	__imp_?width@ios_base@std@@QEAA_J_J@Z:PROC
EXTRN	__imp_?getloc@ios_base@std@@QEBA?AVlocale@2@XZ:PROC
EXTRN	__imp_?xalloc@ios_base@std@@SAHXZ:PROC
EXTRN	__imp_?iword@ios_base@std@@QEAAAEAJH@Z:PROC
EXTRN	__imp_?sbumpc@?$basic_streambuf@DU?$char_traits@D@std@@@std@@QEAAHXZ:PROC
EXTRN	__imp_?sgetc@?$basic_streambuf@DU?$char_traits@D@std@@@std@@QEAAHXZ:PROC
EXTRN	__imp_?snextc@?$basic_streambuf@DU?$char_traits@D@std@@@std@@QEAAHXZ:PROC
EXTRN	__imp_?sputc@?$basic_streambuf@DU?$char_traits@D@std@@@std@@QEAAHD@Z:PROC
EXTRN	__imp_?sputn@?$basic_streambuf@DU?$char_traits@D@std@@@std@@QEAA_JPEBD_J@Z:PROC
EXTRN	__imp_?setstate@?$basic_ios@DU?$char_traits@D@std@@@std@@QEAAXH_N@Z:PROC
EXTRN	__imp_?tie@?$basic_ios@DU?$char_traits@D@std@@@std@@QEBAPEAV?$basic_ostream@DU?$char_traits@D@std@@@2@XZ:PROC
EXTRN	__imp_?rdbuf@?$basic_ios@DU?$char_traits@D@std@@@std@@QEBAPEAV?$basic_streambuf@DU?$char_traits@D@std@@@2@XZ:PROC
EXTRN	__imp_?fill@?$basic_ios@DU?$char_traits@D@std@@@std@@QEBADXZ:PROC
EXTRN	__imp_?widen@?$basic_ios@DU?$char_traits@D@std@@@std@@QEBADD@Z:PROC
EXTRN	__imp_?_Osfx@?$basic_ostream@DU?$char_traits@D@std@@@std@@QEAAXXZ:PROC
EXTRN	__imp_??6?$basic_ostream@DU?$char_traits@D@std@@@std@@QEAAAEAV01@P6AAEAV01@AEAV01@@Z@Z:PROC
EXTRN	__imp_??6?$basic_ostream@DU?$char_traits@D@std@@@std@@QEAAAEAV01@H@Z:PROC
EXTRN	__imp_??6?$basic_ostream@DU?$char_traits@D@std@@@std@@QEAAAEAV01@I@Z:PROC
EXTRN	__imp_?put@?$basic_ostream@DU?$char_traits@D@std@@@std@@QEAAAEAV12@D@Z:PROC
EXTRN	__imp_?flush@?$basic_ostream@DU?$char_traits@D@std@@@std@@QEAAAEAV12@XZ:PROC
EXTRN	__imp_?_Ipfx@?$basic_istream@DU?$char_traits@D@std@@@std@@QEAA_N_N@Z:PROC
EXTRN	__imp_??5?$basic_istream@DU?$char_traits@D@std@@@std@@QEAAAEAV01@AEAI@Z:PROC
EXTRN	__imp_?ignore@?$basic_istream@DU?$char_traits@D@std@@@std@@QEAAAEAV12@_JH@Z:PROC
EXTRN	SDL_DestroyWindow:PROC
EXTRN	SDL_Log:PROC
EXTRN	SDL_ShowMessageBox:PROC
EXTRN	SDL_CreateTextureFromSurface:PROC
EXTRN	SDL_SetRenderDrawColor:PROC
EXTRN	SDL_RenderClear:PROC
EXTRN	SDL_RenderCopy:PROC
EXTRN	SDL_DestroyTexture:PROC
EXTRN	SDL_DestroyRenderer:PROC
EXTRN	SDL_Quit:PROC
EXTRN	TTF_RenderText_Solid:PROC
EXTRN	TTF_CloseFont:PROC
EXTRN	TTF_Quit:PROC
EXTRN	??0PlayZone@@QEAA@_K000@Z:PROC			; PlayZone::PlayZone
EXTRN	??1PlayZone@@QEAA@XZ:PROC			; PlayZone::~PlayZone
EXTRN	??0Player@player@domain_layer@@QEAA@V?$basic_string@DU?$char_traits@D@std@@V?$allocator@D@2@@std@@IIPEAUPersistenceHandler@Persistence@technical_services_layer@@@Z:PROC ; domain_layer::player::Player::Player
EXTRN	??0Game@@QEAA@_K0@Z:PROC			; Game::Game
EXTRN	?Run@Game@@QEAAXAEBQEAVController@controller@ui_layer@@AEAVPlayZone@@_K@Z:PROC ; Game::Run
EXTRN	?GetScore@Game@@QEBAHXZ:PROC			; Game::GetScore
EXTRN	__imp__isatty:PROC
EXTRN	__imp_GetStdHandle:PROC
EXTRN	__imp_GetConsoleScreenBufferInfo:PROC
EXTRN	__imp_SetConsoleTextAttribute:PROC
EXTRN	__imp__localtime64_s:PROC
EXTRN	_Xtime_get_ticks:PROC
EXTRN	__imp_?put@?$time_put@DV?$ostreambuf_iterator@DU?$char_traits@D@std@@@std@@@std@@QEBA?AV?$ostreambuf_iterator@DU?$char_traits@D@std@@@2@V32@AEAVios_base@2@DPEBUtm@@PEBD3@Z:PROC
EXTRN	__imp_?_Getcat@?$time_put@DV?$ostreambuf_iterator@DU?$char_traits@D@std@@@std@@@std@@SA_KPEAPEBVfacet@locale@2@PEBV42@@Z:PROC
EXTRN	??_ESimpleLogger@Logging@technical_services_layer@@UEAAPEAXI@Z:PROC ; technical_services_layer::Logging::SimpleLogger::`vector deleting destructor'
EXTRN	?createFactory@CreditCardFactory@payment@technical_services_layer@@SAPEAV123@XZ:PROC ; technical_services_layer::payment::CreditCardFactory::createFactory
EXTRN	??_EView@view@ui_layer@@UEAAPEAXI@Z:PROC	; ui_layer::view::View::`vector deleting destructor'
EXTRN	??0Storage@Persistence@technical_services_layer@@QEAA@XZ:PROC ; technical_services_layer::Persistence::Storage::Storage
EXTRN	_CxxThrowException:PROC
EXTRN	_RTC_CheckStackVars:PROC
EXTRN	_RTC_InitBase:PROC
EXTRN	_RTC_Shutdown:PROC
EXTRN	__CheckForDebuggerJustMyCode:PROC
EXTRN	__CxxFrameHandler4:PROC
EXTRN	__GSHandlerCheck:PROC
EXTRN	__GSHandlerCheck_EH4:PROC
EXTRN	__chkstk:PROC
EXTRN	__security_check_cookie:PROC
EXTRN	memcmp:PROC
EXTRN	??_7type_info@@6B@:BYTE				; type_info::`vftable'
EXTRN	__imp_?cin@std@@3V?$basic_istream@DU?$char_traits@D@std@@@1@A:BYTE
EXTRN	__imp_?cout@std@@3V?$basic_ostream@DU?$char_traits@D@std@@@1@A:BYTE
EXTRN	__imp_?cerr@std@@3V?$basic_ostream@DU?$char_traits@D@std@@@1@A:BYTE
EXTRN	__imp_?clog@std@@3V?$basic_ostream@DU?$char_traits@D@std@@@1@A:BYTE
EXTRN	__imp_?id@?$time_put@DV?$ostreambuf_iterator@DU?$char_traits@D@std@@@std@@@std@@2V0locale@2@A:QWORD
EXTRN	__ImageBase:BYTE
EXTRN	__security_cookie:QWORD
;	COMDAT ?_OptionsStorage@?1??__local_stdio_printf_options@@9@4_KA
_BSS	SEGMENT
?_OptionsStorage@?1??__local_stdio_printf_options@@9@4_KA DQ 01H DUP (?) ; `__local_stdio_printf_options'::`2'::_OptionsStorage
_BSS	ENDS
_BSS	SEGMENT
?colorize_index@_internal@termcolor@@3HA DD 01H DUP (?)	; termcolor::_internal::colorize_index
_BSS	ENDS
;	COMDAT ?defaultAttributes@?1??win_change_attributes@_internal@termcolor@@YAXAEAV?$basic_ostream@DU?$char_traits@D@std@@@std@@HH@Z@4GA
_BSS	SEGMENT
?defaultAttributes@?1??win_change_attributes@_internal@termcolor@@YAXAEAV?$basic_ostream@DU?$char_traits@D@std@@@std@@HH@Z@4GA DW 01H DUP (?) ; `termcolor::_internal::win_change_attributes'::`2'::defaultAttributes
_BSS	ENDS
_BSS	SEGMENT
	ALIGN	8

?font@@3PEAU_TTF_Font@@EA DQ 01H DUP (?)		; font
?win@@3PEAUSDL_Window@@EA DQ 01H DUP (?)		; win
?ren@@3PEAUSDL_Renderer@@EA DQ 01H DUP (?)		; ren
?background_tx@@3PEAUSDL_Texture@@EA DQ 01H DUP (?)	; background_tx
_BSS	ENDS
;	COMDAT ?_Psave@?$_Facetptr@V?$time_put@DV?$ostreambuf_iterator@DU?$char_traits@D@std@@@std@@@std@@@std@@2PEBVfacet@locale@2@EB
_BSS	SEGMENT
?_Psave@?$_Facetptr@V?$time_put@DV?$ostreambuf_iterator@DU?$char_traits@D@std@@@std@@@std@@@std@@2PEBVfacet@locale@2@EB DQ 01H DUP (?) ; std::_Facetptr<std::time_put<char,std::ostreambuf_iterator<char,std::char_traits<char> > > >::_Psave
_BSS	ENDS
;	COMDAT pdata
pdata	SEGMENT
$pdata$?__empty_global_delete@@YAXPEAX@Z DD imagerel $LN3
	DD	imagerel $LN3+65
	DD	imagerel $unwind$?__empty_global_delete@@YAXPEAX@Z
pdata	ENDS
;	COMDAT pdata
pdata	SEGMENT
$pdata$?__empty_global_delete@@YAXPEAX_K@Z DD imagerel $LN3
	DD	imagerel $LN3+70
	DD	imagerel $unwind$?__empty_global_delete@@YAXPEAX_K@Z
pdata	ENDS
;	COMDAT pdata
pdata	SEGMENT
$pdata$?__empty_global_delete@@YAXPEAXW4align_val_t@std@@@Z DD imagerel $LN3
	DD	imagerel $LN3+70
	DD	imagerel $unwind$?__empty_global_delete@@YAXPEAXW4align_val_t@std@@@Z
pdata	ENDS
;	COMDAT pdata
pdata	SEGMENT
$pdata$?__empty_global_delete@@YAXPEAX_KW4align_val_t@std@@@Z DD imagerel $LN3
	DD	imagerel $LN3+75
	DD	imagerel $unwind$?__empty_global_delete@@YAXPEAX_KW4align_val_t@std@@@Z
pdata	ENDS
;	COMDAT pdata
pdata	SEGMENT
$pdata$??2@YAPEAX_KPEAX@Z DD imagerel $LN3
	DD	imagerel $LN3+77
	DD	imagerel $unwind$??2@YAPEAX_KPEAX@Z
pdata	ENDS
;	COMDAT pdata
pdata	SEGMENT
$pdata$__local_stdio_printf_options DD imagerel $LN3
	DD	imagerel $LN3+59
	DD	imagerel $unwind$__local_stdio_printf_options
pdata	ENDS
;	COMDAT pdata
pdata	SEGMENT
$pdata$_vsprintf_s_l DD imagerel $LN5
	DD	imagerel $LN5+174
	DD	imagerel $unwind$_vsprintf_s_l
pdata	ENDS
;	COMDAT pdata
pdata	SEGMENT
$pdata$vsprintf_s DD imagerel $LN3
	DD	imagerel $LN3+120
	DD	imagerel $unwind$vsprintf_s
pdata	ENDS
;	COMDAT pdata
pdata	SEGMENT
$pdata$wmemcpy DD imagerel $LN3
	DD	imagerel $LN3+106
	DD	imagerel $unwind$wmemcpy
pdata	ENDS
;	COMDAT pdata
pdata	SEGMENT
$pdata$?max@?$numeric_limits@_J@std@@SA_JXZ DD imagerel $LN3
	DD	imagerel $LN3+63
	DD	imagerel $unwind$?max@?$numeric_limits@_J@std@@SA_JXZ
pdata	ENDS
;	COMDAT pdata
pdata	SEGMENT
$pdata$??0exception@std@@QEAA@QEBDH@Z DD imagerel $LN3
	DD	imagerel $LN3+140
	DD	imagerel $unwind$??0exception@std@@QEAA@QEBDH@Z
pdata	ENDS
;	COMDAT pdata
pdata	SEGMENT
$pdata$??0exception@std@@QEAA@AEBV01@@Z DD imagerel $LN3
	DD	imagerel $LN3+148
	DD	imagerel $unwind$??0exception@std@@QEAA@AEBV01@@Z
pdata	ENDS
;	COMDAT pdata
pdata	SEGMENT
$pdata$??1exception@std@@UEAA@XZ DD imagerel $LN3
	DD	imagerel $LN3+102
	DD	imagerel $unwind$??1exception@std@@UEAA@XZ
pdata	ENDS
;	COMDAT pdata
pdata	SEGMENT
$pdata$?what@exception@std@@UEBAPEBDXZ DD imagerel $LN5
	DD	imagerel $LN5+119
	DD	imagerel $unwind$?what@exception@std@@UEBAPEBDXZ
pdata	ENDS
;	COMDAT pdata
pdata	SEGMENT
$pdata$??_Gexception@std@@UEAAPEAXI@Z DD imagerel $LN4
	DD	imagerel $LN4+105
	DD	imagerel $unwind$??_Gexception@std@@UEAAPEAXI@Z
pdata	ENDS
;	COMDAT pdata
pdata	SEGMENT
$pdata$??0bad_alloc@std@@AEAA@QEBD@Z DD imagerel $LN3
	DD	imagerel $LN3+120
	DD	imagerel $unwind$??0bad_alloc@std@@AEAA@QEBD@Z
pdata	ENDS
;	COMDAT pdata
pdata	SEGMENT
$pdata$??1bad_alloc@std@@UEAA@XZ DD imagerel $LN3
	DD	imagerel $LN3+64
	DD	imagerel $unwind$??1bad_alloc@std@@UEAA@XZ
pdata	ENDS
;	COMDAT pdata
pdata	SEGMENT
$pdata$??0bad_alloc@std@@QEAA@AEBV01@@Z DD imagerel $LN3
	DD	imagerel $LN3+100
	DD	imagerel $unwind$??0bad_alloc@std@@QEAA@AEBV01@@Z
pdata	ENDS
;	COMDAT pdata
pdata	SEGMENT
$pdata$??_Gbad_alloc@std@@UEAAPEAXI@Z DD imagerel $LN4
	DD	imagerel $LN4+105
	DD	imagerel $unwind$??_Gbad_alloc@std@@UEAAPEAXI@Z
pdata	ENDS
;	COMDAT pdata
pdata	SEGMENT
$pdata$??0bad_array_new_length@std@@QEAA@XZ DD imagerel $LN3
	DD	imagerel $LN3+109
	DD	imagerel $unwind$??0bad_array_new_length@std@@QEAA@XZ
pdata	ENDS
;	COMDAT pdata
pdata	SEGMENT
$pdata$??1bad_array_new_length@std@@UEAA@XZ DD imagerel $LN3
	DD	imagerel $LN3+64
	DD	imagerel $unwind$??1bad_array_new_length@std@@UEAA@XZ
pdata	ENDS
;	COMDAT pdata
pdata	SEGMENT
$pdata$??0bad_array_new_length@std@@QEAA@AEBV01@@Z DD imagerel $LN3
	DD	imagerel $LN3+100
	DD	imagerel $unwind$??0bad_array_new_length@std@@QEAA@AEBV01@@Z
pdata	ENDS
;	COMDAT pdata
pdata	SEGMENT
$pdata$??_Gbad_array_new_length@std@@UEAAPEAXI@Z DD imagerel $LN4
	DD	imagerel $LN4+105
	DD	imagerel $unwind$??_Gbad_array_new_length@std@@UEAAPEAXI@Z
pdata	ENDS
;	COMDAT pdata
pdata	SEGMENT
$pdata$?_Throw_bad_array_new_length@std@@YAXXZ DD imagerel $LN3
	DD	imagerel $LN3+83
	DD	imagerel $unwind$?_Throw_bad_array_new_length@std@@YAXXZ
pdata	ENDS
;	COMDAT pdata
pdata	SEGMENT
$pdata$?_Allocate@_Default_allocate_traits@std@@SAPEAX_K@Z DD imagerel $LN3
	DD	imagerel $LN3+76
	DD	imagerel $unwind$?_Allocate@_Default_allocate_traits@std@@SAPEAX_K@Z
pdata	ENDS
;	COMDAT pdata
pdata	SEGMENT
$pdata$?_Adjust_manually_vector_aligned@std@@YAXAEAPEAXAEA_K@Z DD imagerel $LN21
	DD	imagerel $LN21+476
	DD	imagerel $unwind$?_Adjust_manually_vector_aligned@std@@YAXAEAPEAXAEA_K@Z
pdata	ENDS
;	COMDAT pdata
pdata	SEGMENT
$pdata$??$_Convert_size@_K@std@@YA_K_K@Z DD imagerel $LN3
	DD	imagerel $LN3+72
	DD	imagerel $unwind$??$_Convert_size@_K@std@@YA_K_K@Z
pdata	ENDS
;	COMDAT pdata
pdata	SEGMENT
$pdata$??0_Container_proxy@std@@QEAA@PEAU_Container_base12@1@@Z DD imagerel $LN3
	DD	imagerel $LN3+109
	DD	imagerel $unwind$??0_Container_proxy@std@@QEAA@PEAU_Container_base12@1@@Z
pdata	ENDS
;	COMDAT pdata
pdata	SEGMENT
$pdata$??0_Container_base12@std@@QEAA@XZ DD imagerel $LN3
	DD	imagerel $LN3+85
	DD	imagerel $unwind$??0_Container_base12@std@@QEAA@XZ
pdata	ENDS
;	COMDAT pdata
pdata	SEGMENT
$pdata$?_Orphan_all@_Container_base12@std@@QEAAXXZ DD imagerel $LN7
	DD	imagerel $LN7+237
	DD	imagerel $unwind$?_Orphan_all@_Container_base12@std@@QEAAXXZ
pdata	ENDS
;	COMDAT pdata
pdata	SEGMENT
$pdata$?_Swap_proxy_and_iterators@_Container_base12@std@@QEAAXAEAU12@@Z DD imagerel $LN5
	DD	imagerel $LN5+261
	DD	imagerel $unwind$?_Swap_proxy_and_iterators@_Container_base12@std@@QEAAXAEAU12@@Z
pdata	ENDS
;	COMDAT pdata
pdata	SEGMENT
$pdata$??$_Construct_in_place@U_Container_proxy@std@@PEAU_Container_base12@2@@std@@YAXAEAU_Container_proxy@0@$$QEAPEAU_Container_base12@0@@Z DD imagerel $LN3
	DD	imagerel $LN3+147
	DD	imagerel $unwind$??$_Construct_in_place@U_Container_proxy@std@@PEAU_Container_base12@2@@std@@YAXAEAU_Container_proxy@0@$$QEAPEAU_Container_base12@0@@Z
pdata	ENDS
;	COMDAT pdata
pdata	SEGMENT
$pdata$??0_Iterator_base12@std@@QEAA@XZ DD imagerel $LN3
	DD	imagerel $LN3+101
	DD	imagerel $unwind$??0_Iterator_base12@std@@QEAA@XZ
pdata	ENDS
;	COMDAT pdata
pdata	SEGMENT
$pdata$??1_Iterator_base12@std@@QEAA@XZ DD imagerel $LN3
	DD	imagerel $LN3+155
	DD	imagerel $unwind$??1_Iterator_base12@std@@QEAA@XZ
pdata	ENDS
;	COMDAT pdata
pdata	SEGMENT
$pdata$?_Adopt@_Iterator_base12@std@@QEAAXPEBU_Container_base12@2@@Z DD imagerel $LN6
	DD	imagerel $LN6+290
	DD	imagerel $unwind$?_Adopt@_Iterator_base12@std@@QEAAXPEBU_Container_base12@2@@Z
pdata	ENDS
;	COMDAT pdata
pdata	SEGMENT
$pdata$?_Getcont@_Iterator_base12@std@@QEBAPEBU_Container_base12@2@XZ DD imagerel $LN5
	DD	imagerel $LN5+118
	DD	imagerel $unwind$?_Getcont@_Iterator_base12@std@@QEBAPEBU_Container_base12@2@XZ
pdata	ENDS
;	COMDAT pdata
pdata	SEGMENT
$pdata$?_Orphan_me@_Iterator_base12@std@@QEAAXXZ DD imagerel $LN15
	DD	imagerel $LN15+302
	DD	imagerel $unwind$?_Orphan_me@_Iterator_base12@std@@QEAAXXZ
pdata	ENDS
;	COMDAT pdata
pdata	SEGMENT
$pdata$?_Release@_Basic_container_proxy_ptr12@std@@QEAAXXZ DD imagerel $LN3
	DD	imagerel $LN3+79
	DD	imagerel $unwind$?_Release@_Basic_container_proxy_ptr12@std@@QEAAXXZ
pdata	ENDS
;	COMDAT pdata
pdata	SEGMENT
$pdata$??$addressof@U_Container_base12@std@@@std@@YAPEAU_Container_base12@0@AEAU10@@Z DD imagerel $LN3
	DD	imagerel $LN3+72
	DD	imagerel $unwind$??$addressof@U_Container_base12@std@@@std@@YAPEAU_Container_base12@0@AEAU10@@Z
pdata	ENDS
;	COMDAT pdata
pdata	SEGMENT
$pdata$??0?$allocator@D@std@@QEAA@XZ DD imagerel $LN3
	DD	imagerel $LN3+72
	DD	imagerel $unwind$??0?$allocator@D@std@@QEAA@XZ
pdata	ENDS
;	COMDAT pdata
pdata	SEGMENT
$pdata$?deallocate@?$allocator@D@std@@QEAAXQEAD_K@Z DD imagerel $LN3
	DD	imagerel $LN3+93
	DD	imagerel $unwind$?deallocate@?$allocator@D@std@@QEAAXQEAD_K@Z
pdata	ENDS
;	COMDAT pdata
pdata	SEGMENT
$pdata$?allocate@?$allocator@D@std@@QEAAPEAD_K@Z DD imagerel $LN3
	DD	imagerel $LN3+89
	DD	imagerel $unwind$?allocate@?$allocator@D@std@@QEAAPEAD_K@Z
pdata	ENDS
;	COMDAT pdata
pdata	SEGMENT
$pdata$?compare@?$_Narrow_char_traits@DH@std@@SAHQEBD0_K@Z DD imagerel $LN3
	DD	imagerel $LN3+102
	DD	imagerel $unwind$?compare@?$_Narrow_char_traits@DH@std@@SAHQEBD0_K@Z
pdata	ENDS
;	COMDAT pdata
pdata	SEGMENT
$pdata$?length@?$_Narrow_char_traits@DH@std@@SA_KQEBD@Z DD imagerel $LN4
	DD	imagerel $LN4+124
	DD	imagerel $unwind$?length@?$_Narrow_char_traits@DH@std@@SA_KQEBD@Z
pdata	ENDS
;	COMDAT pdata
pdata	SEGMENT
$pdata$?copy@?$_Narrow_char_traits@DH@std@@SAPEADQEADQEBD_K@Z DD imagerel $LN3
	DD	imagerel $LN3+102
	DD	imagerel $unwind$?copy@?$_Narrow_char_traits@DH@std@@SAPEADQEADQEBD_K@Z
pdata	ENDS
;	COMDAT pdata
pdata	SEGMENT
$pdata$?move@?$_Narrow_char_traits@DH@std@@SAPEADQEADQEBD_K@Z DD imagerel $LN3
	DD	imagerel $LN3+102
	DD	imagerel $unwind$?move@?$_Narrow_char_traits@DH@std@@SAPEADQEADQEBD_K@Z
pdata	ENDS
;	COMDAT pdata
pdata	SEGMENT
$pdata$?assign@?$_Narrow_char_traits@DH@std@@SAXAEADAEBD@Z DD imagerel $LN3
	DD	imagerel $LN3+89
	DD	imagerel $unwind$?assign@?$_Narrow_char_traits@DH@std@@SAXAEADAEBD@Z
pdata	ENDS
;	COMDAT pdata
pdata	SEGMENT
$pdata$?to_char_type@?$_Narrow_char_traits@DH@std@@SADAEBH@Z DD imagerel $LN3
	DD	imagerel $LN3+75
	DD	imagerel $unwind$?to_char_type@?$_Narrow_char_traits@DH@std@@SADAEBH@Z
pdata	ENDS
;	COMDAT pdata
pdata	SEGMENT
$pdata$?to_int_type@?$_Narrow_char_traits@DH@std@@SAHAEBD@Z DD imagerel $LN3
	DD	imagerel $LN3+75
	DD	imagerel $unwind$?to_int_type@?$_Narrow_char_traits@DH@std@@SAHAEBD@Z
pdata	ENDS
;	COMDAT pdata
pdata	SEGMENT
$pdata$?eq_int_type@?$_Narrow_char_traits@DH@std@@SA_NAEBH0@Z DD imagerel $LN5
	DD	imagerel $LN5+119
	DD	imagerel $unwind$?eq_int_type@?$_Narrow_char_traits@DH@std@@SA_NAEBH0@Z
pdata	ENDS
;	COMDAT pdata
pdata	SEGMENT
$pdata$?eof@?$_Narrow_char_traits@DH@std@@SAHXZ DD imagerel $LN3
	DD	imagerel $LN3+58
	DD	imagerel $unwind$?eof@?$_Narrow_char_traits@DH@std@@SAHXZ
pdata	ENDS
;	COMDAT pdata
pdata	SEGMENT
$pdata$??$_Min_value@_K@std@@YAAEB_KAEB_K0@Z DD imagerel $LN5
	DD	imagerel $LN5+143
	DD	imagerel $unwind$??$_Min_value@_K@std@@YAAEB_KAEB_K0@Z
pdata	ENDS
;	COMDAT pdata
pdata	SEGMENT
$pdata$?max_size@?$_Default_allocator_traits@V?$allocator@D@std@@@std@@SA_KAEBV?$allocator@D@2@@Z DD imagerel $LN3
	DD	imagerel $LN3+72
	DD	imagerel $unwind$?max_size@?$_Default_allocator_traits@V?$allocator@D@std@@@std@@SA_KAEBV?$allocator@D@2@@Z
pdata	ENDS
;	COMDAT pdata
pdata	SEGMENT
$pdata$?select_on_container_copy_construction@?$_Default_allocator_traits@V?$allocator@D@std@@@std@@SA?AV?$allocator@D@2@AEBV32@@Z DD imagerel $LN3
	DD	imagerel $LN3+76
	DD	imagerel $unwind$?select_on_container_copy_construction@?$_Default_allocator_traits@V?$allocator@D@std@@@std@@SA?AV?$allocator@D@2@AEBV32@@Z
pdata	ENDS
;	COMDAT pdata
pdata	SEGMENT
$pdata$??0?$_String_val@U?$_Simple_types@D@std@@@std@@QEAA@XZ DD imagerel $LN4
	DD	imagerel $LN4+132
	DD	imagerel $unwind$??0?$_String_val@U?$_Simple_types@D@std@@@std@@QEAA@XZ
pdata	ENDS
;	COMDAT pdata
pdata	SEGMENT
$pdata$?_Myptr@?$_String_val@U?$_Simple_types@D@std@@@std@@QEAAPEADXZ DD imagerel $LN4
	DD	imagerel $LN4+122
	DD	imagerel $unwind$?_Myptr@?$_String_val@U?$_Simple_types@D@std@@@std@@QEAAPEADXZ
pdata	ENDS
;	COMDAT pdata
pdata	SEGMENT
$pdata$?_Myptr@?$_String_val@U?$_Simple_types@D@std@@@std@@QEBAPEBDXZ DD imagerel $LN4
	DD	imagerel $LN4+122
	DD	imagerel $unwind$?_Myptr@?$_String_val@U?$_Simple_types@D@std@@@std@@QEBAPEBDXZ
pdata	ENDS
;	COMDAT pdata
pdata	SEGMENT
$pdata$?_Large_string_engaged@?$_String_val@U?$_Simple_types@D@std@@@std@@QEBA_NXZ DD imagerel $LN5
	DD	imagerel $LN5+107
	DD	imagerel $unwind$?_Large_string_engaged@?$_String_val@U?$_Simple_types@D@std@@@std@@QEBA_NXZ
pdata	ENDS
;	COMDAT pdata
pdata	SEGMENT
$pdata$?_Check_offset@?$_String_val@U?$_Simple_types@D@std@@@std@@QEBAX_K@Z DD imagerel $LN4
	DD	imagerel $LN4+94
	DD	imagerel $unwind$?_Check_offset@?$_String_val@U?$_Simple_types@D@std@@@std@@QEBAX_K@Z
pdata	ENDS
;	COMDAT pdata
pdata	SEGMENT
$pdata$?_Xran@?$_String_val@U?$_Simple_types@D@std@@@std@@SAXXZ DD imagerel $LN3
	DD	imagerel $LN3+64
	DD	imagerel $unwind$?_Xran@?$_String_val@U?$_Simple_types@D@std@@@std@@SAXXZ
pdata	ENDS
;	COMDAT pdata
pdata	SEGMENT
$pdata$??0_Bxty@?$_String_val@U?$_Simple_types@D@std@@@std@@QEAA@XZ DD imagerel $LN3
	DD	imagerel $LN3+71
	DD	imagerel $unwind$??0_Bxty@?$_String_val@U?$_Simple_types@D@std@@@std@@QEAA@XZ
pdata	ENDS
;	COMDAT pdata
pdata	SEGMENT
$pdata$??1_Bxty@?$_String_val@U?$_Simple_types@D@std@@@std@@QEAA@XZ DD imagerel $LN3
	DD	imagerel $LN3+65
	DD	imagerel $unwind$??1_Bxty@?$_String_val@U?$_Simple_types@D@std@@@std@@QEAA@XZ
pdata	ENDS
;	COMDAT pdata
pdata	SEGMENT
$pdata$??1?$_String_val@U?$_Simple_types@D@std@@@std@@QEAA@XZ DD imagerel $LN3
	DD	imagerel $LN3+71
	DD	imagerel $unwind$??1?$_String_val@U?$_Simple_types@D@std@@@std@@QEAA@XZ
pdata	ENDS
;	COMDAT pdata
pdata	SEGMENT
$pdata$??0?$basic_string@DU?$char_traits@D@std@@V?$allocator@D@2@@std@@QEAA@AEBV01@@Z DD imagerel $LN5
	DD	imagerel $LN5+313
	DD	imagerel $unwind$??0?$basic_string@DU?$char_traits@D@std@@V?$allocator@D@2@@std@@QEAA@AEBV01@@Z
pdata	ENDS
;	COMDAT pdata
pdata	SEGMENT
$pdata$?dtor$0@?0???0?$basic_string@DU?$char_traits@D@std@@V?$allocator@D@2@@std@@QEAA@AEBV01@@Z@4HA DD imagerel ?dtor$0@?0???0?$basic_string@DU?$char_traits@D@std@@V?$allocator@D@2@@std@@QEAA@AEBV01@@Z@4HA
	DD	imagerel ?dtor$0@?0???0?$basic_string@DU?$char_traits@D@std@@V?$allocator@D@2@@std@@QEAA@AEBV01@@Z@4HA+39
	DD	imagerel $unwind$?dtor$0@?0???0?$basic_string@DU?$char_traits@D@std@@V?$allocator@D@2@@std@@QEAA@AEBV01@@Z@4HA
pdata	ENDS
;	COMDAT pdata
pdata	SEGMENT
$pdata$?dtor$1@?0???0?$basic_string@DU?$char_traits@D@std@@V?$allocator@D@2@@std@@QEAA@AEBV01@@Z@4HA DD imagerel ?dtor$1@?0???0?$basic_string@DU?$char_traits@D@std@@V?$allocator@D@2@@std@@QEAA@AEBV01@@Z@4HA
	DD	imagerel ?dtor$1@?0???0?$basic_string@DU?$char_traits@D@std@@V?$allocator@D@2@@std@@QEAA@AEBV01@@Z@4HA+36
	DD	imagerel $unwind$?dtor$1@?0???0?$basic_string@DU?$char_traits@D@std@@V?$allocator@D@2@@std@@QEAA@AEBV01@@Z@4HA
pdata	ENDS
;	COMDAT pdata
pdata	SEGMENT
$pdata$??0?$basic_string@DU?$char_traits@D@std@@V?$allocator@D@2@@std@@QEAA@XZ DD imagerel $LN3
	DD	imagerel $LN3+178
	DD	imagerel $unwind$??0?$basic_string@DU?$char_traits@D@std@@V?$allocator@D@2@@std@@QEAA@XZ
pdata	ENDS
;	COMDAT pdata
pdata	SEGMENT
$pdata$??0?$basic_string@DU?$char_traits@D@std@@V?$allocator@D@2@@std@@QEAA@QEBD@Z DD imagerel $LN5
	DD	imagerel $LN5+271
	DD	imagerel $unwind$??0?$basic_string@DU?$char_traits@D@std@@V?$allocator@D@2@@std@@QEAA@QEBD@Z
pdata	ENDS
;	COMDAT pdata
pdata	SEGMENT
$pdata$?dtor$0@?0???0?$basic_string@DU?$char_traits@D@std@@V?$allocator@D@2@@std@@QEAA@QEBD@Z@4HA DD imagerel ?dtor$0@?0???0?$basic_string@DU?$char_traits@D@std@@V?$allocator@D@2@@std@@QEAA@QEBD@Z@4HA
	DD	imagerel ?dtor$0@?0???0?$basic_string@DU?$char_traits@D@std@@V?$allocator@D@2@@std@@QEAA@QEBD@Z@4HA+39
	DD	imagerel $unwind$?dtor$0@?0???0?$basic_string@DU?$char_traits@D@std@@V?$allocator@D@2@@std@@QEAA@QEBD@Z@4HA
pdata	ENDS
;	COMDAT pdata
pdata	SEGMENT
$pdata$?dtor$1@?0???0?$basic_string@DU?$char_traits@D@std@@V?$allocator@D@2@@std@@QEAA@QEBD@Z@4HA DD imagerel ?dtor$1@?0???0?$basic_string@DU?$char_traits@D@std@@V?$allocator@D@2@@std@@QEAA@QEBD@Z@4HA
	DD	imagerel ?dtor$1@?0???0?$basic_string@DU?$char_traits@D@std@@V?$allocator@D@2@@std@@QEAA@QEBD@Z@4HA+36
	DD	imagerel $unwind$?dtor$1@?0???0?$basic_string@DU?$char_traits@D@std@@V?$allocator@D@2@@std@@QEAA@QEBD@Z@4HA
pdata	ENDS
;	COMDAT pdata
pdata	SEGMENT
$pdata$??0?$basic_string@DU?$char_traits@D@std@@V?$allocator@D@2@@std@@QEAA@$$QEAV01@@Z DD imagerel $LN3
	DD	imagerel $LN3+266
	DD	imagerel $unwind$??0?$basic_string@DU?$char_traits@D@std@@V?$allocator@D@2@@std@@QEAA@$$QEAV01@@Z
pdata	ENDS
;	COMDAT pdata
pdata	SEGMENT
$pdata$?_Move_assign@?$basic_string@DU?$char_traits@D@std@@V?$allocator@D@2@@std@@AEAAXAEAV12@U_Equal_allocators@2@@Z DD imagerel $LN3
	DD	imagerel $LN3+195
	DD	imagerel $unwind$?_Move_assign@?$basic_string@DU?$char_traits@D@std@@V?$allocator@D@2@@std@@AEAAXAEAV12@U_Equal_allocators@2@@Z
pdata	ENDS
;	COMDAT pdata
pdata	SEGMENT
$pdata$??4?$basic_string@DU?$char_traits@D@std@@V?$allocator@D@2@@std@@QEAAAEAV01@$$QEAV01@@Z DD imagerel $LN4
	DD	imagerel $LN4+146
	DD	imagerel $unwind$??4?$basic_string@DU?$char_traits@D@std@@V?$allocator@D@2@@std@@QEAAAEAV01@$$QEAV01@@Z
pdata	ENDS
;	COMDAT pdata
pdata	SEGMENT
$pdata$?_Memcpy_val_from@?$basic_string@DU?$char_traits@D@std@@V?$allocator@D@2@@std@@AEAAXAEBV12@@Z DD imagerel $LN3
	DD	imagerel $LN3+138
	DD	imagerel $unwind$?_Memcpy_val_from@?$basic_string@DU?$char_traits@D@std@@V?$allocator@D@2@@std@@AEAAXAEBV12@@Z
pdata	ENDS
;	COMDAT pdata
pdata	SEGMENT
$pdata$?_Take_contents@?$basic_string@DU?$char_traits@D@std@@V?$allocator@D@2@@std@@AEAAXAEAV12@U?$integral_constant@_N$00@2@@Z DD imagerel $LN5
	DD	imagerel $LN5+169
	DD	imagerel $unwind$?_Take_contents@?$basic_string@DU?$char_traits@D@std@@V?$allocator@D@2@@std@@AEAAXAEAV12@U?$integral_constant@_N$00@2@@Z
pdata	ENDS
;	COMDAT pdata
pdata	SEGMENT
$pdata$?_Construct_lv_contents@?$basic_string@DU?$char_traits@D@std@@V?$allocator@D@2@@std@@AEAAXAEBV12@@Z DD imagerel $LN4
	DD	imagerel $LN4+438
	DD	imagerel $unwind$?_Construct_lv_contents@?$basic_string@DU?$char_traits@D@std@@V?$allocator@D@2@@std@@AEAAXAEBV12@@Z
pdata	ENDS
;	COMDAT pdata
pdata	SEGMENT
$pdata$??1?$basic_string@DU?$char_traits@D@std@@V?$allocator@D@2@@std@@QEAA@XZ DD imagerel $LN3
	DD	imagerel $LN3+220
	DD	imagerel $unwind$??1?$basic_string@DU?$char_traits@D@std@@V?$allocator@D@2@@std@@QEAA@XZ
pdata	ENDS
;	COMDAT pdata
pdata	SEGMENT
$pdata$?_Copy_assign@?$basic_string@DU?$char_traits@D@std@@V?$allocator@D@2@@std@@AEAAXAEBV12@U?$integral_constant@_N$0A@@2@@Z DD imagerel $LN3
	DD	imagerel $LN3+197
	DD	imagerel $unwind$?_Copy_assign@?$basic_string@DU?$char_traits@D@std@@V?$allocator@D@2@@std@@AEAAXAEBV12@U?$integral_constant@_N$0A@@2@@Z
pdata	ENDS
;	COMDAT pdata
pdata	SEGMENT
$pdata$??4?$basic_string@DU?$char_traits@D@std@@V?$allocator@D@2@@std@@QEAAAEAV01@AEBV01@@Z DD imagerel $LN4
	DD	imagerel $LN4+143
	DD	imagerel $unwind$??4?$basic_string@DU?$char_traits@D@std@@V?$allocator@D@2@@std@@QEAAAEAV01@AEBV01@@Z
pdata	ENDS
;	COMDAT pdata
pdata	SEGMENT
$pdata$??Y?$basic_string@DU?$char_traits@D@std@@V?$allocator@D@2@@std@@QEAAAEAV01@D@Z DD imagerel $LN3
	DD	imagerel $LN3+94
	DD	imagerel $unwind$??Y?$basic_string@DU?$char_traits@D@std@@V?$allocator@D@2@@std@@QEAAAEAV01@D@Z
pdata	ENDS
;	COMDAT pdata
pdata	SEGMENT
$pdata$?assign@?$basic_string@DU?$char_traits@D@std@@V?$allocator@D@2@@std@@QEAAAEAV12@QEBD_K@Z DD imagerel $LN4
	DD	imagerel $LN4+255
	DD	imagerel $unwind$?assign@?$basic_string@DU?$char_traits@D@std@@V?$allocator@D@2@@std@@QEAAAEAV12@QEBD_K@Z
pdata	ENDS
;	COMDAT pdata
pdata	SEGMENT
$pdata$?assign@?$basic_string@DU?$char_traits@D@std@@V?$allocator@D@2@@std@@QEAAAEAV12@QEBD@Z DD imagerel $LN3
	DD	imagerel $LN3+111
	DD	imagerel $unwind$?assign@?$basic_string@DU?$char_traits@D@std@@V?$allocator@D@2@@std@@QEAAAEAV12@QEBD@Z
pdata	ENDS
;	COMDAT pdata
pdata	SEGMENT
$pdata$?erase@?$basic_string@DU?$char_traits@D@std@@V?$allocator@D@2@@std@@QEAAAEAV12@_K@Z DD imagerel $LN3
	DD	imagerel $LN3+128
	DD	imagerel $unwind$?erase@?$basic_string@DU?$char_traits@D@std@@V?$allocator@D@2@@std@@QEAAAEAV12@_K@Z
pdata	ENDS
;	COMDAT pdata
pdata	SEGMENT
$pdata$?push_back@?$basic_string@DU?$char_traits@D@std@@V?$allocator@D@2@@std@@QEAAXD@Z DD imagerel $LN4
	DD	imagerel $LN4+255
	DD	imagerel $unwind$?push_back@?$basic_string@DU?$char_traits@D@std@@V?$allocator@D@2@@std@@QEAAXD@Z
pdata	ENDS
;	COMDAT pdata
pdata	SEGMENT
$pdata$?data@?$basic_string@DU?$char_traits@D@std@@V?$allocator@D@2@@std@@QEBAPEBDXZ DD imagerel $LN3
	DD	imagerel $LN3+81
	DD	imagerel $unwind$?data@?$basic_string@DU?$char_traits@D@std@@V?$allocator@D@2@@std@@QEBAPEBDXZ
pdata	ENDS
;	COMDAT pdata
pdata	SEGMENT
$pdata$?size@?$basic_string@DU?$char_traits@D@std@@V?$allocator@D@2@@std@@QEBA_KXZ DD imagerel $LN3
	DD	imagerel $LN3+76
	DD	imagerel $unwind$?size@?$basic_string@DU?$char_traits@D@std@@V?$allocator@D@2@@std@@QEBA_KXZ
pdata	ENDS
;	COMDAT pdata
pdata	SEGMENT
$pdata$?max_size@?$basic_string@DU?$char_traits@D@std@@V?$allocator@D@2@@std@@QEBA_KXZ DD imagerel $LN3
	DD	imagerel $LN3+232
	DD	imagerel $unwind$?max_size@?$basic_string@DU?$char_traits@D@std@@V?$allocator@D@2@@std@@QEBA_KXZ
pdata	ENDS
;	COMDAT pdata
pdata	SEGMENT
$pdata$?_Equal@?$basic_string@DU?$char_traits@D@std@@V?$allocator@D@2@@std@@QEBA_NAEBV12@@Z DD imagerel $LN3
	DD	imagerel $LN3+186
	DD	imagerel $unwind$?_Equal@?$basic_string@DU?$char_traits@D@std@@V?$allocator@D@2@@std@@QEBA_NAEBV12@@Z
pdata	ENDS
;	COMDAT pdata
pdata	SEGMENT
$pdata$?_Calculate_growth@?$basic_string@DU?$char_traits@D@std@@V?$allocator@D@2@@std@@CA_K_K00@Z DD imagerel $LN5
	DD	imagerel $LN5+273
	DD	imagerel $unwind$?_Calculate_growth@?$basic_string@DU?$char_traits@D@std@@V?$allocator@D@2@@std@@CA_K_K00@Z
pdata	ENDS
;	COMDAT pdata
pdata	SEGMENT
$pdata$?_Calculate_growth@?$basic_string@DU?$char_traits@D@std@@V?$allocator@D@2@@std@@AEBA_K_K@Z DD imagerel $LN3
	DD	imagerel $LN3+135
	DD	imagerel $unwind$?_Calculate_growth@?$basic_string@DU?$char_traits@D@std@@V?$allocator@D@2@@std@@AEBA_K_K@Z
pdata	ENDS
;	COMDAT pdata
pdata	SEGMENT
$pdata$?_Eos@?$basic_string@DU?$char_traits@D@std@@V?$allocator@D@2@@std@@AEAAX_K@Z DD imagerel $LN3
	DD	imagerel $LN3+165
	DD	imagerel $unwind$?_Eos@?$basic_string@DU?$char_traits@D@std@@V?$allocator@D@2@@std@@AEAAX_K@Z
pdata	ENDS
;	COMDAT pdata
pdata	SEGMENT
$pdata$?_Tidy_init@?$basic_string@DU?$char_traits@D@std@@V?$allocator@D@2@@std@@AEAAXXZ DD imagerel $LN3
	DD	imagerel $LN3+139
	DD	imagerel $unwind$?_Tidy_init@?$basic_string@DU?$char_traits@D@std@@V?$allocator@D@2@@std@@AEAAXXZ
pdata	ENDS
;	COMDAT pdata
pdata	SEGMENT
$pdata$?_Tidy_deallocate@?$basic_string@DU?$char_traits@D@std@@V?$allocator@D@2@@std@@AEAAXXZ DD imagerel $LN4
	DD	imagerel $LN4+261
	DD	imagerel $unwind$?_Tidy_deallocate@?$basic_string@DU?$char_traits@D@std@@V?$allocator@D@2@@std@@AEAAXXZ
pdata	ENDS
;	COMDAT pdata
pdata	SEGMENT
$pdata$?_Xlen@?$basic_string@DU?$char_traits@D@std@@V?$allocator@D@2@@std@@CAXXZ DD imagerel $LN3
	DD	imagerel $LN3+64
	DD	imagerel $unwind$?_Xlen@?$basic_string@DU?$char_traits@D@std@@V?$allocator@D@2@@std@@CAXXZ
pdata	ENDS
;	COMDAT pdata
pdata	SEGMENT
$pdata$?_Swap_proxy_and_iterators@?$basic_string@DU?$char_traits@D@std@@V?$allocator@D@2@@std@@AEAAXAEAV12@@Z DD imagerel $LN3
	DD	imagerel $LN3+105
	DD	imagerel $unwind$?_Swap_proxy_and_iterators@?$basic_string@DU?$char_traits@D@std@@V?$allocator@D@2@@std@@AEAAXAEAV12@@Z
pdata	ENDS
;	COMDAT pdata
pdata	SEGMENT
$pdata$?_Getal@?$basic_string@DU?$char_traits@D@std@@V?$allocator@D@2@@std@@AEAAAEAV?$allocator@D@2@XZ DD imagerel $LN3
	DD	imagerel $LN3+81
	DD	imagerel $unwind$?_Getal@?$basic_string@DU?$char_traits@D@std@@V?$allocator@D@2@@std@@AEAAAEAV?$allocator@D@2@XZ
pdata	ENDS
;	COMDAT pdata
pdata	SEGMENT
$pdata$?_Getal@?$basic_string@DU?$char_traits@D@std@@V?$allocator@D@2@@std@@AEBAAEBV?$allocator@D@2@XZ DD imagerel $LN3
	DD	imagerel $LN3+81
	DD	imagerel $unwind$?_Getal@?$basic_string@DU?$char_traits@D@std@@V?$allocator@D@2@@std@@AEBAAEBV?$allocator@D@2@XZ
pdata	ENDS
;	COMDAT pdata
pdata	SEGMENT
$pdata$?_Get_first@?$_Compressed_pair@V?$allocator@D@std@@V?$_String_val@U?$_Simple_types@D@std@@@2@$00@std@@QEAAAEAV?$allocator@D@2@XZ DD imagerel $LN3
	DD	imagerel $LN3+72
	DD	imagerel $unwind$?_Get_first@?$_Compressed_pair@V?$allocator@D@std@@V?$_String_val@U?$_Simple_types@D@std@@@2@$00@std@@QEAAAEAV?$allocator@D@2@XZ
pdata	ENDS
;	COMDAT pdata
pdata	SEGMENT
$pdata$?_Get_first@?$_Compressed_pair@V?$allocator@D@std@@V?$_String_val@U?$_Simple_types@D@std@@@2@$00@std@@QEBAAEBV?$allocator@D@2@XZ DD imagerel $LN3
	DD	imagerel $LN3+72
	DD	imagerel $unwind$?_Get_first@?$_Compressed_pair@V?$allocator@D@std@@V?$_String_val@U?$_Simple_types@D@std@@@2@$00@std@@QEBAAEBV?$allocator@D@2@XZ
pdata	ENDS
;	COMDAT pdata
pdata	SEGMENT
$pdata$??1?$_Compressed_pair@V?$allocator@D@std@@V?$_String_val@U?$_Simple_types@D@std@@@2@$00@std@@QEAA@XZ DD imagerel $LN3
	DD	imagerel $LN3+67
	DD	imagerel $unwind$??1?$_Compressed_pair@V?$allocator@D@std@@V?$_String_val@U?$_Simple_types@D@std@@@2@$00@std@@QEAA@XZ
pdata	ENDS
;	COMDAT pdata
pdata	SEGMENT
$pdata$??0bad_cast@std@@QEAA@XZ DD imagerel $LN3
	DD	imagerel $LN3+115
	DD	imagerel $unwind$??0bad_cast@std@@QEAA@XZ
pdata	ENDS
;	COMDAT pdata
pdata	SEGMENT
$pdata$??1bad_cast@std@@UEAA@XZ DD imagerel $LN3
	DD	imagerel $LN3+64
	DD	imagerel $unwind$??1bad_cast@std@@UEAA@XZ
pdata	ENDS
;	COMDAT pdata
pdata	SEGMENT
$pdata$??0bad_cast@std@@QEAA@AEBV01@@Z DD imagerel $LN3
	DD	imagerel $LN3+100
	DD	imagerel $unwind$??0bad_cast@std@@QEAA@AEBV01@@Z
pdata	ENDS
;	COMDAT pdata
pdata	SEGMENT
$pdata$??_Gbad_cast@std@@UEAAPEAXI@Z DD imagerel $LN4
	DD	imagerel $LN4+105
	DD	imagerel $unwind$??_Gbad_cast@std@@UEAAPEAXI@Z
pdata	ENDS
;	COMDAT pdata
pdata	SEGMENT
$pdata$?_Throw_bad_cast@std@@YAXXZ DD imagerel $LN3
	DD	imagerel $LN3+83
	DD	imagerel $unwind$?_Throw_bad_cast@std@@YAXXZ
pdata	ENDS
;	COMDAT pdata
pdata	SEGMENT
$pdata$??1locale@std@@QEAA@XZ DD imagerel $LN6
	DD	imagerel $LN6+184
	DD	imagerel $unwind$??1locale@std@@QEAA@XZ
pdata	ENDS
;	COMDAT pdata
pdata	SEGMENT
$pdata$?_Getfacet@locale@std@@QEBAPEBVfacet@12@_K@Z DD imagerel $LN8
	DD	imagerel $LN8+231
	DD	imagerel $unwind$?_Getfacet@locale@std@@QEBAPEBVfacet@12@_K@Z
pdata	ENDS
;	COMDAT pdata
pdata	SEGMENT
$pdata$??R?$default_delete@V_Facet_base@std@@@std@@QEBAXPEAV_Facet_base@1@@Z DD imagerel $LN5
	DD	imagerel $LN5+153
	DD	imagerel $unwind$??R?$default_delete@V_Facet_base@std@@@std@@QEBAXPEAV_Facet_base@1@@Z
pdata	ENDS
;	COMDAT pdata
pdata	SEGMENT
$pdata$??1?$unique_ptr@V_Facet_base@std@@U?$default_delete@V_Facet_base@std@@@2@@std@@QEAA@XZ DD imagerel $LN4
	DD	imagerel $LN4+138
	DD	imagerel $unwind$??1?$unique_ptr@V_Facet_base@std@@U?$default_delete@V_Facet_base@std@@@2@@std@@QEAA@XZ
pdata	ENDS
;	COMDAT pdata
pdata	SEGMENT
$pdata$?release@?$unique_ptr@V_Facet_base@std@@U?$default_delete@V_Facet_base@std@@@2@@std@@QEAAPEAV_Facet_base@2@XZ DD imagerel $LN3
	DD	imagerel $LN3+99
	DD	imagerel $unwind$?release@?$unique_ptr@V_Facet_base@std@@U?$default_delete@V_Facet_base@std@@@2@@std@@QEAAPEAV_Facet_base@2@XZ
pdata	ENDS
;	COMDAT pdata
pdata	SEGMENT
$pdata$?_Get_first@?$_Compressed_pair@U?$default_delete@V_Facet_base@std@@@std@@PEAV_Facet_base@2@$00@std@@QEAAAEAU?$default_delete@V_Facet_base@std@@@2@XZ DD imagerel $LN3
	DD	imagerel $LN3+72
	DD	imagerel $unwind$?_Get_first@?$_Compressed_pair@U?$default_delete@V_Facet_base@std@@@std@@PEAV_Facet_base@2@$00@std@@QEAAAEAU?$default_delete@V_Facet_base@std@@@2@XZ
pdata	ENDS
;	COMDAT pdata
pdata	SEGMENT
$pdata$?__autoclassinit2@?$unique_ptr@V_Facet_base@std@@U?$default_delete@V_Facet_base@std@@@2@@std@@QEAAX_K@Z DD imagerel $LN3
	DD	imagerel $LN3+73
	DD	imagerel $unwind$?__autoclassinit2@?$unique_ptr@V_Facet_base@std@@U?$default_delete@V_Facet_base@std@@@2@@std@@QEAAX_K@Z
pdata	ENDS
;	COMDAT pdata
pdata	SEGMENT
$pdata$??$_Maklocstr@_W@std@@YAPEA_WPEBDPEA_WAEBU_Cvtvec@@@Z DD imagerel $LN12
	DD	imagerel $LN12+584
	DD	imagerel $unwind$??$_Maklocstr@_W@std@@YAPEA_WPEBDPEA_WAEBU_Cvtvec@@@Z
pdata	ENDS
;	COMDAT pdata
pdata	SEGMENT
$pdata$?_Maklocwcs@std@@YAPEA_WPEB_W@Z DD imagerel $LN4
	DD	imagerel $LN4+165
	DD	imagerel $unwind$?_Maklocwcs@std@@YAPEA_WPEB_W@Z
pdata	ENDS
;	COMDAT pdata
pdata	SEGMENT
$pdata$??$_Maklocstr@D@std@@YAPEADPEBDPEADAEBU_Cvtvec@@@Z DD imagerel $LN7
	DD	imagerel $LN7+223
	DD	imagerel $unwind$??$_Maklocstr@D@std@@YAPEADPEBDPEADAEBU_Cvtvec@@@Z
pdata	ENDS
;	COMDAT pdata
pdata	SEGMENT
$pdata$??0?$allocator@I@std@@QEAA@XZ DD imagerel $LN3
	DD	imagerel $LN3+72
	DD	imagerel $unwind$??0?$allocator@I@std@@QEAA@XZ
pdata	ENDS
;	COMDAT pdata
pdata	SEGMENT
$pdata$?deallocate@?$allocator@I@std@@QEAAXQEAI_K@Z DD imagerel $LN3
	DD	imagerel $LN3+100
	DD	imagerel $unwind$?deallocate@?$allocator@I@std@@QEAAXQEAI_K@Z
pdata	ENDS
;	COMDAT pdata
pdata	SEGMENT
$pdata$??0?$vector@IV?$allocator@I@std@@@std@@QEAA@XZ DD imagerel $LN3
	DD	imagerel $LN3+165
	DD	imagerel $unwind$??0?$vector@IV?$allocator@I@std@@@std@@QEAA@XZ
pdata	ENDS
;	COMDAT pdata
pdata	SEGMENT
$pdata$?_Move_assign@?$vector@IV?$allocator@I@std@@@std@@AEAAXAEAV12@U_Equal_allocators@2@@Z DD imagerel $LN3
	DD	imagerel $LN3+185
	DD	imagerel $unwind$?_Move_assign@?$vector@IV?$allocator@I@std@@@std@@AEAAXAEAV12@U_Equal_allocators@2@@Z
pdata	ENDS
;	COMDAT pdata
pdata	SEGMENT
$pdata$??4?$vector@IV?$allocator@I@std@@@std@@QEAAAEAV01@$$QEAV01@@Z DD imagerel $LN4
	DD	imagerel $LN4+146
	DD	imagerel $unwind$??4?$vector@IV?$allocator@I@std@@@std@@QEAAAEAV01@$$QEAV01@@Z
pdata	ENDS
;	COMDAT pdata
pdata	SEGMENT
$pdata$??1?$vector@IV?$allocator@I@std@@@std@@QEAA@XZ DD imagerel $LN3
	DD	imagerel $LN3+209
	DD	imagerel $unwind$??1?$vector@IV?$allocator@I@std@@@std@@QEAA@XZ
pdata	ENDS
;	COMDAT pdata
pdata	SEGMENT
$pdata$?begin@?$vector@IV?$allocator@I@std@@@std@@QEAA?AV?$_Vector_iterator@V?$_Vector_val@U?$_Simple_types@I@std@@@std@@@2@XZ DD imagerel $LN3
	DD	imagerel $LN3+147
	DD	imagerel $unwind$?begin@?$vector@IV?$allocator@I@std@@@std@@QEAA?AV?$_Vector_iterator@V?$_Vector_val@U?$_Simple_types@I@std@@@std@@@2@XZ
pdata	ENDS
;	COMDAT pdata
pdata	SEGMENT
$pdata$?end@?$vector@IV?$allocator@I@std@@@std@@QEAA?AV?$_Vector_iterator@V?$_Vector_val@U?$_Simple_types@I@std@@@std@@@2@XZ DD imagerel $LN3
	DD	imagerel $LN3+147
	DD	imagerel $unwind$?end@?$vector@IV?$allocator@I@std@@@std@@QEAA?AV?$_Vector_iterator@V?$_Vector_val@U?$_Simple_types@I@std@@@std@@@2@XZ
pdata	ENDS
;	COMDAT pdata
pdata	SEGMENT
$pdata$?_Destroy@?$vector@IV?$allocator@I@std@@@std@@AEAAXPEAI0@Z DD imagerel $LN3
	DD	imagerel $LN3+108
	DD	imagerel $unwind$?_Destroy@?$vector@IV?$allocator@I@std@@@std@@AEAAXPEAI0@Z
pdata	ENDS
;	COMDAT pdata
pdata	SEGMENT
$pdata$?_Tidy@?$vector@IV?$allocator@I@std@@@std@@AEAAXXZ DD imagerel $LN4
	DD	imagerel $LN4+285
	DD	imagerel $unwind$?_Tidy@?$vector@IV?$allocator@I@std@@@std@@AEAAXXZ
pdata	ENDS
;	COMDAT pdata
pdata	SEGMENT
$pdata$?_Getal@?$vector@IV?$allocator@I@std@@@std@@AEAAAEAV?$allocator@I@2@XZ DD imagerel $LN3
	DD	imagerel $LN3+81
	DD	imagerel $unwind$?_Getal@?$vector@IV?$allocator@I@std@@@std@@AEAAAEAV?$allocator@I@2@XZ
pdata	ENDS
;	COMDAT pdata
pdata	SEGMENT
$pdata$??0?$_Vector_val@U?$_Simple_types@I@std@@@std@@QEAA@XZ DD imagerel $LN3
	DD	imagerel $LN3+128
	DD	imagerel $unwind$??0?$_Vector_val@U?$_Simple_types@I@std@@@std@@QEAA@XZ
pdata	ENDS
;	COMDAT pdata
pdata	SEGMENT
$pdata$?_Take_contents@?$_Vector_val@U?$_Simple_types@I@std@@@std@@QEAAXAEAV12@@Z DD imagerel $LN3
	DD	imagerel $LN3+201
	DD	imagerel $unwind$?_Take_contents@?$_Vector_val@U?$_Simple_types@I@std@@@std@@QEAAXAEAV12@@Z
pdata	ENDS
;	COMDAT pdata
pdata	SEGMENT
$pdata$?_Get_first@?$_Compressed_pair@V?$allocator@I@std@@V?$_Vector_val@U?$_Simple_types@I@std@@@2@$00@std@@QEAAAEAV?$allocator@I@2@XZ DD imagerel $LN3
	DD	imagerel $LN3+72
	DD	imagerel $unwind$?_Get_first@?$_Compressed_pair@V?$allocator@I@std@@V?$_Vector_val@U?$_Simple_types@I@std@@@2@$00@std@@QEAAAEAV?$allocator@I@2@XZ
pdata	ENDS
;	COMDAT pdata
pdata	SEGMENT
$pdata$?__autoclassinit2@?$vector@IV?$allocator@I@std@@@std@@QEAAX_K@Z DD imagerel $LN3
	DD	imagerel $LN3+73
	DD	imagerel $unwind$?__autoclassinit2@?$vector@IV?$allocator@I@std@@@std@@QEAAX_K@Z
pdata	ENDS
;	COMDAT pdata
pdata	SEGMENT
$pdata$?deallocate@?$allocator@USDL_Point@@@std@@QEAAXQEAUSDL_Point@@_K@Z DD imagerel $LN3
	DD	imagerel $LN3+100
	DD	imagerel $unwind$?deallocate@?$allocator@USDL_Point@@@std@@QEAAXQEAUSDL_Point@@_K@Z
pdata	ENDS
;	COMDAT pdata
pdata	SEGMENT
$pdata$??1?$vector@USDL_Point@@V?$allocator@USDL_Point@@@std@@@std@@QEAA@XZ DD imagerel $LN3
	DD	imagerel $LN3+209
	DD	imagerel $unwind$??1?$vector@USDL_Point@@V?$allocator@USDL_Point@@@std@@@std@@QEAA@XZ
pdata	ENDS
;	COMDAT pdata
pdata	SEGMENT
$pdata$?_Destroy@?$vector@USDL_Point@@V?$allocator@USDL_Point@@@std@@@std@@AEAAXPEAUSDL_Point@@0@Z DD imagerel $LN3
	DD	imagerel $LN3+108
	DD	imagerel $unwind$?_Destroy@?$vector@USDL_Point@@V?$allocator@USDL_Point@@@std@@@std@@AEAAXPEAUSDL_Point@@0@Z
pdata	ENDS
;	COMDAT pdata
pdata	SEGMENT
$pdata$?_Tidy@?$vector@USDL_Point@@V?$allocator@USDL_Point@@@std@@@std@@AEAAXXZ DD imagerel $LN4
	DD	imagerel $LN4+285
	DD	imagerel $unwind$?_Tidy@?$vector@USDL_Point@@V?$allocator@USDL_Point@@@std@@@std@@AEAAXXZ
pdata	ENDS
;	COMDAT pdata
pdata	SEGMENT
$pdata$?_Getal@?$vector@USDL_Point@@V?$allocator@USDL_Point@@@std@@@std@@AEAAAEAV?$allocator@USDL_Point@@@2@XZ DD imagerel $LN3
	DD	imagerel $LN3+81
	DD	imagerel $unwind$?_Getal@?$vector@USDL_Point@@V?$allocator@USDL_Point@@@std@@@std@@AEAAAEAV?$allocator@USDL_Point@@@2@XZ
pdata	ENDS
;	COMDAT pdata
pdata	SEGMENT
$pdata$?_Get_first@?$_Compressed_pair@V?$allocator@USDL_Point@@@std@@V?$_Vector_val@U?$_Simple_types@USDL_Point@@@std@@@2@$00@std@@QEAAAEAV?$allocator@USDL_Point@@@2@XZ DD imagerel $LN3
	DD	imagerel $LN3+72
	DD	imagerel $unwind$?_Get_first@?$_Compressed_pair@V?$allocator@USDL_Point@@@std@@V?$_Vector_val@U?$_Simple_types@USDL_Point@@@std@@@2@$00@std@@QEAAAEAV?$allocator@USDL_Point@@@2@XZ
pdata	ENDS
;	COMDAT pdata
pdata	SEGMENT
$pdata$??1Snake@@QEAA@XZ DD imagerel $LN3
	DD	imagerel $LN3+71
	DD	imagerel $unwind$??1Snake@@QEAA@XZ
pdata	ENDS
;	COMDAT pdata
pdata	SEGMENT
$pdata$?__autoclassinit2@PlayZone@@QEAAX_K@Z DD imagerel $LN3
	DD	imagerel $LN3+73
	DD	imagerel $unwind$?__autoclassinit2@PlayZone@@QEAAX_K@Z
pdata	ENDS
;	COMDAT pdata
pdata	SEGMENT
$pdata$??0UserCredentials@Persistence@technical_services_layer@@QEAA@XZ DD imagerel $LN3
	DD	imagerel $LN3+93
	DD	imagerel $unwind$??0UserCredentials@Persistence@technical_services_layer@@QEAA@XZ
pdata	ENDS
;	COMDAT pdata
pdata	SEGMENT
$pdata$??1UserCredentials@Persistence@technical_services_layer@@QEAA@XZ DD imagerel $LN3
	DD	imagerel $LN3+86
	DD	imagerel $unwind$??1UserCredentials@Persistence@technical_services_layer@@QEAA@XZ
pdata	ENDS
;	COMDAT pdata
pdata	SEGMENT
$pdata$??0UserCredentials@Persistence@technical_services_layer@@QEAA@AEBU012@@Z DD imagerel $LN5
	DD	imagerel $LN5+185
	DD	imagerel $unwind$??0UserCredentials@Persistence@technical_services_layer@@QEAA@AEBU012@@Z
pdata	ENDS
;	COMDAT pdata
pdata	SEGMENT
$pdata$?dtor$0@?0???0UserCredentials@Persistence@technical_services_layer@@QEAA@AEBU012@@Z@4HA DD imagerel ?dtor$0@?0???0UserCredentials@Persistence@technical_services_layer@@QEAA@AEBU012@@Z@4HA
	DD	imagerel ?dtor$0@?0???0UserCredentials@Persistence@technical_services_layer@@QEAA@AEBU012@@Z@4HA+39
	DD	imagerel $unwind$?dtor$0@?0???0UserCredentials@Persistence@technical_services_layer@@QEAA@AEBU012@@Z@4HA
pdata	ENDS
;	COMDAT pdata
pdata	SEGMENT
$pdata$??4UserCredentials@Persistence@technical_services_layer@@QEAAAEAU012@$$QEAU012@@Z DD imagerel $LN3
	DD	imagerel $LN3+156
	DD	imagerel $unwind$??4UserCredentials@Persistence@technical_services_layer@@QEAAAEAU012@$$QEAU012@@Z
pdata	ENDS
;	COMDAT pdata
pdata	SEGMENT
$pdata$??1Score@Persistence@technical_services_layer@@QEAA@XZ DD imagerel $LN3
	DD	imagerel $LN3+67
	DD	imagerel $unwind$??1Score@Persistence@technical_services_layer@@QEAA@XZ
pdata	ENDS
;	COMDAT pdata
pdata	SEGMENT
$pdata$??0Score@Persistence@technical_services_layer@@QEAA@$$QEAU012@@Z DD imagerel $LN3
	DD	imagerel $LN3+120
	DD	imagerel $unwind$??0Score@Persistence@technical_services_layer@@QEAA@$$QEAU012@@Z
pdata	ENDS
;	COMDAT pdata
pdata	SEGMENT
$pdata$??4Score@Persistence@technical_services_layer@@QEAAAEAU012@$$QEAU012@@Z DD imagerel $LN3
	DD	imagerel $LN3+106
	DD	imagerel $unwind$??4Score@Persistence@technical_services_layer@@QEAAAEAU012@$$QEAU012@@Z
pdata	ENDS
;	COMDAT pdata
pdata	SEGMENT
$pdata$??_GScore@Persistence@technical_services_layer@@QEAAPEAXI@Z DD imagerel $LN4
	DD	imagerel $LN4+105
	DD	imagerel $unwind$??_GScore@Persistence@technical_services_layer@@QEAAPEAXI@Z
pdata	ENDS
;	COMDAT pdata
pdata	SEGMENT
$pdata$?__autoclassinit2@Player@player@domain_layer@@QEAAX_K@Z DD imagerel $LN3
	DD	imagerel $LN3+73
	DD	imagerel $unwind$?__autoclassinit2@Player@player@domain_layer@@QEAAX_K@Z
pdata	ENDS
;	COMDAT pdata
pdata	SEGMENT
$pdata$??1Game@@QEAA@XZ DD imagerel $LN3
	DD	imagerel $LN3+67
	DD	imagerel $unwind$??1Game@@QEAA@XZ
pdata	ENDS
;	COMDAT pdata
pdata	SEGMENT
$pdata$?__autoclassinit2@Game@@QEAAX_K@Z DD imagerel $LN3
	DD	imagerel $LN3+73
	DD	imagerel $unwind$?__autoclassinit2@Game@@QEAAX_K@Z
pdata	ENDS
;	COMDAT pdata
pdata	SEGMENT
$pdata$??__Ecolorize_index@_internal@termcolor@@YAXXZ DD imagerel ??__Ecolorize_index@_internal@termcolor@@YAXXZ
	DD	imagerel ??__Ecolorize_index@_internal@termcolor@@YAXXZ+64
	DD	imagerel $unwind$??__Ecolorize_index@_internal@termcolor@@YAXXZ
pdata	ENDS
;	COMDAT pdata
pdata	SEGMENT
$pdata$?get_standard_stream@_internal@termcolor@@YAPEAU_iobuf@@AEBV?$basic_ostream@DU?$char_traits@D@std@@@std@@@Z DD imagerel $LN7
	DD	imagerel $LN7+142
	DD	imagerel $unwind$?get_standard_stream@_internal@termcolor@@YAPEAU_iobuf@@AEBV?$basic_ostream@DU?$char_traits@D@std@@@std@@@Z
pdata	ENDS
;	COMDAT pdata
pdata	SEGMENT
$pdata$?is_colorized@_internal@termcolor@@YA_NAEAV?$basic_ostream@DU?$char_traits@D@std@@@std@@@Z DD imagerel $LN7
	DD	imagerel $LN7+197
	DD	imagerel $unwind$?is_colorized@_internal@termcolor@@YA_NAEAV?$basic_ostream@DU?$char_traits@D@std@@@std@@@Z
pdata	ENDS
;	COMDAT pdata
pdata	SEGMENT
$pdata$?is_atty@_internal@termcolor@@YA_NAEBV?$basic_ostream@DU?$char_traits@D@std@@@std@@@Z DD imagerel $LN6
	DD	imagerel $LN6+136
	DD	imagerel $unwind$?is_atty@_internal@termcolor@@YA_NAEBV?$basic_ostream@DU?$char_traits@D@std@@@std@@@Z
pdata	ENDS
;	COMDAT pdata
pdata	SEGMENT
$pdata$?win_change_attributes@_internal@termcolor@@YAXAEAV?$basic_ostream@DU?$char_traits@D@std@@@std@@HH@Z DD imagerel $LN13
	DD	imagerel $LN13+436
	DD	imagerel $unwind$?win_change_attributes@_internal@termcolor@@YAXAEAV?$basic_ostream@DU?$char_traits@D@std@@@std@@HH@Z
pdata	ENDS
;	COMDAT pdata
pdata	SEGMENT
$pdata$?reset@termcolor@@YAAEAV?$basic_ostream@DU?$char_traits@D@std@@@std@@AEAV23@@Z DD imagerel $LN4
	DD	imagerel $LN4+113
	DD	imagerel $unwind$?reset@termcolor@@YAAEAV?$basic_ostream@DU?$char_traits@D@std@@@std@@AEAV23@@Z
pdata	ENDS
;	COMDAT pdata
pdata	SEGMENT
$pdata$?red@termcolor@@YAAEAV?$basic_ostream@DU?$char_traits@D@std@@@std@@AEAV23@@Z DD imagerel $LN4
	DD	imagerel $LN4+113
	DD	imagerel $unwind$?red@termcolor@@YAAEAV?$basic_ostream@DU?$char_traits@D@std@@@std@@AEAV23@@Z
pdata	ENDS
;	COMDAT pdata
pdata	SEGMENT
$pdata$?green@termcolor@@YAAEAV?$basic_ostream@DU?$char_traits@D@std@@@std@@AEAV23@@Z DD imagerel $LN4
	DD	imagerel $LN4+113
	DD	imagerel $unwind$?green@termcolor@@YAAEAV?$basic_ostream@DU?$char_traits@D@std@@@std@@AEAV23@@Z
pdata	ENDS
;	COMDAT pdata
pdata	SEGMENT
$pdata$??0ViewHandler@view@ui_layer@@QEAA@XZ DD imagerel $LN3
	DD	imagerel $LN3+89
	DD	imagerel $unwind$??0ViewHandler@view@ui_layer@@QEAA@XZ
pdata	ENDS
;	COMDAT pdata
pdata	SEGMENT
$pdata$??1ViewHandler@view@ui_layer@@UEAA@XZ DD imagerel $LN3
	DD	imagerel $LN3+82
	DD	imagerel $unwind$??1ViewHandler@view@ui_layer@@UEAA@XZ
pdata	ENDS
;	COMDAT pdata
pdata	SEGMENT
$pdata$??0LoggerHandler@Logging@technical_services_layer@@QEAA@AEAV?$basic_ostream@DU?$char_traits@D@std@@@std@@@Z DD imagerel $LN3
	DD	imagerel $LN3+111
	DD	imagerel $unwind$??0LoggerHandler@Logging@technical_services_layer@@QEAA@AEAV?$basic_ostream@DU?$char_traits@D@std@@@std@@@Z
pdata	ENDS
;	COMDAT pdata
pdata	SEGMENT
$pdata$??1LoggerHandler@Logging@technical_services_layer@@UEAA@XZ DD imagerel $LN3
	DD	imagerel $LN3+82
	DD	imagerel $unwind$??1LoggerHandler@Logging@technical_services_layer@@UEAA@XZ
pdata	ENDS
;	COMDAT pdata
pdata	SEGMENT
$pdata$localtime_s DD imagerel localtime_s
	DD	imagerel localtime_s+89
	DD	imagerel $unwind$localtime_s
pdata	ENDS
;	COMDAT pdata
pdata	SEGMENT
$pdata$?now@system_clock@chrono@std@@SA?AV?$time_point@Usystem_clock@chrono@std@@V?$duration@_JU?$ratio@$00$0JIJGIA@@std@@@23@@23@XZ DD imagerel $LN3
	DD	imagerel $LN3+121
	DD	imagerel $unwind$?now@system_clock@chrono@std@@SA?AV?$time_point@Usystem_clock@chrono@std@@V?$duration@_JU?$ratio@$00$0JIJGIA@@std@@@23@@23@XZ
pdata	ENDS
;	COMDAT pdata
pdata	SEGMENT
$pdata$?to_time_t@system_clock@chrono@std@@SA_JAEBV?$time_point@Usystem_clock@chrono@std@@V?$duration@_JU?$ratio@$00$0JIJGIA@@std@@@23@@23@@Z DD imagerel $LN3
	DD	imagerel $LN3+104
	DD	imagerel $unwind$?to_time_t@system_clock@chrono@std@@SA_JAEBV?$time_point@Usystem_clock@chrono@std@@V?$duration@_JU?$ratio@$00$0JIJGIA@@std@@@23@@23@@Z
pdata	ENDS
;	COMDAT pdata
pdata	SEGMENT
$pdata$?count@?$duration@_JU?$ratio@$00$0JIJGIA@@std@@@chrono@std@@QEBA_JXZ DD imagerel $LN3
	DD	imagerel $LN3+75
	DD	imagerel $unwind$?count@?$duration@_JU?$ratio@$00$0JIJGIA@@std@@@chrono@std@@QEBA_JXZ
pdata	ENDS
;	COMDAT pdata
pdata	SEGMENT
$pdata$??0?$time_point@Usystem_clock@chrono@std@@V?$duration@_JU?$ratio@$00$0JIJGIA@@std@@@23@@chrono@std@@QEAA@AEBV?$duration@_JU?$ratio@$00$0JIJGIA@@std@@@12@@Z DD imagerel $LN3
	DD	imagerel $LN3+97
	DD	imagerel $unwind$??0?$time_point@Usystem_clock@chrono@std@@V?$duration@_JU?$ratio@$00$0JIJGIA@@std@@@23@@chrono@std@@QEAA@AEBV?$duration@_JU?$ratio@$00$0JIJGIA@@std@@@12@@Z
pdata	ENDS
;	COMDAT pdata
pdata	SEGMENT
$pdata$?time_since_epoch@?$time_point@Usystem_clock@chrono@std@@V?$duration@_JU?$ratio@$00$0JIJGIA@@std@@@23@@chrono@std@@QEBA?AV?$duration@_JU?$ratio@$00$0JIJGIA@@std@@@23@XZ DD imagerel $LN3
	DD	imagerel $LN3+97
	DD	imagerel $unwind$?time_since_epoch@?$time_point@Usystem_clock@chrono@std@@V?$duration@_JU?$ratio@$00$0JIJGIA@@std@@@23@@chrono@std@@QEBA?AV?$duration@_JU?$ratio@$00$0JIJGIA@@std@@@23@XZ
pdata	ENDS
;	COMDAT pdata
pdata	SEGMENT
$pdata$??$?0_JX@?$duration@_JU?$ratio@$00$0JIJGIA@@std@@@chrono@std@@QEAA@AEB_J@Z DD imagerel $LN3
	DD	imagerel $LN3+97
	DD	imagerel $unwind$??$?0_JX@?$duration@_JU?$ratio@$00$0JIJGIA@@std@@@chrono@std@@QEAA@AEB_J@Z
pdata	ENDS
;	COMDAT pdata
pdata	SEGMENT
$pdata$??$_Getvals@_W@?$time_get@DV?$istreambuf_iterator@DU?$char_traits@D@std@@@std@@@std@@IEAAX_WAEBV_Locinfo@1@@Z DD imagerel $LN5
	DD	imagerel $LN5+379
	DD	imagerel $unwind$??$_Getvals@_W@?$time_get@DV?$istreambuf_iterator@DU?$char_traits@D@std@@@std@@@std@@IEAAX_WAEBV_Locinfo@1@@Z
pdata	ENDS
;	COMDAT pdata
pdata	SEGMENT
$pdata$??$_Getvals@_W@?$time_get@_WV?$istreambuf_iterator@_WU?$char_traits@_W@std@@@std@@@std@@IEAAX_WAEBV_Locinfo@1@@Z DD imagerel $LN5
	DD	imagerel $LN5+379
	DD	imagerel $unwind$??$_Getvals@_W@?$time_get@_WV?$istreambuf_iterator@_WU?$char_traits@_W@std@@@std@@@std@@IEAAX_WAEBV_Locinfo@1@@Z
pdata	ENDS
;	COMDAT pdata
pdata	SEGMENT
$pdata$??0SimpleLogger@Logging@technical_services_layer@@QEAA@AEAV?$basic_ostream@DU?$char_traits@D@std@@@std@@@Z DD imagerel $LN5
	DD	imagerel $LN5+188
	DD	imagerel $unwind$??0SimpleLogger@Logging@technical_services_layer@@QEAA@AEAV?$basic_ostream@DU?$char_traits@D@std@@@std@@@Z
pdata	ENDS
;	COMDAT pdata
pdata	SEGMENT
$pdata$?dtor$0@?0???0SimpleLogger@Logging@technical_services_layer@@QEAA@AEAV?$basic_ostream@DU?$char_traits@D@std@@@std@@@Z@4HA DD imagerel ?dtor$0@?0???0SimpleLogger@Logging@technical_services_layer@@QEAA@AEAV?$basic_ostream@DU?$char_traits@D@std@@@std@@@Z@4HA
	DD	imagerel ?dtor$0@?0???0SimpleLogger@Logging@technical_services_layer@@QEAA@AEAV?$basic_ostream@DU?$char_traits@D@std@@@std@@@Z@4HA+39
	DD	imagerel $unwind$?dtor$0@?0???0SimpleLogger@Logging@technical_services_layer@@QEAA@AEAV?$basic_ostream@DU?$char_traits@D@std@@@std@@@Z@4HA
pdata	ENDS
;	COMDAT pdata
pdata	SEGMENT
$pdata$?dtor$1@?0???0SimpleLogger@Logging@technical_services_layer@@QEAA@AEAV?$basic_ostream@DU?$char_traits@D@std@@@std@@@Z@4HA DD imagerel ?dtor$1@?0???0SimpleLogger@Logging@technical_services_layer@@QEAA@AEAV?$basic_ostream@DU?$char_traits@D@std@@@std@@@Z@4HA
	DD	imagerel ?dtor$1@?0???0SimpleLogger@Logging@technical_services_layer@@QEAA@AEAV?$basic_ostream@DU?$char_traits@D@std@@@std@@@Z@4HA+39
	DD	imagerel $unwind$?dtor$1@?0???0SimpleLogger@Logging@technical_services_layer@@QEAA@AEAV?$basic_ostream@DU?$char_traits@D@std@@@std@@@Z@4HA
pdata	ENDS
;	COMDAT pdata
pdata	SEGMENT
$pdata$??1SimpleLogger@Logging@technical_services_layer@@UEAA@XZ DD imagerel $LN3
	DD	imagerel $LN3+170
	DD	imagerel $unwind$??1SimpleLogger@Logging@technical_services_layer@@UEAA@XZ
pdata	ENDS
;	COMDAT pdata
pdata	SEGMENT
$pdata$??6SimpleLogger@Logging@technical_services_layer@@UEAAAEAV012@AEBV?$basic_string@DU?$char_traits@D@std@@V?$allocator@D@2@@std@@@Z DD imagerel $LN3
	DD	imagerel $LN3+298
	DD	imagerel $unwind$??6SimpleLogger@Logging@technical_services_layer@@UEAAAEAV012@AEBV?$basic_string@DU?$char_traits@D@std@@V?$allocator@D@2@@std@@@Z
pdata	ENDS
;	COMDAT pdata
pdata	SEGMENT
$pdata$??_GSimpleLogger@Logging@technical_services_layer@@UEAAPEAXI@Z DD imagerel $LN4
	DD	imagerel $LN4+105
	DD	imagerel $unwind$??_GSimpleLogger@Logging@technical_services_layer@@UEAAPEAXI@Z
pdata	ENDS
;	COMDAT pdata
pdata	SEGMENT
$pdata$??$put_time@D@std@@YA?AU?$_Timeobj@DPEBUtm@@@0@PEBUtm@@PEBD@Z DD imagerel $LN3
	DD	imagerel $LN3+107
	DD	imagerel $unwind$??$put_time@D@std@@YA?AU?$_Timeobj@DPEBUtm@@@0@PEBUtm@@PEBD@Z
pdata	ENDS
;	COMDAT pdata
pdata	SEGMENT
$pdata$??0?$_Timeobj@DPEBUtm@@@std@@QEAA@PEBUtm@@PEBD@Z DD imagerel $LN6
	DD	imagerel $LN6+185
	DD	imagerel $unwind$??0?$_Timeobj@DPEBUtm@@@std@@QEAA@PEBUtm@@PEBD@Z
pdata	ENDS
;	COMDAT pdata
pdata	SEGMENT
$pdata$??$?6U?$char_traits@D@std@@@std@@YAAEAV?$basic_ostream@DU?$char_traits@D@std@@@0@AEAV10@PEBD@Z DD imagerel $LN25
	DD	imagerel $LN25+1124
	DD	imagerel $unwind$??$?6U?$char_traits@D@std@@@std@@YAAEAV?$basic_ostream@DU?$char_traits@D@std@@@0@AEAV10@PEBD@Z
pdata	ENDS
;	COMDAT pdata
pdata	SEGMENT
$pdata$?dtor$0@?0???$?6U?$char_traits@D@std@@@std@@YAAEAV?$basic_ostream@DU?$char_traits@D@std@@@0@AEAV10@PEBD@Z@4HA DD imagerel ?dtor$0@?0???$?6U?$char_traits@D@std@@@std@@YAAEAV?$basic_ostream@DU?$char_traits@D@std@@@0@AEAV10@PEBD@Z@4HA
	DD	imagerel ?dtor$0@?0???$?6U?$char_traits@D@std@@@std@@YAAEAV?$basic_ostream@DU?$char_traits@D@std@@@0@AEAV10@PEBD@Z@4HA+36
	DD	imagerel $unwind$?dtor$0@?0???$?6U?$char_traits@D@std@@@std@@YAAEAV?$basic_ostream@DU?$char_traits@D@std@@@0@AEAV10@PEBD@Z@4HA
pdata	ENDS
;	COMDAT pdata
pdata	SEGMENT
$pdata$?catch$1@?0???$?6U?$char_traits@D@std@@@std@@YAAEAV?$basic_ostream@DU?$char_traits@D@std@@@0@AEAV10@PEBD@Z@4HA DD imagerel ?catch$1@?0???$?6U?$char_traits@D@std@@@std@@YAAEAV?$basic_ostream@DU?$char_traits@D@std@@@0@AEAV10@PEBD@Z@4HA
	DD	imagerel ?catch$1@?0???$?6U?$char_traits@D@std@@@std@@YAAEAV?$basic_ostream@DU?$char_traits@D@std@@@0@AEAV10@PEBD@Z@4HA+91
	DD	imagerel $unwind$?catch$1@?0???$?6U?$char_traits@D@std@@@std@@YAAEAV?$basic_ostream@DU?$char_traits@D@std@@@0@AEAV10@PEBD@Z@4HA
pdata	ENDS
;	COMDAT pdata
pdata	SEGMENT
$pdata$??$?6U?$char_traits@D@std@@@std@@YAAEAV?$basic_ostream@DU?$char_traits@D@std@@@0@AEAV10@D@Z DD imagerel $LN23
	DD	imagerel $LN23+1095
	DD	imagerel $unwind$??$?6U?$char_traits@D@std@@@std@@YAAEAV?$basic_ostream@DU?$char_traits@D@std@@@0@AEAV10@D@Z
pdata	ENDS
;	COMDAT pdata
pdata	SEGMENT
$pdata$?dtor$0@?0???$?6U?$char_traits@D@std@@@std@@YAAEAV?$basic_ostream@DU?$char_traits@D@std@@@0@AEAV10@D@Z@4HA DD imagerel ?dtor$0@?0???$?6U?$char_traits@D@std@@@std@@YAAEAV?$basic_ostream@DU?$char_traits@D@std@@@0@AEAV10@D@Z@4HA
	DD	imagerel ?dtor$0@?0???$?6U?$char_traits@D@std@@@std@@YAAEAV?$basic_ostream@DU?$char_traits@D@std@@@0@AEAV10@D@Z@4HA+36
	DD	imagerel $unwind$?dtor$0@?0???$?6U?$char_traits@D@std@@@std@@YAAEAV?$basic_ostream@DU?$char_traits@D@std@@@0@AEAV10@D@Z@4HA
pdata	ENDS
;	COMDAT pdata
pdata	SEGMENT
$pdata$?catch$1@?0???$?6U?$char_traits@D@std@@@std@@YAAEAV?$basic_ostream@DU?$char_traits@D@std@@@0@AEAV10@D@Z@4HA DD imagerel ?catch$1@?0???$?6U?$char_traits@D@std@@@std@@YAAEAV?$basic_ostream@DU?$char_traits@D@std@@@0@AEAV10@D@Z@4HA
	DD	imagerel ?catch$1@?0???$?6U?$char_traits@D@std@@@std@@YAAEAV?$basic_ostream@DU?$char_traits@D@std@@@0@AEAV10@D@Z@4HA+91
	DD	imagerel $unwind$?catch$1@?0???$?6U?$char_traits@D@std@@@std@@YAAEAV?$basic_ostream@DU?$char_traits@D@std@@@0@AEAV10@D@Z@4HA
pdata	ENDS
;	COMDAT pdata
pdata	SEGMENT
$pdata$??$?6DU?$char_traits@D@std@@D@std@@YAAEAV?$basic_ostream@DU?$char_traits@D@std@@@0@AEAV10@AEBU?$_Timeobj@DPEBUtm@@@0@@Z DD imagerel $LN13
	DD	imagerel $LN13+830
	DD	imagerel $unwind$??$?6DU?$char_traits@D@std@@D@std@@YAAEAV?$basic_ostream@DU?$char_traits@D@std@@@0@AEAV10@AEBU?$_Timeobj@DPEBUtm@@@0@@Z
pdata	ENDS
;	COMDAT pdata
pdata	SEGMENT
$pdata$?dtor$0@?0???$?6DU?$char_traits@D@std@@D@std@@YAAEAV?$basic_ostream@DU?$char_traits@D@std@@@0@AEAV10@AEBU?$_Timeobj@DPEBUtm@@@0@@Z@4HA DD imagerel ?dtor$0@?0???$?6DU?$char_traits@D@std@@D@std@@YAAEAV?$basic_ostream@DU?$char_traits@D@std@@@0@AEAV10@AEBU?$_Timeobj@DPEBUtm@@@0@@Z@4HA
	DD	imagerel ?dtor$0@?0???$?6DU?$char_traits@D@std@@D@std@@YAAEAV?$basic_ostream@DU?$char_traits@D@std@@@0@AEAV10@AEBU?$_Timeobj@DPEBUtm@@@0@@Z@4HA+36
	DD	imagerel $unwind$?dtor$0@?0???$?6DU?$char_traits@D@std@@D@std@@YAAEAV?$basic_ostream@DU?$char_traits@D@std@@@0@AEAV10@AEBU?$_Timeobj@DPEBUtm@@@0@@Z@4HA
pdata	ENDS
;	COMDAT pdata
pdata	SEGMENT
$pdata$?dtor$1@?0???$?6DU?$char_traits@D@std@@D@std@@YAAEAV?$basic_ostream@DU?$char_traits@D@std@@@0@AEAV10@AEBU?$_Timeobj@DPEBUtm@@@0@@Z@4HA DD imagerel ?dtor$1@?0???$?6DU?$char_traits@D@std@@D@std@@YAAEAV?$basic_ostream@DU?$char_traits@D@std@@@0@AEAV10@AEBU?$_Timeobj@DPEBUtm@@@0@@Z@4HA
	DD	imagerel ?dtor$1@?0???$?6DU?$char_traits@D@std@@D@std@@YAAEAV?$basic_ostream@DU?$char_traits@D@std@@@0@AEAV10@AEBU?$_Timeobj@DPEBUtm@@@0@@Z@4HA+39
	DD	imagerel $unwind$?dtor$1@?0???$?6DU?$char_traits@D@std@@D@std@@YAAEAV?$basic_ostream@DU?$char_traits@D@std@@@0@AEAV10@AEBU?$_Timeobj@DPEBUtm@@@0@@Z@4HA
pdata	ENDS
;	COMDAT pdata
pdata	SEGMENT
$pdata$?catch$2@?0???$?6DU?$char_traits@D@std@@D@std@@YAAEAV?$basic_ostream@DU?$char_traits@D@std@@@0@AEAV10@AEBU?$_Timeobj@DPEBUtm@@@0@@Z@4HA DD imagerel ?catch$2@?0???$?6DU?$char_traits@D@std@@D@std@@YAAEAV?$basic_ostream@DU?$char_traits@D@std@@@0@AEAV10@AEBU?$_Timeobj@DPEBUtm@@@0@@Z@4HA
	DD	imagerel ?catch$2@?0???$?6DU?$char_traits@D@std@@D@std@@YAAEAV?$basic_ostream@DU?$char_traits@D@std@@@0@AEAV10@AEBU?$_Timeobj@DPEBUtm@@@0@@Z@4HA+91
	DD	imagerel $unwind$?catch$2@?0???$?6DU?$char_traits@D@std@@D@std@@YAAEAV?$basic_ostream@DU?$char_traits@D@std@@@0@AEAV10@AEBU?$_Timeobj@DPEBUtm@@@0@@Z@4HA
pdata	ENDS
;	COMDAT pdata
pdata	SEGMENT
$pdata$??$?6DU?$char_traits@D@std@@V?$allocator@D@1@@std@@YAAEAV?$basic_ostream@DU?$char_traits@D@std@@@0@AEAV10@AEBV?$basic_string@DU?$char_traits@D@std@@V?$allocator@D@2@@0@@Z DD imagerel $LN3
	DD	imagerel $LN3+133
	DD	imagerel $unwind$??$?6DU?$char_traits@D@std@@V?$allocator@D@1@@std@@YAAEAV?$basic_ostream@DU?$char_traits@D@std@@@0@AEAV10@AEBV?$basic_string@DU?$char_traits@D@std@@V?$allocator@D@2@@0@@Z
pdata	ENDS
;	COMDAT pdata
pdata	SEGMENT
$pdata$??0CreditCardInfo@payment@technical_services_layer@@QEAA@XZ DD imagerel $LN3
	DD	imagerel $LN3+112
	DD	imagerel $unwind$??0CreditCardInfo@payment@technical_services_layer@@QEAA@XZ
pdata	ENDS
;	COMDAT pdata
pdata	SEGMENT
$pdata$??1CreditCardInfo@payment@technical_services_layer@@QEAA@XZ DD imagerel $LN3
	DD	imagerel $LN3+105
	DD	imagerel $unwind$??1CreditCardInfo@payment@technical_services_layer@@QEAA@XZ
pdata	ENDS
;	COMDAT pdata
pdata	SEGMENT
$pdata$??0View@view@ui_layer@@QEAA@XZ DD imagerel $LN11
	DD	imagerel $LN11+485
	DD	imagerel $unwind$??0View@view@ui_layer@@QEAA@XZ
pdata	ENDS
;	COMDAT pdata
pdata	SEGMENT
$pdata$?dtor$0@?0???0View@view@ui_layer@@QEAA@XZ@4HA DD imagerel ?dtor$0@?0???0View@view@ui_layer@@QEAA@XZ@4HA
	DD	imagerel ?dtor$0@?0???0View@view@ui_layer@@QEAA@XZ@4HA+39
	DD	imagerel $unwind$?dtor$0@?0???0View@view@ui_layer@@QEAA@XZ@4HA
pdata	ENDS
;	COMDAT pdata
pdata	SEGMENT
$pdata$?dtor$1@?0???0View@view@ui_layer@@QEAA@XZ@4HA DD imagerel ?dtor$1@?0???0View@view@ui_layer@@QEAA@XZ@4HA
	DD	imagerel ?dtor$1@?0???0View@view@ui_layer@@QEAA@XZ@4HA+44
	DD	imagerel $unwind$?dtor$1@?0???0View@view@ui_layer@@QEAA@XZ@4HA
pdata	ENDS
;	COMDAT pdata
pdata	SEGMENT
$pdata$?dtor$2@?0???0View@view@ui_layer@@QEAA@XZ@4HA DD imagerel ?dtor$2@?0???0View@view@ui_layer@@QEAA@XZ@4HA
	DD	imagerel ?dtor$2@?0???0View@view@ui_layer@@QEAA@XZ@4HA+44
	DD	imagerel $unwind$?dtor$2@?0???0View@view@ui_layer@@QEAA@XZ@4HA
pdata	ENDS
;	COMDAT pdata
pdata	SEGMENT
$pdata$?dtor$3@?0???0View@view@ui_layer@@QEAA@XZ@4HA DD imagerel ?dtor$3@?0???0View@view@ui_layer@@QEAA@XZ@4HA
	DD	imagerel ?dtor$3@?0???0View@view@ui_layer@@QEAA@XZ@4HA+39
	DD	imagerel $unwind$?dtor$3@?0???0View@view@ui_layer@@QEAA@XZ@4HA
pdata	ENDS
;	COMDAT pdata
pdata	SEGMENT
$pdata$?launch@View@view@ui_layer@@UEAAXXZ DD imagerel $LN8
	DD	imagerel $LN8+152
	DD	imagerel $unwind$?launch@View@view@ui_layer@@UEAAXXZ
pdata	ENDS
;	COMDAT pdata
pdata	SEGMENT
$pdata$??1View@view@ui_layer@@UEAA@XZ DD imagerel $LN3
	DD	imagerel $LN3+192
	DD	imagerel $unwind$??1View@view@ui_layer@@UEAA@XZ
pdata	ENDS
;	COMDAT pdata
pdata	SEGMENT
$pdata$?messageBox@View@view@ui_layer@@AEAAHXZ DD imagerel $LN6
	DD	imagerel $LN6+347
	DD	imagerel $unwind$?messageBox@View@view@ui_layer@@AEAAHXZ
pdata	ENDS
;	COMDAT pdata
pdata	SEGMENT
$pdata$?cleanup_SDL@View@view@ui_layer@@AEAAXXZ DD imagerel $LN3
	DD	imagerel $LN3+122
	DD	imagerel $unwind$?cleanup_SDL@View@view@ui_layer@@AEAAXXZ
pdata	ENDS
;	COMDAT pdata
pdata	SEGMENT
$pdata$?showScore@View@view@ui_layer@@AEAAXI@Z DD imagerel $LN3
	DD	imagerel $LN3+273
	DD	imagerel $unwind$?showScore@View@view@ui_layer@@AEAAXI@Z
pdata	ENDS
;	COMDAT pdata
pdata	SEGMENT
$pdata$?clearScreen@View@view@ui_layer@@AEAAXXZ DD imagerel $LN3
	DD	imagerel $LN3+233
	DD	imagerel $unwind$?clearScreen@View@view@ui_layer@@AEAAXXZ
pdata	ENDS
;	COMDAT pdata
pdata	SEGMENT
$pdata$?initialize_system@View@view@ui_layer@@AEAA_NXZ DD imagerel $LN8
	DD	imagerel $LN8+779
	DD	imagerel $unwind$?initialize_system@View@view@ui_layer@@AEAA_NXZ
pdata	ENDS
;	COMDAT pdata
pdata	SEGMENT
$pdata$?dtor$0@?0??initialize_system@View@view@ui_layer@@AEAA_NXZ@4HA DD imagerel ?dtor$0@?0??initialize_system@View@view@ui_layer@@AEAA_NXZ@4HA
	DD	imagerel ?dtor$0@?0??initialize_system@View@view@ui_layer@@AEAA_NXZ@4HA+36
	DD	imagerel $unwind$?dtor$0@?0??initialize_system@View@view@ui_layer@@AEAA_NXZ@4HA
pdata	ENDS
;	COMDAT pdata
pdata	SEGMENT
$pdata$?dtor$1@?0??initialize_system@View@view@ui_layer@@AEAA_NXZ@4HA DD imagerel ?dtor$1@?0??initialize_system@View@view@ui_layer@@AEAA_NXZ@4HA
	DD	imagerel ?dtor$1@?0??initialize_system@View@view@ui_layer@@AEAA_NXZ@4HA+36
	DD	imagerel $unwind$?dtor$1@?0??initialize_system@View@view@ui_layer@@AEAA_NXZ@4HA
pdata	ENDS
;	COMDAT pdata
pdata	SEGMENT
$pdata$?dtor$2@?0??initialize_system@View@view@ui_layer@@AEAA_NXZ@4HA DD imagerel ?dtor$2@?0??initialize_system@View@view@ui_layer@@AEAA_NXZ@4HA
	DD	imagerel ?dtor$2@?0??initialize_system@View@view@ui_layer@@AEAA_NXZ@4HA+39
	DD	imagerel $unwind$?dtor$2@?0??initialize_system@View@view@ui_layer@@AEAA_NXZ@4HA
pdata	ENDS
;	COMDAT pdata
pdata	SEGMENT
$pdata$?display_main_menu@View@view@ui_layer@@AEAA_NXZ DD imagerel $LN14
	DD	imagerel $LN14+722
	DD	imagerel $unwind$?display_main_menu@View@view@ui_layer@@AEAA_NXZ
pdata	ENDS
;	COMDAT pdata
pdata	SEGMENT
$pdata$?display_user_menu@View@view@ui_layer@@AEAA_NXZ DD imagerel $LN17
	DD	imagerel $LN17+932
	DD	imagerel $unwind$?display_user_menu@View@view@ui_layer@@AEAA_NXZ
pdata	ENDS
;	COMDAT pdata
pdata	SEGMENT
$pdata$?register_player@View@view@ui_layer@@AEAAXXZ DD imagerel $LN11
	DD	imagerel $LN11+1243
	DD	imagerel $unwind$?register_player@View@view@ui_layer@@AEAAXXZ
pdata	ENDS
;	COMDAT pdata
pdata	SEGMENT
$pdata$?dtor$0@?0??register_player@View@view@ui_layer@@AEAAXXZ@4HA DD imagerel ?dtor$0@?0??register_player@View@view@ui_layer@@AEAAXXZ@4HA
	DD	imagerel ?dtor$0@?0??register_player@View@view@ui_layer@@AEAAXXZ@4HA+36
	DD	imagerel $unwind$?dtor$0@?0??register_player@View@view@ui_layer@@AEAAXXZ@4HA
pdata	ENDS
;	COMDAT pdata
pdata	SEGMENT
$pdata$?dtor$1@?0??register_player@View@view@ui_layer@@AEAAXXZ@4HA DD imagerel ?dtor$1@?0??register_player@View@view@ui_layer@@AEAAXXZ@4HA
	DD	imagerel ?dtor$1@?0??register_player@View@view@ui_layer@@AEAAXXZ@4HA+36
	DD	imagerel $unwind$?dtor$1@?0??register_player@View@view@ui_layer@@AEAAXXZ@4HA
pdata	ENDS
;	COMDAT pdata
pdata	SEGMENT
$pdata$?dtor$2@?0??register_player@View@view@ui_layer@@AEAAXXZ@4HA DD imagerel ?dtor$2@?0??register_player@View@view@ui_layer@@AEAAXXZ@4HA
	DD	imagerel ?dtor$2@?0??register_player@View@view@ui_layer@@AEAAXXZ@4HA+39
	DD	imagerel $unwind$?dtor$2@?0??register_player@View@view@ui_layer@@AEAAXXZ@4HA
pdata	ENDS
;	COMDAT pdata
pdata	SEGMENT
$pdata$?login_user@View@view@ui_layer@@AEAA_NXZ DD imagerel $LN13
	DD	imagerel $LN13+1059
	DD	imagerel $unwind$?login_user@View@view@ui_layer@@AEAA_NXZ
pdata	ENDS
;	COMDAT pdata
pdata	SEGMENT
$pdata$?dtor$0@?0??login_user@View@view@ui_layer@@AEAA_NXZ@4HA DD imagerel ?dtor$0@?0??login_user@View@view@ui_layer@@AEAA_NXZ@4HA
	DD	imagerel ?dtor$0@?0??login_user@View@view@ui_layer@@AEAA_NXZ@4HA+36
	DD	imagerel $unwind$?dtor$0@?0??login_user@View@view@ui_layer@@AEAA_NXZ@4HA
pdata	ENDS
;	COMDAT pdata
pdata	SEGMENT
$pdata$?dtor$1@?0??login_user@View@view@ui_layer@@AEAA_NXZ@4HA DD imagerel ?dtor$1@?0??login_user@View@view@ui_layer@@AEAA_NXZ@4HA
	DD	imagerel ?dtor$1@?0??login_user@View@view@ui_layer@@AEAA_NXZ@4HA+36
	DD	imagerel $unwind$?dtor$1@?0??login_user@View@view@ui_layer@@AEAA_NXZ@4HA
pdata	ENDS
;	COMDAT pdata
pdata	SEGMENT
$pdata$?dtor$2@?0??login_user@View@view@ui_layer@@AEAA_NXZ@4HA DD imagerel ?dtor$2@?0??login_user@View@view@ui_layer@@AEAA_NXZ@4HA
	DD	imagerel ?dtor$2@?0??login_user@View@view@ui_layer@@AEAA_NXZ@4HA+39
	DD	imagerel $unwind$?dtor$2@?0??login_user@View@view@ui_layer@@AEAA_NXZ@4HA
pdata	ENDS
;	COMDAT pdata
pdata	SEGMENT
$pdata$?dtor$4@?0??login_user@View@view@ui_layer@@AEAA_NXZ@4HA DD imagerel ?dtor$4@?0??login_user@View@view@ui_layer@@AEAA_NXZ@4HA
	DD	imagerel ?dtor$4@?0??login_user@View@view@ui_layer@@AEAA_NXZ@4HA+44
	DD	imagerel $unwind$?dtor$4@?0??login_user@View@view@ui_layer@@AEAA_NXZ@4HA
pdata	ENDS
;	COMDAT pdata
pdata	SEGMENT
$pdata$?play_game@View@view@ui_layer@@AEAAXXZ DD imagerel $LN6
	DD	imagerel $LN6+585
	DD	imagerel $unwind$?play_game@View@view@ui_layer@@AEAAXXZ
pdata	ENDS
;	COMDAT pdata
pdata	SEGMENT
$pdata$?dtor$0@?0??play_game@View@view@ui_layer@@AEAAXXZ@4HA DD imagerel ?dtor$0@?0??play_game@View@view@ui_layer@@AEAAXXZ@4HA
	DD	imagerel ?dtor$0@?0??play_game@View@view@ui_layer@@AEAAXXZ@4HA+36
	DD	imagerel $unwind$?dtor$0@?0??play_game@View@view@ui_layer@@AEAAXXZ@4HA
pdata	ENDS
;	COMDAT pdata
pdata	SEGMENT
$pdata$?dtor$1@?0??play_game@View@view@ui_layer@@AEAAXXZ@4HA DD imagerel ?dtor$1@?0??play_game@View@view@ui_layer@@AEAAXXZ@4HA
	DD	imagerel ?dtor$1@?0??play_game@View@view@ui_layer@@AEAAXXZ@4HA+39
	DD	imagerel $unwind$?dtor$1@?0??play_game@View@view@ui_layer@@AEAAXXZ@4HA
pdata	ENDS
;	COMDAT pdata
pdata	SEGMENT
$pdata$?dtor$2@?0??play_game@View@view@ui_layer@@AEAAXXZ@4HA DD imagerel ?dtor$2@?0??play_game@View@view@ui_layer@@AEAAXXZ@4HA
	DD	imagerel ?dtor$2@?0??play_game@View@view@ui_layer@@AEAAXXZ@4HA+39
	DD	imagerel $unwind$?dtor$2@?0??play_game@View@view@ui_layer@@AEAAXXZ@4HA
pdata	ENDS
;	COMDAT pdata
pdata	SEGMENT
$pdata$?check_player_status@View@view@ui_layer@@AEAA_NXZ DD imagerel $LN5
	DD	imagerel $LN5+361
	DD	imagerel $unwind$?check_player_status@View@view@ui_layer@@AEAA_NXZ
pdata	ENDS
;	COMDAT pdata
pdata	SEGMENT
$pdata$?dtor$0@?0??check_player_status@View@view@ui_layer@@AEAA_NXZ@4HA DD imagerel ?dtor$0@?0??check_player_status@View@view@ui_layer@@AEAA_NXZ@4HA
	DD	imagerel ?dtor$0@?0??check_player_status@View@view@ui_layer@@AEAA_NXZ@4HA+36
	DD	imagerel $unwind$?dtor$0@?0??check_player_status@View@view@ui_layer@@AEAA_NXZ@4HA
pdata	ENDS
;	COMDAT pdata
pdata	SEGMENT
$pdata$?buy_premium@View@view@ui_layer@@AEAAXXZ DD imagerel $LN7
	DD	imagerel $LN7+1027
	DD	imagerel $unwind$?buy_premium@View@view@ui_layer@@AEAAXXZ
pdata	ENDS
;	COMDAT pdata
pdata	SEGMENT
$pdata$?dtor$0@?0??buy_premium@View@view@ui_layer@@AEAAXXZ@4HA DD imagerel ?dtor$0@?0??buy_premium@View@view@ui_layer@@AEAAXXZ@4HA
	DD	imagerel ?dtor$0@?0??buy_premium@View@view@ui_layer@@AEAAXXZ@4HA+36
	DD	imagerel $unwind$?dtor$0@?0??buy_premium@View@view@ui_layer@@AEAAXXZ@4HA
pdata	ENDS
;	COMDAT pdata
pdata	SEGMENT
$pdata$?dtor$1@?0??buy_premium@View@view@ui_layer@@AEAAXXZ@4HA DD imagerel ?dtor$1@?0??buy_premium@View@view@ui_layer@@AEAAXXZ@4HA
	DD	imagerel ?dtor$1@?0??buy_premium@View@view@ui_layer@@AEAAXXZ@4HA+36
	DD	imagerel $unwind$?dtor$1@?0??buy_premium@View@view@ui_layer@@AEAAXXZ@4HA
pdata	ENDS
;	COMDAT pdata
pdata	SEGMENT
$pdata$?view_previous_score@View@view@ui_layer@@AEAAXXZ DD imagerel $LN11
	DD	imagerel $LN11+738
	DD	imagerel $unwind$?view_previous_score@View@view@ui_layer@@AEAAXXZ
pdata	ENDS
;	COMDAT pdata
pdata	SEGMENT
$pdata$?dtor$0@?0??view_previous_score@View@view@ui_layer@@AEAAXXZ@4HA DD imagerel ?dtor$0@?0??view_previous_score@View@view@ui_layer@@AEAAXXZ@4HA
	DD	imagerel ?dtor$0@?0??view_previous_score@View@view@ui_layer@@AEAAXXZ@4HA+36
	DD	imagerel $unwind$?dtor$0@?0??view_previous_score@View@view@ui_layer@@AEAAXXZ@4HA
pdata	ENDS
;	COMDAT pdata
pdata	SEGMENT
$pdata$?dtor$1@?0??view_previous_score@View@view@ui_layer@@AEAAXXZ@4HA DD imagerel ?dtor$1@?0??view_previous_score@View@view@ui_layer@@AEAAXXZ@4HA
	DD	imagerel ?dtor$1@?0??view_previous_score@View@view@ui_layer@@AEAAXXZ@4HA+36
	DD	imagerel $unwind$?dtor$1@?0??view_previous_score@View@view@ui_layer@@AEAAXXZ@4HA
pdata	ENDS
;	COMDAT pdata
pdata	SEGMENT
$pdata$?dtor$3@?0??view_previous_score@View@view@ui_layer@@AEAAXXZ@4HA DD imagerel ?dtor$3@?0??view_previous_score@View@view@ui_layer@@AEAAXXZ@4HA
	DD	imagerel ?dtor$3@?0??view_previous_score@View@view@ui_layer@@AEAAXXZ@4HA+39
	DD	imagerel $unwind$?dtor$3@?0??view_previous_score@View@view@ui_layer@@AEAAXXZ@4HA
pdata	ENDS
;	COMDAT pdata
pdata	SEGMENT
$pdata$?dtor$4@?0??view_previous_score@View@view@ui_layer@@AEAAXXZ@4HA DD imagerel ?dtor$4@?0??view_previous_score@View@view@ui_layer@@AEAAXXZ@4HA
	DD	imagerel ?dtor$4@?0??view_previous_score@View@view@ui_layer@@AEAAXXZ@4HA+39
	DD	imagerel $unwind$?dtor$4@?0??view_previous_score@View@view@ui_layer@@AEAAXXZ@4HA
pdata	ENDS
;	COMDAT pdata
pdata	SEGMENT
$pdata$?view_leaderboard@View@view@ui_layer@@AEAAXXZ DD imagerel $LN13
	DD	imagerel $LN13+931
	DD	imagerel $unwind$?view_leaderboard@View@view@ui_layer@@AEAAXXZ
pdata	ENDS
;	COMDAT pdata
pdata	SEGMENT
$pdata$?dtor$0@?0??view_leaderboard@View@view@ui_layer@@AEAAXXZ@4HA DD imagerel ?dtor$0@?0??view_leaderboard@View@view@ui_layer@@AEAAXXZ@4HA
	DD	imagerel ?dtor$0@?0??view_leaderboard@View@view@ui_layer@@AEAAXXZ@4HA+36
	DD	imagerel $unwind$?dtor$0@?0??view_leaderboard@View@view@ui_layer@@AEAAXXZ@4HA
pdata	ENDS
;	COMDAT pdata
pdata	SEGMENT
$pdata$?dtor$1@?0??view_leaderboard@View@view@ui_layer@@AEAAXXZ@4HA DD imagerel ?dtor$1@?0??view_leaderboard@View@view@ui_layer@@AEAAXXZ@4HA
	DD	imagerel ?dtor$1@?0??view_leaderboard@View@view@ui_layer@@AEAAXXZ@4HA+36
	DD	imagerel $unwind$?dtor$1@?0??view_leaderboard@View@view@ui_layer@@AEAAXXZ@4HA
pdata	ENDS
;	COMDAT pdata
pdata	SEGMENT
$pdata$?dtor$5@?0??view_leaderboard@View@view@ui_layer@@AEAAXXZ@4HA DD imagerel ?dtor$5@?0??view_leaderboard@View@view@ui_layer@@AEAAXXZ@4HA
	DD	imagerel ?dtor$5@?0??view_leaderboard@View@view@ui_layer@@AEAAXXZ@4HA+39
	DD	imagerel $unwind$?dtor$5@?0??view_leaderboard@View@view@ui_layer@@AEAAXXZ@4HA
pdata	ENDS
;	COMDAT pdata
pdata	SEGMENT
$pdata$?dtor$6@?0??view_leaderboard@View@view@ui_layer@@AEAAXXZ@4HA DD imagerel ?dtor$6@?0??view_leaderboard@View@view@ui_layer@@AEAAXXZ@4HA
	DD	imagerel ?dtor$6@?0??view_leaderboard@View@view@ui_layer@@AEAAXXZ@4HA+39
	DD	imagerel $unwind$?dtor$6@?0??view_leaderboard@View@view@ui_layer@@AEAAXXZ@4HA
pdata	ENDS
;	COMDAT pdata
pdata	SEGMENT
$pdata$??_GView@view@ui_layer@@UEAAPEAXI@Z DD imagerel $LN4
	DD	imagerel $LN4+105
	DD	imagerel $unwind$??_GView@view@ui_layer@@UEAAPEAXI@Z
pdata	ENDS
;	COMDAT pdata
pdata	SEGMENT
$pdata$?__autoclassinit2@Storage@Persistence@technical_services_layer@@QEAAX_K@Z DD imagerel $LN3
	DD	imagerel $LN3+73
	DD	imagerel $unwind$?__autoclassinit2@Storage@Persistence@technical_services_layer@@QEAAX_K@Z
pdata	ENDS
;	COMDAT pdata
pdata	SEGMENT
$pdata$??$endl@DU?$char_traits@D@std@@@std@@YAAEAV?$basic_ostream@DU?$char_traits@D@std@@@0@AEAV10@@Z DD imagerel $LN3
	DD	imagerel $LN3+149
	DD	imagerel $unwind$??$endl@DU?$char_traits@D@std@@@std@@YAAEAV?$basic_ostream@DU?$char_traits@D@std@@@0@AEAV10@@Z
pdata	ENDS
;	COMDAT pdata
pdata	SEGMENT
$pdata$??$getline@DU?$char_traits@D@std@@V?$allocator@D@2@@std@@YAAEAV?$basic_istream@DU?$char_traits@D@std@@@0@AEAV10@AEAV?$basic_string@DU?$char_traits@D@std@@V?$allocator@D@2@@0@@Z DD imagerel $LN3
	DD	imagerel $LN3+170
	DD	imagerel $unwind$??$getline@DU?$char_traits@D@std@@V?$allocator@D@2@@std@@YAAEAV?$basic_istream@DU?$char_traits@D@std@@@0@AEAV10@AEAV?$basic_string@DU?$char_traits@D@std@@V?$allocator@D@2@@0@@Z
pdata	ENDS
;	COMDAT pdata
pdata	SEGMENT
$pdata$??$?9DU?$char_traits@D@std@@V?$allocator@D@1@@std@@YA_NAEBV?$basic_string@DU?$char_traits@D@std@@V?$allocator@D@2@@0@0@Z DD imagerel $LN5
	DD	imagerel $LN5+126
	DD	imagerel $unwind$??$?9DU?$char_traits@D@std@@V?$allocator@D@1@@std@@YA_NAEBV?$basic_string@DU?$char_traits@D@std@@V?$allocator@D@2@@0@0@Z
pdata	ENDS
;	COMDAT pdata
pdata	SEGMENT
$pdata$??0?$_Vector_const_iterator@V?$_Vector_val@U?$_Simple_types@I@std@@@std@@@std@@QEAA@PEAIPEBU_Container_base12@1@@Z DD imagerel $LN4
	DD	imagerel $LN4+130
	DD	imagerel $unwind$??0?$_Vector_const_iterator@V?$_Vector_val@U?$_Simple_types@I@std@@@std@@@std@@QEAA@PEAIPEBU_Container_base12@1@@Z
pdata	ENDS
;	COMDAT pdata
pdata	SEGMENT
$pdata$??D?$_Vector_const_iterator@V?$_Vector_val@U?$_Simple_types@I@std@@@std@@@std@@QEBAAEBIXZ DD imagerel $LN21
	DD	imagerel $LN21+385
	DD	imagerel $unwind$??D?$_Vector_const_iterator@V?$_Vector_val@U?$_Simple_types@I@std@@@std@@@std@@QEBAAEBIXZ
pdata	ENDS
;	COMDAT pdata
pdata	SEGMENT
$pdata$??E?$_Vector_const_iterator@V?$_Vector_val@U?$_Simple_types@I@std@@@std@@@std@@QEAAAEAV01@XZ DD imagerel $LN21
	DD	imagerel $LN21+386
	DD	imagerel $unwind$??E?$_Vector_const_iterator@V?$_Vector_val@U?$_Simple_types@I@std@@@std@@@std@@QEAAAEAV01@XZ
pdata	ENDS
;	COMDAT pdata
pdata	SEGMENT
$pdata$??8?$_Vector_const_iterator@V?$_Vector_val@U?$_Simple_types@I@std@@@std@@@std@@QEBA_NAEBV01@@Z DD imagerel $LN5
	DD	imagerel $LN5+141
	DD	imagerel $unwind$??8?$_Vector_const_iterator@V?$_Vector_val@U?$_Simple_types@I@std@@@std@@@std@@QEBA_NAEBV01@@Z
pdata	ENDS
;	COMDAT pdata
pdata	SEGMENT
$pdata$??9?$_Vector_const_iterator@V?$_Vector_val@U?$_Simple_types@I@std@@@std@@@std@@QEBA_NAEBV01@@Z DD imagerel $LN5
	DD	imagerel $LN5+124
	DD	imagerel $unwind$??9?$_Vector_const_iterator@V?$_Vector_val@U?$_Simple_types@I@std@@@std@@@std@@QEBA_NAEBV01@@Z
pdata	ENDS
;	COMDAT pdata
pdata	SEGMENT
$pdata$?_Compat@?$_Vector_const_iterator@V?$_Vector_val@U?$_Simple_types@I@std@@@std@@@std@@QEBAXAEBV12@@Z DD imagerel $LN12
	DD	imagerel $LN12+231
	DD	imagerel $unwind$?_Compat@?$_Vector_const_iterator@V?$_Vector_val@U?$_Simple_types@I@std@@@std@@@std@@QEBAXAEBV12@@Z
pdata	ENDS
;	COMDAT pdata
pdata	SEGMENT
$pdata$??1?$_Vector_const_iterator@V?$_Vector_val@U?$_Simple_types@I@std@@@std@@@std@@QEAA@XZ DD imagerel $LN3
	DD	imagerel $LN3+64
	DD	imagerel $unwind$??1?$_Vector_const_iterator@V?$_Vector_val@U?$_Simple_types@I@std@@@std@@@std@@QEAA@XZ
pdata	ENDS
;	COMDAT pdata
pdata	SEGMENT
$pdata$??0?$_Vector_iterator@V?$_Vector_val@U?$_Simple_types@I@std@@@std@@@std@@QEAA@PEAIPEBU_Container_base12@1@@Z DD imagerel $LN4
	DD	imagerel $LN4+107
	DD	imagerel $unwind$??0?$_Vector_iterator@V?$_Vector_val@U?$_Simple_types@I@std@@@std@@@std@@QEAA@PEAIPEBU_Container_base12@1@@Z
pdata	ENDS
;	COMDAT pdata
pdata	SEGMENT
$pdata$??D?$_Vector_iterator@V?$_Vector_val@U?$_Simple_types@I@std@@@std@@@std@@QEBAAEAIXZ DD imagerel $LN3
	DD	imagerel $LN3+76
	DD	imagerel $unwind$??D?$_Vector_iterator@V?$_Vector_val@U?$_Simple_types@I@std@@@std@@@std@@QEBAAEAIXZ
pdata	ENDS
;	COMDAT pdata
pdata	SEGMENT
$pdata$??E?$_Vector_iterator@V?$_Vector_val@U?$_Simple_types@I@std@@@std@@@std@@QEAAAEAV01@XZ DD imagerel $LN3
	DD	imagerel $LN3+83
	DD	imagerel $unwind$??E?$_Vector_iterator@V?$_Vector_val@U?$_Simple_types@I@std@@@std@@@std@@QEAAAEAV01@XZ
pdata	ENDS
;	COMDAT pdata
pdata	SEGMENT
$pdata$??1?$_Vector_iterator@V?$_Vector_val@U?$_Simple_types@I@std@@@std@@@std@@QEAA@XZ DD imagerel $LN3
	DD	imagerel $LN3+64
	DD	imagerel $unwind$??1?$_Vector_iterator@V?$_Vector_val@U?$_Simple_types@I@std@@@std@@@std@@QEAA@XZ
pdata	ENDS
;	COMDAT pdata
pdata	SEGMENT
$pdata$?__autoclassinit2@?$_Vector_iterator@V?$_Vector_val@U?$_Simple_types@I@std@@@std@@@std@@QEAAX_K@Z DD imagerel $LN3
	DD	imagerel $LN3+73
	DD	imagerel $unwind$?__autoclassinit2@?$_Vector_iterator@V?$_Vector_val@U?$_Simple_types@I@std@@@std@@@std@@QEAAX_K@Z
pdata	ENDS
;	COMDAT pdata
pdata	SEGMENT
$pdata$?sortbyscore@view@ui_layer@@YA_NAEAUScore@Persistence@technical_services_layer@@0@Z DD imagerel $LN5
	DD	imagerel $LN5+120
	DD	imagerel $unwind$?sortbyscore@view@ui_layer@@YA_NAEAUScore@Persistence@technical_services_layer@@0@Z
pdata	ENDS
;	COMDAT pdata
pdata	SEGMENT
$pdata$??0?$allocator@UScore@Persistence@technical_services_layer@@@std@@QEAA@XZ DD imagerel $LN3
	DD	imagerel $LN3+72
	DD	imagerel $unwind$??0?$allocator@UScore@Persistence@technical_services_layer@@@std@@QEAA@XZ
pdata	ENDS
;	COMDAT pdata
pdata	SEGMENT
$pdata$?deallocate@?$allocator@UScore@Persistence@technical_services_layer@@@std@@QEAAXQEAUScore@Persistence@technical_services_layer@@_K@Z DD imagerel $LN3
	DD	imagerel $LN3+97
	DD	imagerel $unwind$?deallocate@?$allocator@UScore@Persistence@technical_services_layer@@@std@@QEAAXQEAUScore@Persistence@technical_services_layer@@_K@Z
pdata	ENDS
;	COMDAT pdata
pdata	SEGMENT
$pdata$??0?$vector@UScore@Persistence@technical_services_layer@@V?$allocator@UScore@Persistence@technical_services_layer@@@std@@@std@@QEAA@XZ DD imagerel $LN3
	DD	imagerel $LN3+165
	DD	imagerel $unwind$??0?$vector@UScore@Persistence@technical_services_layer@@V?$allocator@UScore@Persistence@technical_services_layer@@@std@@@std@@QEAA@XZ
pdata	ENDS
;	COMDAT pdata
pdata	SEGMENT
$pdata$?_Move_assign@?$vector@UScore@Persistence@technical_services_layer@@V?$allocator@UScore@Persistence@technical_services_layer@@@std@@@std@@AEAAXAEAV12@U_Equal_allocators@2@@Z DD imagerel $LN3
	DD	imagerel $LN3+185
	DD	imagerel $unwind$?_Move_assign@?$vector@UScore@Persistence@technical_services_layer@@V?$allocator@UScore@Persistence@technical_services_layer@@@std@@@std@@AEAAXAEAV12@U_Equal_allocators@2@@Z
pdata	ENDS
;	COMDAT pdata
pdata	SEGMENT
$pdata$??4?$vector@UScore@Persistence@technical_services_layer@@V?$allocator@UScore@Persistence@technical_services_layer@@@std@@@std@@QEAAAEAV01@$$QEAV01@@Z DD imagerel $LN4
	DD	imagerel $LN4+146
	DD	imagerel $unwind$??4?$vector@UScore@Persistence@technical_services_layer@@V?$allocator@UScore@Persistence@technical_services_layer@@@std@@@std@@QEAAAEAV01@$$QEAV01@@Z
pdata	ENDS
;	COMDAT pdata
pdata	SEGMENT
$pdata$??1?$vector@UScore@Persistence@technical_services_layer@@V?$allocator@UScore@Persistence@technical_services_layer@@@std@@@std@@QEAA@XZ DD imagerel $LN3
	DD	imagerel $LN3+209
	DD	imagerel $unwind$??1?$vector@UScore@Persistence@technical_services_layer@@V?$allocator@UScore@Persistence@technical_services_layer@@@std@@@std@@QEAA@XZ
pdata	ENDS
;	COMDAT pdata
pdata	SEGMENT
$pdata$?begin@?$vector@UScore@Persistence@technical_services_layer@@V?$allocator@UScore@Persistence@technical_services_layer@@@std@@@std@@QEAA?AV?$_Vector_iterator@V?$_Vector_val@U?$_Simple_types@UScore@Persistence@technical_services_layer@@@std@@@std@@@2@XZ DD imagerel $LN3
	DD	imagerel $LN3+147
	DD	imagerel $unwind$?begin@?$vector@UScore@Persistence@technical_services_layer@@V?$allocator@UScore@Persistence@technical_services_layer@@@std@@@std@@QEAA?AV?$_Vector_iterator@V?$_Vector_val@U?$_Simple_types@UScore@Persistence@technical_services_layer@@@std@@@std@@@2@XZ
pdata	ENDS
;	COMDAT pdata
pdata	SEGMENT
$pdata$?end@?$vector@UScore@Persistence@technical_services_layer@@V?$allocator@UScore@Persistence@technical_services_layer@@@std@@@std@@QEAA?AV?$_Vector_iterator@V?$_Vector_val@U?$_Simple_types@UScore@Persistence@technical_services_layer@@@std@@@std@@@2@XZ DD imagerel $LN3
	DD	imagerel $LN3+147
	DD	imagerel $unwind$?end@?$vector@UScore@Persistence@technical_services_layer@@V?$allocator@UScore@Persistence@technical_services_layer@@@std@@@std@@QEAA?AV?$_Vector_iterator@V?$_Vector_val@U?$_Simple_types@UScore@Persistence@technical_services_layer@@@std@@@std@@@2@XZ
pdata	ENDS
;	COMDAT pdata
pdata	SEGMENT
$pdata$?_Destroy@?$vector@UScore@Persistence@technical_services_layer@@V?$allocator@UScore@Persistence@technical_services_layer@@@std@@@std@@AEAAXPEAUScore@Persistence@technical_services_layer@@0@Z DD imagerel $LN3
	DD	imagerel $LN3+108
	DD	imagerel $unwind$?_Destroy@?$vector@UScore@Persistence@technical_services_layer@@V?$allocator@UScore@Persistence@technical_services_layer@@@std@@@std@@AEAAXPEAUScore@Persistence@technical_services_layer@@0@Z
pdata	ENDS
;	COMDAT pdata
pdata	SEGMENT
$pdata$?_Tidy@?$vector@UScore@Persistence@technical_services_layer@@V?$allocator@UScore@Persistence@technical_services_layer@@@std@@@std@@AEAAXXZ DD imagerel $LN4
	DD	imagerel $LN4+291
	DD	imagerel $unwind$?_Tidy@?$vector@UScore@Persistence@technical_services_layer@@V?$allocator@UScore@Persistence@technical_services_layer@@@std@@@std@@AEAAXXZ
pdata	ENDS
;	COMDAT pdata
pdata	SEGMENT
$pdata$?_Getal@?$vector@UScore@Persistence@technical_services_layer@@V?$allocator@UScore@Persistence@technical_services_layer@@@std@@@std@@AEAAAEAV?$allocator@UScore@Persistence@technical_services_layer@@@2@XZ DD imagerel $LN3
	DD	imagerel $LN3+81
	DD	imagerel $unwind$?_Getal@?$vector@UScore@Persistence@technical_services_layer@@V?$allocator@UScore@Persistence@technical_services_layer@@@std@@@std@@AEAAAEAV?$allocator@UScore@Persistence@technical_services_layer@@@2@XZ
pdata	ENDS
;	COMDAT pdata
pdata	SEGMENT
$pdata$??0?$_Vector_val@U?$_Simple_types@UScore@Persistence@technical_services_layer@@@std@@@std@@QEAA@XZ DD imagerel $LN3
	DD	imagerel $LN3+128
	DD	imagerel $unwind$??0?$_Vector_val@U?$_Simple_types@UScore@Persistence@technical_services_layer@@@std@@@std@@QEAA@XZ
pdata	ENDS
;	COMDAT pdata
pdata	SEGMENT
$pdata$?_Take_contents@?$_Vector_val@U?$_Simple_types@UScore@Persistence@technical_services_layer@@@std@@@std@@QEAAXAEAV12@@Z DD imagerel $LN3
	DD	imagerel $LN3+201
	DD	imagerel $unwind$?_Take_contents@?$_Vector_val@U?$_Simple_types@UScore@Persistence@technical_services_layer@@@std@@@std@@QEAAXAEAV12@@Z
pdata	ENDS
;	COMDAT pdata
pdata	SEGMENT
$pdata$?_Get_first@?$_Compressed_pair@V?$allocator@UScore@Persistence@technical_services_layer@@@std@@V?$_Vector_val@U?$_Simple_types@UScore@Persistence@technical_services_layer@@@std@@@2@$00@std@@QEAAAEAV?$allocator@UScore@Persistence@technical_services_layer@@@2@XZ DD imagerel $LN3
	DD	imagerel $LN3+72
	DD	imagerel $unwind$?_Get_first@?$_Compressed_pair@V?$allocator@UScore@Persistence@technical_services_layer@@@std@@V?$_Vector_val@U?$_Simple_types@UScore@Persistence@technical_services_layer@@@std@@@2@$00@std@@QEAAAEAV?$allocator@UScore@Persistence@technical_services_layer@@@2@XZ
pdata	ENDS
;	COMDAT pdata
pdata	SEGMENT
$pdata$?__autoclassinit2@?$vector@UScore@Persistence@technical_services_layer@@V?$allocator@UScore@Persistence@technical_services_layer@@@std@@@std@@QEAAX_K@Z DD imagerel $LN3
	DD	imagerel $LN3+73
	DD	imagerel $unwind$?__autoclassinit2@?$vector@UScore@Persistence@technical_services_layer@@V?$allocator@UScore@Persistence@technical_services_layer@@@std@@@std@@QEAAX_K@Z
pdata	ENDS
;	COMDAT pdata
pdata	SEGMENT
$pdata$??0?$_Vector_const_iterator@V?$_Vector_val@U?$_Simple_types@UScore@Persistence@technical_services_layer@@@std@@@std@@@std@@QEAA@PEAUScore@Persistence@technical_services_layer@@PEBU_Container_base12@1@@Z DD imagerel $LN4
	DD	imagerel $LN4+130
	DD	imagerel $unwind$??0?$_Vector_const_iterator@V?$_Vector_val@U?$_Simple_types@UScore@Persistence@technical_services_layer@@@std@@@std@@@std@@QEAA@PEAUScore@Persistence@technical_services_layer@@PEBU_Container_base12@1@@Z
pdata	ENDS
;	COMDAT pdata
pdata	SEGMENT
$pdata$??D?$_Vector_const_iterator@V?$_Vector_val@U?$_Simple_types@UScore@Persistence@technical_services_layer@@@std@@@std@@@std@@QEBAAEBUScore@Persistence@technical_services_layer@@XZ DD imagerel $LN21
	DD	imagerel $LN21+385
	DD	imagerel $unwind$??D?$_Vector_const_iterator@V?$_Vector_val@U?$_Simple_types@UScore@Persistence@technical_services_layer@@@std@@@std@@@std@@QEBAAEBUScore@Persistence@technical_services_layer@@XZ
pdata	ENDS
;	COMDAT pdata
pdata	SEGMENT
$pdata$??E?$_Vector_const_iterator@V?$_Vector_val@U?$_Simple_types@UScore@Persistence@technical_services_layer@@@std@@@std@@@std@@QEAAAEAV01@XZ DD imagerel $LN21
	DD	imagerel $LN21+386
	DD	imagerel $unwind$??E?$_Vector_const_iterator@V?$_Vector_val@U?$_Simple_types@UScore@Persistence@technical_services_layer@@@std@@@std@@@std@@QEAAAEAV01@XZ
pdata	ENDS
;	COMDAT pdata
pdata	SEGMENT
$pdata$??8?$_Vector_const_iterator@V?$_Vector_val@U?$_Simple_types@UScore@Persistence@technical_services_layer@@@std@@@std@@@std@@QEBA_NAEBV01@@Z DD imagerel $LN5
	DD	imagerel $LN5+141
	DD	imagerel $unwind$??8?$_Vector_const_iterator@V?$_Vector_val@U?$_Simple_types@UScore@Persistence@technical_services_layer@@@std@@@std@@@std@@QEBA_NAEBV01@@Z
pdata	ENDS
;	COMDAT pdata
pdata	SEGMENT
$pdata$??9?$_Vector_const_iterator@V?$_Vector_val@U?$_Simple_types@UScore@Persistence@technical_services_layer@@@std@@@std@@@std@@QEBA_NAEBV01@@Z DD imagerel $LN5
	DD	imagerel $LN5+124
	DD	imagerel $unwind$??9?$_Vector_const_iterator@V?$_Vector_val@U?$_Simple_types@UScore@Persistence@technical_services_layer@@@std@@@std@@@std@@QEBA_NAEBV01@@Z
pdata	ENDS
;	COMDAT pdata
pdata	SEGMENT
$pdata$?_Compat@?$_Vector_const_iterator@V?$_Vector_val@U?$_Simple_types@UScore@Persistence@technical_services_layer@@@std@@@std@@@std@@QEBAXAEBV12@@Z DD imagerel $LN12
	DD	imagerel $LN12+231
	DD	imagerel $unwind$?_Compat@?$_Vector_const_iterator@V?$_Vector_val@U?$_Simple_types@UScore@Persistence@technical_services_layer@@@std@@@std@@@std@@QEBAXAEBV12@@Z
pdata	ENDS
;	COMDAT pdata
pdata	SEGMENT
$pdata$?_Verify_range@std@@YAXAEBV?$_Vector_const_iterator@V?$_Vector_val@U?$_Simple_types@UScore@Persistence@technical_services_layer@@@std@@@std@@@1@0@Z DD imagerel $LN21
	DD	imagerel $LN21+374
	DD	imagerel $unwind$?_Verify_range@std@@YAXAEBV?$_Vector_const_iterator@V?$_Vector_val@U?$_Simple_types@UScore@Persistence@technical_services_layer@@@std@@@std@@@1@0@Z
pdata	ENDS
;	COMDAT pdata
pdata	SEGMENT
$pdata$??1?$_Vector_const_iterator@V?$_Vector_val@U?$_Simple_types@UScore@Persistence@technical_services_layer@@@std@@@std@@@std@@QEAA@XZ DD imagerel $LN3
	DD	imagerel $LN3+64
	DD	imagerel $unwind$??1?$_Vector_const_iterator@V?$_Vector_val@U?$_Simple_types@UScore@Persistence@technical_services_layer@@@std@@@std@@@std@@QEAA@XZ
pdata	ENDS
;	COMDAT pdata
pdata	SEGMENT
$pdata$??0?$_Vector_iterator@V?$_Vector_val@U?$_Simple_types@UScore@Persistence@technical_services_layer@@@std@@@std@@@std@@QEAA@PEAUScore@Persistence@technical_services_layer@@PEBU_Container_base12@1@@Z DD imagerel $LN4
	DD	imagerel $LN4+107
	DD	imagerel $unwind$??0?$_Vector_iterator@V?$_Vector_val@U?$_Simple_types@UScore@Persistence@technical_services_layer@@@std@@@std@@@std@@QEAA@PEAUScore@Persistence@technical_services_layer@@PEBU_Container_base12@1@@Z
pdata	ENDS
;	COMDAT pdata
pdata	SEGMENT
$pdata$??D?$_Vector_iterator@V?$_Vector_val@U?$_Simple_types@UScore@Persistence@technical_services_layer@@@std@@@std@@@std@@QEBAAEAUScore@Persistence@technical_services_layer@@XZ DD imagerel $LN3
	DD	imagerel $LN3+76
	DD	imagerel $unwind$??D?$_Vector_iterator@V?$_Vector_val@U?$_Simple_types@UScore@Persistence@technical_services_layer@@@std@@@std@@@std@@QEBAAEAUScore@Persistence@technical_services_layer@@XZ
pdata	ENDS
;	COMDAT pdata
pdata	SEGMENT
$pdata$??E?$_Vector_iterator@V?$_Vector_val@U?$_Simple_types@UScore@Persistence@technical_services_layer@@@std@@@std@@@std@@QEAAAEAV01@XZ DD imagerel $LN3
	DD	imagerel $LN3+83
	DD	imagerel $unwind$??E?$_Vector_iterator@V?$_Vector_val@U?$_Simple_types@UScore@Persistence@technical_services_layer@@@std@@@std@@@std@@QEAAAEAV01@XZ
pdata	ENDS
;	COMDAT pdata
pdata	SEGMENT
$pdata$?_Unwrapped@?$_Vector_iterator@V?$_Vector_val@U?$_Simple_types@UScore@Persistence@technical_services_layer@@@std@@@std@@@std@@QEBAPEAUScore@Persistence@technical_services_layer@@XZ DD imagerel $LN3
	DD	imagerel $LN3+80
	DD	imagerel $unwind$?_Unwrapped@?$_Vector_iterator@V?$_Vector_val@U?$_Simple_types@UScore@Persistence@technical_services_layer@@@std@@@std@@@std@@QEBAPEAUScore@Persistence@technical_services_layer@@XZ
pdata	ENDS
;	COMDAT pdata
pdata	SEGMENT
$pdata$??1?$_Vector_iterator@V?$_Vector_val@U?$_Simple_types@UScore@Persistence@technical_services_layer@@@std@@@std@@@std@@QEAA@XZ DD imagerel $LN3
	DD	imagerel $LN3+64
	DD	imagerel $unwind$??1?$_Vector_iterator@V?$_Vector_val@U?$_Simple_types@UScore@Persistence@technical_services_layer@@@std@@@std@@@std@@QEAA@XZ
pdata	ENDS
;	COMDAT pdata
pdata	SEGMENT
$pdata$?__autoclassinit2@?$_Vector_iterator@V?$_Vector_val@U?$_Simple_types@UScore@Persistence@technical_services_layer@@@std@@@std@@@std@@QEAAX_K@Z DD imagerel $LN3
	DD	imagerel $LN3+73
	DD	imagerel $unwind$?__autoclassinit2@?$_Vector_iterator@V?$_Vector_val@U?$_Simple_types@UScore@Persistence@technical_services_layer@@@std@@@std@@@std@@QEAAX_K@Z
pdata	ENDS
;	COMDAT pdata
pdata	SEGMENT
$pdata$??$sort@V?$_Vector_iterator@V?$_Vector_val@U?$_Simple_types@UScore@Persistence@technical_services_layer@@@std@@@std@@@std@@P6A_NAEAUScore@Persistence@technical_services_layer@@0@Z@std@@YAXV?$_Vector_iterator@V?$_Vector_val@U?$_Simple_types@UScore@Persistence@technical_services_layer@@@std@@@std@@@0@0P6A_NAEAUScore@Persistence@technical_services_layer@@1@Z@Z DD imagerel $LN5
	DD	imagerel $LN5+223
	DD	imagerel $unwind$??$sort@V?$_Vector_iterator@V?$_Vector_val@U?$_Simple_types@UScore@Persistence@technical_services_layer@@@std@@@std@@@std@@P6A_NAEAUScore@Persistence@technical_services_layer@@0@Z@std@@YAXV?$_Vector_iterator@V?$_Vector_val@U?$_Simple_types@UScore@Persistence@technical_services_layer@@@std@@@std@@@0@0P6A_NAEAUScore@Persistence@technical_services_layer@@1@Z@Z
pdata	ENDS
;	COMDAT pdata
pdata	SEGMENT
$pdata$?dtor$0@?0???$sort@V?$_Vector_iterator@V?$_Vector_val@U?$_Simple_types@UScore@Persistence@technical_services_layer@@@std@@@std@@@std@@P6A_NAEAUScore@Persistence@technical_services_layer@@0@Z@std@@YAXV?$_Vector_iterator@V?$_Vector_val@U?$_Simple_types@UScore@Persistence@technical_services_layer@@@std@@@std@@@0@0P6A_NAEAUScore@Persistence@technical_services_layer@@1@Z@Z@4HA DD imagerel ?dtor$0@?0???$sort@V?$_Vector_iterator@V?$_Vector_val@U?$_Simple_types@UScore@Persistence@technical_services_layer@@@std@@@std@@@std@@P6A_NAEAUScore@Persistence@technical_services_layer@@0@Z@std@@YAXV?$_Vector_iterator@V?$_Vector_val@U?$_Simple_types@UScore@Persistence@technical_services_layer@@@std@@@std@@@0@0P6A_NAEAUScore@Persistence@technical_services_layer@@1@Z@Z@4HA
	DD	imagerel ?dtor$0@?0???$sort@V?$_Vector_iterator@V?$_Vector_val@U?$_Simple_types@UScore@Persistence@technical_services_layer@@@std@@@std@@@std@@P6A_NAEAUScore@Persistence@technical_services_layer@@0@Z@std@@YAXV?$_Vector_iterator@V?$_Vector_val@U?$_Simple_types@UScore@Persistence@technical_services_layer@@@std@@@std@@@0@0P6A_NAEAUScore@Persistence@technical_services_layer@@1@Z@Z@4HA+39
	DD	imagerel $unwind$?dtor$0@?0???$sort@V?$_Vector_iterator@V?$_Vector_val@U?$_Simple_types@UScore@Persistence@technical_services_layer@@@std@@@std@@@std@@P6A_NAEAUScore@Persistence@technical_services_layer@@0@Z@std@@YAXV?$_Vector_iterator@V?$_Vector_val@U?$_Simple_types@UScore@Persistence@technical_services_layer@@@std@@@std@@@0@0P6A_NAEAUScore@Persistence@technical_services_layer@@1@Z@Z@4HA
pdata	ENDS
;	COMDAT pdata
pdata	SEGMENT
$pdata$?dtor$1@?0???$sort@V?$_Vector_iterator@V?$_Vector_val@U?$_Simple_types@UScore@Persistence@technical_services_layer@@@std@@@std@@@std@@P6A_NAEAUScore@Persistence@technical_services_layer@@0@Z@std@@YAXV?$_Vector_iterator@V?$_Vector_val@U?$_Simple_types@UScore@Persistence@technical_services_layer@@@std@@@std@@@0@0P6A_NAEAUScore@Persistence@technical_services_layer@@1@Z@Z@4HA DD imagerel ?dtor$1@?0???$sort@V?$_Vector_iterator@V?$_Vector_val@U?$_Simple_types@UScore@Persistence@technical_services_layer@@@std@@@std@@@std@@P6A_NAEAUScore@Persistence@technical_services_layer@@0@Z@std@@YAXV?$_Vector_iterator@V?$_Vector_val@U?$_Simple_types@UScore@Persistence@technical_services_layer@@@std@@@std@@@0@0P6A_NAEAUScore@Persistence@technical_services_layer@@1@Z@Z@4HA
	DD	imagerel ?dtor$1@?0???$sort@V?$_Vector_iterator@V?$_Vector_val@U?$_Simple_types@UScore@Persistence@technical_services_layer@@@std@@@std@@@std@@P6A_NAEAUScore@Persistence@technical_services_layer@@0@Z@std@@YAXV?$_Vector_iterator@V?$_Vector_val@U?$_Simple_types@UScore@Persistence@technical_services_layer@@@std@@@std@@@0@0P6A_NAEAUScore@Persistence@technical_services_layer@@1@Z@Z@4HA+39
	DD	imagerel $unwind$?dtor$1@?0???$sort@V?$_Vector_iterator@V?$_Vector_val@U?$_Simple_types@UScore@Persistence@technical_services_layer@@@std@@@std@@@std@@P6A_NAEAUScore@Persistence@technical_services_layer@@0@Z@std@@YAXV?$_Vector_iterator@V?$_Vector_val@U?$_Simple_types@UScore@Persistence@technical_services_layer@@@std@@@std@@@0@0P6A_NAEAUScore@Persistence@technical_services_layer@@1@Z@Z@4HA
pdata	ENDS
;	COMDAT pdata
pdata	SEGMENT
$pdata$??$sprintf_s@$0BE@@@YAHAEAY0BE@DPEBDZZ DD imagerel $LN3
	DD	imagerel $LN3+176
	DD	imagerel $unwind$??$sprintf_s@$0BE@@@YAHAEAY0BE@DPEBDZZ
pdata	ENDS
;	COMDAT pdata
pdata	SEGMENT
$pdata$??$addressof@V?$_Vector_val@U?$_Simple_types@UScore@Persistence@technical_services_layer@@@std@@@std@@@std@@YAPEAV?$_Vector_val@U?$_Simple_types@UScore@Persistence@technical_services_layer@@@std@@@0@AEAV10@@Z DD imagerel $LN3
	DD	imagerel $LN3+72
	DD	imagerel $unwind$??$addressof@V?$_Vector_val@U?$_Simple_types@UScore@Persistence@technical_services_layer@@@std@@@std@@@std@@YAPEAV?$_Vector_val@U?$_Simple_types@UScore@Persistence@technical_services_layer@@@std@@@0@AEAV10@@Z
pdata	ENDS
;	COMDAT pdata
pdata	SEGMENT
$pdata$?allocate@?$allocator@U_Container_proxy@std@@@std@@QEAAPEAU_Container_proxy@2@_K@Z DD imagerel $LN3
	DD	imagerel $LN3+89
	DD	imagerel $unwind$?allocate@?$allocator@U_Container_proxy@std@@@std@@QEAAPEAU_Container_proxy@2@_K@Z
pdata	ENDS
;	COMDAT pdata
pdata	SEGMENT
$pdata$??$?0UScore@Persistence@technical_services_layer@@@?$allocator@U_Container_proxy@std@@@std@@QEAA@AEBV?$allocator@UScore@Persistence@technical_services_layer@@@1@@Z DD imagerel $LN3
	DD	imagerel $LN3+77
	DD	imagerel $unwind$??$?0UScore@Persistence@technical_services_layer@@@?$allocator@U_Container_proxy@std@@@std@@QEAA@AEBV?$allocator@UScore@Persistence@technical_services_layer@@@1@@Z
pdata	ENDS
;	COMDAT pdata
pdata	SEGMENT
$pdata$??$exchange@PEAU_Container_proxy@std@@$$T@std@@YAPEAU_Container_proxy@0@AEAPEAU10@$$QEA$$T@Z DD imagerel $LN3
	DD	imagerel $LN3+107
	DD	imagerel $unwind$??$exchange@PEAU_Container_proxy@std@@$$T@std@@YAPEAU_Container_proxy@0@AEAPEAU10@$$QEA$$T@Z
pdata	ENDS
;	COMDAT pdata
pdata	SEGMENT
$pdata$??$_Delete_plain_internal@V?$allocator@U_Container_proxy@std@@@std@@@std@@YAXAEAV?$allocator@U_Container_proxy@std@@@0@QEAU_Container_proxy@0@@Z DD imagerel $LN3
	DD	imagerel $LN3+90
	DD	imagerel $unwind$??$_Delete_plain_internal@V?$allocator@U_Container_proxy@std@@@std@@@std@@YAXAEAV?$allocator@U_Container_proxy@std@@@0@QEAU_Container_proxy@0@@Z
pdata	ENDS
;	COMDAT pdata
pdata	SEGMENT
$pdata$??$addressof@V?$vector@UScore@Persistence@technical_services_layer@@V?$allocator@UScore@Persistence@technical_services_layer@@@std@@@std@@@std@@YAPEAV?$vector@UScore@Persistence@technical_services_layer@@V?$allocator@UScore@Persistence@technical_services_layer@@@std@@@0@AEAV10@@Z DD imagerel $LN3
	DD	imagerel $LN3+72
	DD	imagerel $unwind$??$addressof@V?$vector@UScore@Persistence@technical_services_layer@@V?$allocator@UScore@Persistence@technical_services_layer@@@std@@@std@@@std@@YAPEAV?$vector@UScore@Persistence@technical_services_layer@@V?$allocator@UScore@Persistence@technical_services_layer@@@std@@@0@AEAV10@@Z
pdata	ENDS
;	COMDAT pdata
pdata	SEGMENT
$pdata$??$?0$$V@?$_Compressed_pair@V?$allocator@UScore@Persistence@technical_services_layer@@@std@@V?$_Vector_val@U?$_Simple_types@UScore@Persistence@technical_services_layer@@@std@@@2@$00@std@@QEAA@U_Zero_then_variadic_args_t@1@@Z DD imagerel $LN3
	DD	imagerel $LN3+102
	DD	imagerel $unwind$??$?0$$V@?$_Compressed_pair@V?$allocator@UScore@Persistence@technical_services_layer@@@std@@V?$_Vector_val@U?$_Simple_types@UScore@Persistence@technical_services_layer@@@std@@@2@$00@std@@QEAA@U_Zero_then_variadic_args_t@1@@Z
pdata	ENDS
;	COMDAT pdata
pdata	SEGMENT
$pdata$??$_Alloc_proxy@V?$allocator@U_Container_proxy@std@@@std@@@_Container_base12@std@@QEAAX$$QEAV?$allocator@U_Container_proxy@std@@@1@@Z DD imagerel $LN3
	DD	imagerel $LN3+156
	DD	imagerel $unwind$??$_Alloc_proxy@V?$allocator@U_Container_proxy@std@@@std@@@_Container_base12@std@@QEAAX$$QEAV?$allocator@U_Container_proxy@std@@@1@@Z
pdata	ENDS
;	COMDAT pdata
pdata	SEGMENT
$pdata$??0?$ostreambuf_iterator@DU?$char_traits@D@std@@@std@@QEAA@PEAV?$basic_streambuf@DU?$char_traits@D@std@@@1@@Z DD imagerel $LN3
	DD	imagerel $LN3+105
	DD	imagerel $unwind$??0?$ostreambuf_iterator@DU?$char_traits@D@std@@@std@@QEAA@PEAV?$basic_streambuf@DU?$char_traits@D@std@@@1@@Z
pdata	ENDS
;	COMDAT pdata
pdata	SEGMENT
$pdata$?failed@?$ostreambuf_iterator@DU?$char_traits@D@std@@@std@@QEBA_NXZ DD imagerel $LN3
	DD	imagerel $LN3+75
	DD	imagerel $unwind$?failed@?$ostreambuf_iterator@DU?$char_traits@D@std@@@std@@QEBA_NXZ
pdata	ENDS
;	COMDAT pdata
pdata	SEGMENT
$pdata$??$?0USDL_Point@@@?$allocator@U_Container_proxy@std@@@std@@QEAA@AEBV?$allocator@USDL_Point@@@1@@Z DD imagerel $LN3
	DD	imagerel $LN3+77
	DD	imagerel $unwind$??$?0USDL_Point@@@?$allocator@U_Container_proxy@std@@@std@@QEAA@AEBV?$allocator@USDL_Point@@@1@@Z
pdata	ENDS
;	COMDAT pdata
pdata	SEGMENT
$pdata$??$addressof@V?$_Vector_val@U?$_Simple_types@I@std@@@std@@@std@@YAPEAV?$_Vector_val@U?$_Simple_types@I@std@@@0@AEAV10@@Z DD imagerel $LN3
	DD	imagerel $LN3+72
	DD	imagerel $unwind$??$addressof@V?$_Vector_val@U?$_Simple_types@I@std@@@std@@@std@@YAPEAV?$_Vector_val@U?$_Simple_types@I@std@@@0@AEAV10@@Z
pdata	ENDS
;	COMDAT pdata
pdata	SEGMENT
$pdata$??$?0I@?$allocator@U_Container_proxy@std@@@std@@QEAA@AEBV?$allocator@I@1@@Z DD imagerel $LN3
	DD	imagerel $LN3+77
	DD	imagerel $unwind$??$?0I@?$allocator@U_Container_proxy@std@@@std@@QEAA@AEBV?$allocator@I@1@@Z
pdata	ENDS
;	COMDAT pdata
pdata	SEGMENT
$pdata$??$addressof@V?$vector@IV?$allocator@I@std@@@std@@@std@@YAPEAV?$vector@IV?$allocator@I@std@@@0@AEAV10@@Z DD imagerel $LN3
	DD	imagerel $LN3+72
	DD	imagerel $unwind$??$addressof@V?$vector@IV?$allocator@I@std@@@std@@@std@@YAPEAV?$vector@IV?$allocator@I@std@@@0@AEAV10@@Z
pdata	ENDS
;	COMDAT pdata
pdata	SEGMENT
$pdata$??$?0$$V@?$_Compressed_pair@V?$allocator@I@std@@V?$_Vector_val@U?$_Simple_types@I@std@@@2@$00@std@@QEAA@U_Zero_then_variadic_args_t@1@@Z DD imagerel $LN3
	DD	imagerel $LN3+102
	DD	imagerel $unwind$??$?0$$V@?$_Compressed_pair@V?$allocator@I@std@@V?$_Vector_val@U?$_Simple_types@I@std@@@2@$00@std@@QEAA@U_Zero_then_variadic_args_t@1@@Z
pdata	ENDS
;	COMDAT pdata
pdata	SEGMENT
$pdata$??0_Sentry_base@?$basic_istream@DU?$char_traits@D@std@@@std@@QEAA@AEAV12@@Z DD imagerel $LN4
	DD	imagerel $LN4+171
	DD	imagerel $unwind$??0_Sentry_base@?$basic_istream@DU?$char_traits@D@std@@@std@@QEAA@AEAV12@@Z
pdata	ENDS
;	COMDAT pdata
pdata	SEGMENT
$pdata$??1_Sentry_base@?$basic_istream@DU?$char_traits@D@std@@@std@@QEAA@XZ DD imagerel $LN4
	DD	imagerel $LN4+145
	DD	imagerel $unwind$??1_Sentry_base@?$basic_istream@DU?$char_traits@D@std@@@std@@QEAA@XZ
pdata	ENDS
;	COMDAT pdata
pdata	SEGMENT
$pdata$??0sentry@?$basic_istream@DU?$char_traits@D@std@@@std@@QEAA@AEAV12@_N@Z DD imagerel $LN4
	DD	imagerel $LN4+148
	DD	imagerel $unwind$??0sentry@?$basic_istream@DU?$char_traits@D@std@@@std@@QEAA@AEAV12@_N@Z
pdata	ENDS
;	COMDAT pdata
pdata	SEGMENT
$pdata$?dtor$0@?0???0sentry@?$basic_istream@DU?$char_traits@D@std@@@std@@QEAA@AEAV12@_N@Z@4HA DD imagerel ?dtor$0@?0???0sentry@?$basic_istream@DU?$char_traits@D@std@@@std@@QEAA@AEAV12@_N@Z@4HA
	DD	imagerel ?dtor$0@?0???0sentry@?$basic_istream@DU?$char_traits@D@std@@@std@@QEAA@AEAV12@_N@Z@4HA+39
	DD	imagerel $unwind$?dtor$0@?0???0sentry@?$basic_istream@DU?$char_traits@D@std@@@std@@QEAA@AEAV12@_N@Z@4HA
pdata	ENDS
;	COMDAT pdata
pdata	SEGMENT
$pdata$??Bsentry@?$basic_istream@DU?$char_traits@D@std@@@std@@QEBA_NXZ DD imagerel $LN3
	DD	imagerel $LN3+75
	DD	imagerel $unwind$??Bsentry@?$basic_istream@DU?$char_traits@D@std@@@std@@QEBA_NXZ
pdata	ENDS
;	COMDAT pdata
pdata	SEGMENT
$pdata$??1sentry@?$basic_istream@DU?$char_traits@D@std@@@std@@QEAA@XZ DD imagerel $LN3
	DD	imagerel $LN3+64
	DD	imagerel $unwind$??1sentry@?$basic_istream@DU?$char_traits@D@std@@@std@@QEAA@XZ
pdata	ENDS
;	COMDAT pdata
pdata	SEGMENT
$pdata$??0_Sentry_base@?$basic_ostream@DU?$char_traits@D@std@@@std@@QEAA@AEAV12@@Z DD imagerel $LN4
	DD	imagerel $LN4+171
	DD	imagerel $unwind$??0_Sentry_base@?$basic_ostream@DU?$char_traits@D@std@@@std@@QEAA@AEAV12@@Z
pdata	ENDS
;	COMDAT pdata
pdata	SEGMENT
$pdata$??1_Sentry_base@?$basic_ostream@DU?$char_traits@D@std@@@std@@QEAA@XZ DD imagerel $LN4
	DD	imagerel $LN4+145
	DD	imagerel $unwind$??1_Sentry_base@?$basic_ostream@DU?$char_traits@D@std@@@std@@QEAA@XZ
pdata	ENDS
;	COMDAT pdata
pdata	SEGMENT
$pdata$??0sentry@?$basic_ostream@DU?$char_traits@D@std@@@std@@QEAA@AEAV12@@Z DD imagerel $LN7
	DD	imagerel $LN7+284
	DD	imagerel $unwind$??0sentry@?$basic_ostream@DU?$char_traits@D@std@@@std@@QEAA@AEAV12@@Z
pdata	ENDS
;	COMDAT pdata
pdata	SEGMENT
$pdata$?dtor$0@?0???0sentry@?$basic_ostream@DU?$char_traits@D@std@@@std@@QEAA@AEAV12@@Z@4HA DD imagerel ?dtor$0@?0???0sentry@?$basic_ostream@DU?$char_traits@D@std@@@std@@QEAA@AEAV12@@Z@4HA
	DD	imagerel ?dtor$0@?0???0sentry@?$basic_ostream@DU?$char_traits@D@std@@@std@@QEAA@AEAV12@@Z@4HA+39
	DD	imagerel $unwind$?dtor$0@?0???0sentry@?$basic_ostream@DU?$char_traits@D@std@@@std@@QEAA@AEAV12@@Z@4HA
pdata	ENDS
;	COMDAT pdata
pdata	SEGMENT
$pdata$??1sentry@?$basic_ostream@DU?$char_traits@D@std@@@std@@QEAA@XZ DD imagerel $LN4
	DD	imagerel $LN4+108
	DD	imagerel $unwind$??1sentry@?$basic_ostream@DU?$char_traits@D@std@@@std@@QEAA@XZ
pdata	ENDS
;	COMDAT pdata
pdata	SEGMENT
$pdata$??Bsentry@?$basic_ostream@DU?$char_traits@D@std@@@std@@QEBA_NXZ DD imagerel $LN3
	DD	imagerel $LN3+75
	DD	imagerel $unwind$??Bsentry@?$basic_ostream@DU?$char_traits@D@std@@@std@@QEBA_NXZ
pdata	ENDS
;	COMDAT pdata
pdata	SEGMENT
$pdata$??0?$_Container_proxy_ptr12@V?$allocator@U_Container_proxy@std@@@std@@@std@@QEAA@AEAV?$allocator@U_Container_proxy@std@@@1@AEAU_Container_base12@1@@Z DD imagerel $LN3
	DD	imagerel $LN3+195
	DD	imagerel $unwind$??0?$_Container_proxy_ptr12@V?$allocator@U_Container_proxy@std@@@std@@@std@@QEAA@AEAV?$allocator@U_Container_proxy@std@@@1@AEAU_Container_base12@1@@Z
pdata	ENDS
;	COMDAT pdata
pdata	SEGMENT
$pdata$??1?$_Container_proxy_ptr12@V?$allocator@U_Container_proxy@std@@@std@@@std@@QEAA@XZ DD imagerel $LN4
	DD	imagerel $LN4+105
	DD	imagerel $unwind$??1?$_Container_proxy_ptr12@V?$allocator@U_Container_proxy@std@@@std@@@std@@QEAA@XZ
pdata	ENDS
;	COMDAT pdata
pdata	SEGMENT
$pdata$??$_Unfancy@D@std@@YAPEADPEAD@Z DD imagerel $LN3
	DD	imagerel $LN3+71
	DD	imagerel $unwind$??$_Unfancy@D@std@@YAPEADPEAD@Z
pdata	ENDS
;	COMDAT pdata
pdata	SEGMENT
$pdata$??$addressof@$$CBV?$basic_string@DU?$char_traits@D@std@@V?$allocator@D@2@@std@@@std@@YAPEBV?$basic_string@DU?$char_traits@D@std@@V?$allocator@D@2@@0@AEBV10@@Z DD imagerel $LN3
	DD	imagerel $LN3+72
	DD	imagerel $unwind$??$addressof@$$CBV?$basic_string@DU?$char_traits@D@std@@V?$allocator@D@2@@std@@@std@@YAPEBV?$basic_string@DU?$char_traits@D@std@@V?$allocator@D@2@@0@AEBV10@@Z
pdata	ENDS
;	COMDAT pdata
pdata	SEGMENT
$pdata$??$?0D@?$allocator@U_Container_proxy@std@@@std@@QEAA@AEBV?$allocator@D@1@@Z DD imagerel $LN3
	DD	imagerel $LN3+77
	DD	imagerel $unwind$??$?0D@?$allocator@U_Container_proxy@std@@@std@@QEAA@AEBV?$allocator@D@1@@Z
pdata	ENDS
;	COMDAT pdata
pdata	SEGMENT
$pdata$??$addressof@V?$basic_string@DU?$char_traits@D@std@@V?$allocator@D@2@@std@@@std@@YAPEAV?$basic_string@DU?$char_traits@D@std@@V?$allocator@D@2@@0@AEAV10@@Z DD imagerel $LN3
	DD	imagerel $LN3+72
	DD	imagerel $unwind$??$addressof@V?$basic_string@DU?$char_traits@D@std@@V?$allocator@D@2@@std@@@std@@YAPEAV?$basic_string@DU?$char_traits@D@std@@V?$allocator@D@2@@0@AEAV10@@Z
pdata	ENDS
;	COMDAT pdata
pdata	SEGMENT
$pdata$??$move@AEAV?$allocator@D@std@@@std@@YA$$QEAV?$allocator@D@0@AEAV10@@Z DD imagerel $LN3
	DD	imagerel $LN3+72
	DD	imagerel $unwind$??$move@AEAV?$allocator@D@std@@@std@@YA$$QEAV?$allocator@D@0@AEAV10@@Z
pdata	ENDS
;	COMDAT pdata
pdata	SEGMENT
$pdata$??$?0V?$allocator@D@std@@$$V@?$_Compressed_pair@V?$allocator@D@std@@V?$_String_val@U?$_Simple_types@D@std@@@2@$00@std@@QEAA@U_One_then_variadic_args_t@1@$$QEAV?$allocator@D@1@@Z DD imagerel $LN4
	DD	imagerel $LN4+107
	DD	imagerel $unwind$??$?0V?$allocator@D@std@@$$V@?$_Compressed_pair@V?$allocator@D@std@@V?$_String_val@U?$_Simple_types@D@std@@@2@$00@std@@QEAA@U_One_then_variadic_args_t@1@$$QEAV?$allocator@D@1@@Z
pdata	ENDS
;	COMDAT pdata
pdata	SEGMENT
$pdata$??$?0$$V@?$_Compressed_pair@V?$allocator@D@std@@V?$_String_val@U?$_Simple_types@D@std@@@2@$00@std@@QEAA@U_Zero_then_variadic_args_t@1@@Z DD imagerel $LN4
	DD	imagerel $LN4+102
	DD	imagerel $unwind$??$?0$$V@?$_Compressed_pair@V?$allocator@D@std@@V?$_String_val@U?$_Simple_types@D@std@@@2@$00@std@@QEAA@U_Zero_then_variadic_args_t@1@@Z
pdata	ENDS
;	COMDAT pdata
pdata	SEGMENT
$pdata$??$_Unfancy@U_Container_proxy@std@@@std@@YAPEAU_Container_proxy@0@PEAU10@@Z DD imagerel $LN3
	DD	imagerel $LN3+71
	DD	imagerel $unwind$??$_Unfancy@U_Container_proxy@std@@@std@@YAPEAU_Container_proxy@0@PEAU10@@Z
pdata	ENDS
;	COMDAT pdata
pdata	SEGMENT
$pdata$??$_Pocma@V?$allocator@UScore@Persistence@technical_services_layer@@@std@@@std@@YAXAEAV?$allocator@UScore@Persistence@technical_services_layer@@@0@0@Z DD imagerel $LN3
	DD	imagerel $LN3+83
	DD	imagerel $unwind$??$_Pocma@V?$allocator@UScore@Persistence@technical_services_layer@@@std@@@std@@YAXAEAV?$allocator@UScore@Persistence@technical_services_layer@@@0@0@Z
pdata	ENDS
;	COMDAT pdata
pdata	SEGMENT
$pdata$??$_Pocma@V?$allocator@I@std@@@std@@YAXAEAV?$allocator@I@0@0@Z DD imagerel $LN3
	DD	imagerel $LN3+83
	DD	imagerel $unwind$??$_Pocma@V?$allocator@I@std@@@std@@YAXAEAV?$allocator@I@0@0@Z
pdata	ENDS
;	COMDAT pdata
pdata	SEGMENT
$pdata$??$_Destroy_in_place@PEAD@std@@YAXAEAPEAD@Z DD imagerel $LN3
	DD	imagerel $LN3+65
	DD	imagerel $unwind$??$_Destroy_in_place@PEAD@std@@YAXAEAPEAD@Z
pdata	ENDS
;	COMDAT pdata
pdata	SEGMENT
$pdata$??$_Max_value@_K@std@@YAAEB_KAEB_K0@Z DD imagerel $LN5
	DD	imagerel $LN5+143
	DD	imagerel $unwind$??$_Max_value@_K@std@@YAAEB_KAEB_K0@Z
pdata	ENDS
;	COMDAT pdata
pdata	SEGMENT
$pdata$??R<lambda_319d5e083f45f90dcdce5dce53cbb275>@@QEBA@QEADQEBD_KD@Z DD imagerel $LN3
	DD	imagerel $LN3+181
	DD	imagerel $unwind$??R<lambda_319d5e083f45f90dcdce5dce53cbb275>@@QEBA@QEADQEBD_KD@Z
pdata	ENDS
;	COMDAT pdata
pdata	SEGMENT
$pdata$??$_Reallocate_grow_by@V<lambda_319d5e083f45f90dcdce5dce53cbb275>@@D@?$basic_string@DU?$char_traits@D@std@@V?$allocator@D@2@@std@@AEAAAEAV01@_KV<lambda_319d5e083f45f90dcdce5dce53cbb275>@@D@Z DD imagerel $LN6
	DD	imagerel $LN6+552
	DD	imagerel $unwind$??$_Reallocate_grow_by@V<lambda_319d5e083f45f90dcdce5dce53cbb275>@@D@?$basic_string@DU?$char_traits@D@std@@V?$allocator@D@2@@std@@AEAAAEAV01@_KV<lambda_319d5e083f45f90dcdce5dce53cbb275>@@D@Z
pdata	ENDS
;	COMDAT pdata
pdata	SEGMENT
$pdata$??R<lambda_66f57f934f28d61049862f64df852ff0>@@QEBA@QEAD_KQEBD@Z DD imagerel $LN3
	DD	imagerel $LN3+147
	DD	imagerel $unwind$??R<lambda_66f57f934f28d61049862f64df852ff0>@@QEBA@QEAD_KQEBD@Z
pdata	ENDS
;	COMDAT pdata
pdata	SEGMENT
$pdata$??$_Reallocate_for@V<lambda_66f57f934f28d61049862f64df852ff0>@@PEBD@?$basic_string@DU?$char_traits@D@std@@V?$allocator@D@2@@std@@AEAAAEAV01@_KV<lambda_66f57f934f28d61049862f64df852ff0>@@PEBD@Z DD imagerel $LN6
	DD	imagerel $LN6+418
	DD	imagerel $unwind$??$_Reallocate_for@V<lambda_66f57f934f28d61049862f64df852ff0>@@PEBD@?$basic_string@DU?$char_traits@D@std@@V?$allocator@D@2@@std@@AEAAAEAV01@_KV<lambda_66f57f934f28d61049862f64df852ff0>@@PEBD@Z
pdata	ENDS
;	COMDAT pdata
pdata	SEGMENT
$pdata$??$_Pocca@V?$allocator@D@std@@@std@@YAXAEAV?$allocator@D@0@AEBV10@@Z DD imagerel $LN3
	DD	imagerel $LN3+70
	DD	imagerel $unwind$??$_Pocca@V?$allocator@D@std@@@std@@YAXAEAV?$allocator@D@0@AEBV10@@Z
pdata	ENDS
;	COMDAT pdata
pdata	SEGMENT
$pdata$??$_Construct_in_place@PEADAEBQEAD@std@@YAXAEAPEADAEBQEAD@Z DD imagerel $LN3
	DD	imagerel $LN3+130
	DD	imagerel $unwind$??$_Construct_in_place@PEADAEBQEAD@std@@YAXAEAPEADAEBQEAD@Z
pdata	ENDS
;	COMDAT pdata
pdata	SEGMENT
$pdata$??$_Pocma@V?$allocator@D@std@@@std@@YAXAEAV?$allocator@D@0@0@Z DD imagerel $LN3
	DD	imagerel $LN3+83
	DD	imagerel $unwind$??$_Pocma@V?$allocator@D@std@@@std@@YAXAEAV?$allocator@D@0@0@Z
pdata	ENDS
;	COMDAT pdata
pdata	SEGMENT
$pdata$??$_Get_size_of_n@$00@std@@YA_K_K@Z DD imagerel $LN3
	DD	imagerel $LN3+75
	DD	imagerel $unwind$??$_Get_size_of_n@$00@std@@YA_K_K@Z
pdata	ENDS
;	COMDAT pdata
pdata	SEGMENT
$pdata$??$_Allocate@$0BA@U_Default_allocate_traits@std@@$0A@@std@@YAPEAX_K@Z DD imagerel $LN5
	DD	imagerel $LN5+117
	DD	imagerel $unwind$??$_Allocate@$0BA@U_Default_allocate_traits@std@@$0A@@std@@YAPEAX_K@Z
pdata	ENDS
;	COMDAT pdata
pdata	SEGMENT
$pdata$??$_Deallocate@$0BA@$0A@@std@@YAXPEAX_K@Z DD imagerel $LN4
	DD	imagerel $LN4+123
	DD	imagerel $unwind$??$_Deallocate@$0BA@$0A@@std@@YAXPEAX_K@Z
pdata	ENDS
;	COMDAT pdata
pdata	SEGMENT
$pdata$??$_Get_size_of_n@$0BA@@std@@YA_K_K@Z DD imagerel $LN4
	DD	imagerel $LN4+114
	DD	imagerel $unwind$??$_Get_size_of_n@$0BA@@std@@YA_K_K@Z
pdata	ENDS
;	COMDAT pdata
pdata	SEGMENT
$pdata$??$_Destroy_range@V?$allocator@UScore@Persistence@technical_services_layer@@@std@@@std@@YAXPEAUScore@Persistence@technical_services_layer@@QEAU123@AEAV?$allocator@UScore@Persistence@technical_services_layer@@@0@@Z DD imagerel $LN6
	DD	imagerel $LN6+142
	DD	imagerel $unwind$??$_Destroy_range@V?$allocator@UScore@Persistence@technical_services_layer@@@std@@@std@@YAXPEAUScore@Persistence@technical_services_layer@@QEAU123@AEAV?$allocator@UScore@Persistence@technical_services_layer@@@0@@Z
pdata	ENDS
;	COMDAT pdata
pdata	SEGMENT
$pdata$??$_Destroy_range@V?$allocator@USDL_Point@@@std@@@std@@YAXPEAUSDL_Point@@QEAU1@AEAV?$allocator@USDL_Point@@@0@@Z DD imagerel $LN3
	DD	imagerel $LN3+75
	DD	imagerel $unwind$??$_Destroy_range@V?$allocator@USDL_Point@@@std@@@std@@YAXPEAUSDL_Point@@QEAU1@AEAV?$allocator@USDL_Point@@@0@@Z
pdata	ENDS
;	COMDAT pdata
pdata	SEGMENT
$pdata$??$_Destroy_range@V?$allocator@I@std@@@std@@YAXPEAIQEAIAEAV?$allocator@I@0@@Z DD imagerel $LN3
	DD	imagerel $LN3+75
	DD	imagerel $unwind$??$_Destroy_range@V?$allocator@I@std@@@std@@YAXPEAIQEAIAEAV?$allocator@I@0@@Z
pdata	ENDS
;	COMDAT pdata
pdata	SEGMENT
$pdata$??$addressof@V?$_String_val@U?$_Simple_types@D@std@@@std@@@std@@YAPEAV?$_String_val@U?$_Simple_types@D@std@@@0@AEAV10@@Z DD imagerel $LN3
	DD	imagerel $LN3+72
	DD	imagerel $unwind$??$addressof@V?$_String_val@U?$_Simple_types@D@std@@@std@@@std@@YAPEAV?$_String_val@U?$_Simple_types@D@std@@@0@AEAV10@@Z
pdata	ENDS
;	COMDAT pdata
pdata	SEGMENT
$pdata$??$addressof@$$CBV?$_String_val@U?$_Simple_types@D@std@@@std@@@std@@YAPEBV?$_String_val@U?$_Simple_types@D@std@@@0@AEBV10@@Z DD imagerel $LN3
	DD	imagerel $LN3+72
	DD	imagerel $unwind$??$addressof@$$CBV?$_String_val@U?$_Simple_types@D@std@@@std@@@std@@YAPEBV?$_String_val@U?$_Simple_types@D@std@@@0@AEBV10@@Z
pdata	ENDS
;	COMDAT pdata
pdata	SEGMENT
$pdata$??$addressof@U_Container_proxy@std@@@std@@YAPEAU_Container_proxy@0@AEAU10@@Z DD imagerel $LN3
	DD	imagerel $LN3+72
	DD	imagerel $unwind$??$addressof@U_Container_proxy@std@@@std@@YAPEAU_Container_proxy@0@AEAU10@@Z
pdata	ENDS
;	COMDAT pdata
pdata	SEGMENT
$pdata$??$forward@PEAU_Container_base12@std@@@std@@YA$$QEAPEAU_Container_base12@0@AEAPEAU10@@Z DD imagerel $LN3
	DD	imagerel $LN3+72
	DD	imagerel $unwind$??$forward@PEAU_Container_base12@std@@@std@@YA$$QEAPEAU_Container_base12@0@AEAPEAU10@@Z
pdata	ENDS
;	COMDAT pdata
pdata	SEGMENT
$pdata$??$?0U?$default_delete@V_Facet_base@std@@@std@@$0A@@?$unique_ptr@V_Facet_base@std@@U?$default_delete@V_Facet_base@std@@@2@@std@@QEAA@PEAV_Facet_base@1@@Z DD imagerel $LN3
	DD	imagerel $LN3+118
	DD	imagerel $unwind$??$?0U?$default_delete@V_Facet_base@std@@@std@@$0A@@?$unique_ptr@V_Facet_base@std@@U?$default_delete@V_Facet_base@std@@@2@@std@@QEAA@PEAV_Facet_base@1@@Z
pdata	ENDS
;	COMDAT pdata
pdata	SEGMENT
$pdata$??$use_facet@V?$time_put@DV?$ostreambuf_iterator@DU?$char_traits@D@std@@@std@@@std@@@std@@YAAEBV?$time_put@DV?$ostreambuf_iterator@DU?$char_traits@D@std@@@std@@@0@AEBVlocale@0@@Z DD imagerel $LN11
	DD	imagerel $LN11+393
	DD	imagerel $unwind$??$use_facet@V?$time_put@DV?$ostreambuf_iterator@DU?$char_traits@D@std@@@std@@@std@@@std@@YAAEBV?$time_put@DV?$ostreambuf_iterator@DU?$char_traits@D@std@@@std@@@0@AEBVlocale@0@@Z
pdata	ENDS
;	COMDAT pdata
pdata	SEGMENT
$pdata$?dtor$0@?0???$use_facet@V?$time_put@DV?$ostreambuf_iterator@DU?$char_traits@D@std@@@std@@@std@@@std@@YAAEBV?$time_put@DV?$ostreambuf_iterator@DU?$char_traits@D@std@@@std@@@0@AEBVlocale@0@@Z@4HA DD imagerel ?dtor$0@?0???$use_facet@V?$time_put@DV?$ostreambuf_iterator@DU?$char_traits@D@std@@@std@@@std@@@std@@YAAEBV?$time_put@DV?$ostreambuf_iterator@DU?$char_traits@D@std@@@std@@@0@AEBVlocale@0@@Z@4HA
	DD	imagerel ?dtor$0@?0???$use_facet@V?$time_put@DV?$ostreambuf_iterator@DU?$char_traits@D@std@@@std@@@std@@@std@@YAAEBV?$time_put@DV?$ostreambuf_iterator@DU?$char_traits@D@std@@@std@@@0@AEBVlocale@0@@Z@4HA+37
	DD	imagerel $unwind$?dtor$0@?0???$use_facet@V?$time_put@DV?$ostreambuf_iterator@DU?$char_traits@D@std@@@std@@@std@@@std@@YAAEBV?$time_put@DV?$ostreambuf_iterator@DU?$char_traits@D@std@@@std@@@0@AEBVlocale@0@@Z@4HA
pdata	ENDS
;	COMDAT pdata
pdata	SEGMENT
$pdata$?dtor$1@?0???$use_facet@V?$time_put@DV?$ostreambuf_iterator@DU?$char_traits@D@std@@@std@@@std@@@std@@YAAEBV?$time_put@DV?$ostreambuf_iterator@DU?$char_traits@D@std@@@std@@@0@AEBVlocale@0@@Z@4HA DD imagerel ?dtor$1@?0???$use_facet@V?$time_put@DV?$ostreambuf_iterator@DU?$char_traits@D@std@@@std@@@std@@@std@@YAAEBV?$time_put@DV?$ostreambuf_iterator@DU?$char_traits@D@std@@@std@@@0@AEBVlocale@0@@Z@4HA
	DD	imagerel ?dtor$1@?0???$use_facet@V?$time_put@DV?$ostreambuf_iterator@DU?$char_traits@D@std@@@std@@@std@@@std@@YAAEBV?$time_put@DV?$ostreambuf_iterator@DU?$char_traits@D@std@@@std@@@0@AEBVlocale@0@@Z@4HA+39
	DD	imagerel $unwind$?dtor$1@?0???$use_facet@V?$time_put@DV?$ostreambuf_iterator@DU?$char_traits@D@std@@@std@@@std@@@std@@YAAEBV?$time_put@DV?$ostreambuf_iterator@DU?$char_traits@D@std@@@std@@@0@AEBVlocale@0@@Z@4HA
pdata	ENDS
;	COMDAT pdata
pdata	SEGMENT
$pdata$??$_Insert_string@DU?$char_traits@D@std@@_K@std@@YAAEAV?$basic_ostream@DU?$char_traits@D@std@@@0@AEAV10@QEBD_K@Z DD imagerel $LN26
	DD	imagerel $LN26+1103
	DD	imagerel $unwind$??$_Insert_string@DU?$char_traits@D@std@@_K@std@@YAAEAV?$basic_ostream@DU?$char_traits@D@std@@@0@AEAV10@QEBD_K@Z
pdata	ENDS
;	COMDAT pdata
pdata	SEGMENT
$pdata$?dtor$0@?0???$_Insert_string@DU?$char_traits@D@std@@_K@std@@YAAEAV?$basic_ostream@DU?$char_traits@D@std@@@0@AEAV10@QEBD_K@Z@4HA DD imagerel ?dtor$0@?0???$_Insert_string@DU?$char_traits@D@std@@_K@std@@YAAEAV?$basic_ostream@DU?$char_traits@D@std@@@0@AEAV10@QEBD_K@Z@4HA
	DD	imagerel ?dtor$0@?0???$_Insert_string@DU?$char_traits@D@std@@_K@std@@YAAEAV?$basic_ostream@DU?$char_traits@D@std@@@0@AEAV10@QEBD_K@Z@4HA+36
	DD	imagerel $unwind$?dtor$0@?0???$_Insert_string@DU?$char_traits@D@std@@_K@std@@YAAEAV?$basic_ostream@DU?$char_traits@D@std@@@0@AEAV10@QEBD_K@Z@4HA
pdata	ENDS
;	COMDAT pdata
pdata	SEGMENT
$pdata$?catch$1@?0???$_Insert_string@DU?$char_traits@D@std@@_K@std@@YAAEAV?$basic_ostream@DU?$char_traits@D@std@@@0@AEAV10@QEBD_K@Z@4HA DD imagerel ?catch$1@?0???$_Insert_string@DU?$char_traits@D@std@@_K@std@@YAAEAV?$basic_ostream@DU?$char_traits@D@std@@@0@AEAV10@QEBD_K@Z@4HA
	DD	imagerel ?catch$1@?0???$_Insert_string@DU?$char_traits@D@std@@_K@std@@YAAEAV?$basic_ostream@DU?$char_traits@D@std@@@0@AEAV10@QEBD_K@Z@4HA+91
	DD	imagerel $unwind$?catch$1@?0???$_Insert_string@DU?$char_traits@D@std@@_K@std@@YAAEAV?$basic_ostream@DU?$char_traits@D@std@@@0@AEAV10@QEBD_K@Z@4HA
pdata	ENDS
;	COMDAT pdata
pdata	SEGMENT
$pdata$??$move@AEAV?$basic_istream@DU?$char_traits@D@std@@@std@@@std@@YA$$QEAV?$basic_istream@DU?$char_traits@D@std@@@0@AEAV10@@Z DD imagerel $LN3
	DD	imagerel $LN3+72
	DD	imagerel $unwind$??$move@AEAV?$basic_istream@DU?$char_traits@D@std@@@std@@@std@@YA$$QEAV?$basic_istream@DU?$char_traits@D@std@@@0@AEAV10@@Z
pdata	ENDS
;	COMDAT pdata
pdata	SEGMENT
$pdata$??$getline@DU?$char_traits@D@std@@V?$allocator@D@2@@std@@YAAEAV?$basic_istream@DU?$char_traits@D@std@@@0@$$QEAV10@AEAV?$basic_string@DU?$char_traits@D@std@@V?$allocator@D@2@@0@D@Z DD imagerel $LN21
	DD	imagerel $LN21+695
	DD	imagerel $unwind$??$getline@DU?$char_traits@D@std@@V?$allocator@D@2@@std@@YAAEAV?$basic_istream@DU?$char_traits@D@std@@@0@$$QEAV10@AEAV?$basic_string@DU?$char_traits@D@std@@V?$allocator@D@2@@0@D@Z
pdata	ENDS
;	COMDAT pdata
pdata	SEGMENT
$pdata$?dtor$0@?0???$getline@DU?$char_traits@D@std@@V?$allocator@D@2@@std@@YAAEAV?$basic_istream@DU?$char_traits@D@std@@@0@$$QEAV10@AEAV?$basic_string@DU?$char_traits@D@std@@V?$allocator@D@2@@0@D@Z@4HA DD imagerel ?dtor$0@?0???$getline@DU?$char_traits@D@std@@V?$allocator@D@2@@std@@YAAEAV?$basic_istream@DU?$char_traits@D@std@@@0@$$QEAV10@AEAV?$basic_string@DU?$char_traits@D@std@@V?$allocator@D@2@@0@D@Z@4HA
	DD	imagerel ?dtor$0@?0???$getline@DU?$char_traits@D@std@@V?$allocator@D@2@@std@@YAAEAV?$basic_istream@DU?$char_traits@D@std@@@0@$$QEAV10@AEAV?$basic_string@DU?$char_traits@D@std@@V?$allocator@D@2@@0@D@Z@4HA+36
	DD	imagerel $unwind$?dtor$0@?0???$getline@DU?$char_traits@D@std@@V?$allocator@D@2@@std@@YAAEAV?$basic_istream@DU?$char_traits@D@std@@@0@$$QEAV10@AEAV?$basic_string@DU?$char_traits@D@std@@V?$allocator@D@2@@0@D@Z@4HA
pdata	ENDS
;	COMDAT pdata
pdata	SEGMENT
$pdata$?catch$1@?0???$getline@DU?$char_traits@D@std@@V?$allocator@D@2@@std@@YAAEAV?$basic_istream@DU?$char_traits@D@std@@@0@$$QEAV10@AEAV?$basic_string@DU?$char_traits@D@std@@V?$allocator@D@2@@0@D@Z@4HA DD imagerel ?catch$1@?0???$getline@DU?$char_traits@D@std@@V?$allocator@D@2@@std@@YAAEAV?$basic_istream@DU?$char_traits@D@std@@@0@$$QEAV10@AEAV?$basic_string@DU?$char_traits@D@std@@V?$allocator@D@2@@0@D@Z@4HA
	DD	imagerel ?catch$1@?0???$getline@DU?$char_traits@D@std@@V?$allocator@D@2@@std@@YAAEAV?$basic_istream@DU?$char_traits@D@std@@@0@$$QEAV10@AEAV?$basic_string@DU?$char_traits@D@std@@V?$allocator@D@2@@0@D@Z@4HA+91
	DD	imagerel $unwind$?catch$1@?0???$getline@DU?$char_traits@D@std@@V?$allocator@D@2@@std@@YAAEAV?$basic_istream@DU?$char_traits@D@std@@@0@$$QEAV10@AEAV?$basic_string@DU?$char_traits@D@std@@V?$allocator@D@2@@0@D@Z@4HA
pdata	ENDS
;	COMDAT pdata
pdata	SEGMENT
$pdata$??$?8DU?$char_traits@D@std@@V?$allocator@D@1@@std@@YA_NAEBV?$basic_string@DU?$char_traits@D@std@@V?$allocator@D@2@@0@0@Z DD imagerel $LN3
	DD	imagerel $LN3+90
	DD	imagerel $unwind$??$?8DU?$char_traits@D@std@@V?$allocator@D@1@@std@@YA_NAEBV?$basic_string@DU?$char_traits@D@std@@V?$allocator@D@2@@0@0@Z
pdata	ENDS
;	COMDAT pdata
pdata	SEGMENT
$pdata$??$_Adl_verify_range@V?$_Vector_iterator@V?$_Vector_val@U?$_Simple_types@UScore@Persistence@technical_services_layer@@@std@@@std@@@std@@V12@@std@@YAXAEBV?$_Vector_iterator@V?$_Vector_val@U?$_Simple_types@UScore@Persistence@technical_services_layer@@@std@@@std@@@0@0@Z DD imagerel $LN3
	DD	imagerel $LN3+88
	DD	imagerel $unwind$??$_Adl_verify_range@V?$_Vector_iterator@V?$_Vector_val@U?$_Simple_types@UScore@Persistence@technical_services_layer@@@std@@@std@@@std@@V12@@std@@YAXAEBV?$_Vector_iterator@V?$_Vector_val@U?$_Simple_types@UScore@Persistence@technical_services_layer@@@std@@@std@@@0@0@Z
pdata	ENDS
;	COMDAT pdata
pdata	SEGMENT
$pdata$??$_Get_unwrapped@V?$_Vector_iterator@V?$_Vector_val@U?$_Simple_types@UScore@Persistence@technical_services_layer@@@std@@@std@@@std@@$0A@@std@@YA@AEBV?$_Vector_iterator@V?$_Vector_val@U?$_Simple_types@UScore@Persistence@technical_services_layer@@@std@@@std@@@0@@Z DD imagerel $LN3
	DD	imagerel $LN3+76
	DD	imagerel $unwind$??$_Get_unwrapped@V?$_Vector_iterator@V?$_Vector_val@U?$_Simple_types@UScore@Persistence@technical_services_layer@@@std@@@std@@@std@@$0A@@std@@YA@AEBV?$_Vector_iterator@V?$_Vector_val@U?$_Simple_types@UScore@Persistence@technical_services_layer@@@std@@@std@@@0@@Z
pdata	ENDS
;	COMDAT pdata
pdata	SEGMENT
$pdata$??$_Pass_fn@P6A_NAEAUScore@Persistence@technical_services_layer@@0@Z$0A@@std@@YAP6A_NAEAUScore@Persistence@technical_services_layer@@0@ZP6A_N00@Z@Z DD imagerel $LN3
	DD	imagerel $LN3+71
	DD	imagerel $unwind$??$_Pass_fn@P6A_NAEAUScore@Persistence@technical_services_layer@@0@Z$0A@@std@@YAP6A_NAEAUScore@Persistence@technical_services_layer@@0@ZP6A_N00@Z@Z
pdata	ENDS
;	COMDAT pdata
pdata	SEGMENT
$pdata$??$_Sort_unchecked@PEAUScore@Persistence@technical_services_layer@@P6A_NAEAU123@0@Z@std@@YAXPEAUScore@Persistence@technical_services_layer@@0_JP6A_NAEAU123@2@Z@Z DD imagerel $LN10
	DD	imagerel $LN10+506
	DD	imagerel $unwind$??$_Sort_unchecked@PEAUScore@Persistence@technical_services_layer@@P6A_NAEAU123@0@Z@std@@YAXPEAUScore@Persistence@technical_services_layer@@0_JP6A_NAEAU123@2@Z@Z
pdata	ENDS
;	COMDAT pdata
pdata	SEGMENT
$pdata$??$_Deallocate_plain@V?$allocator@U_Container_proxy@std@@@std@@@std@@YAXAEAV?$allocator@U_Container_proxy@std@@@0@QEAU_Container_proxy@0@@Z DD imagerel $LN3
	DD	imagerel $LN3+96
	DD	imagerel $unwind$??$_Deallocate_plain@V?$allocator@U_Container_proxy@std@@@std@@@std@@YAXAEAV?$allocator@U_Container_proxy@std@@@0@QEAU_Container_proxy@0@@Z
pdata	ENDS
;	COMDAT pdata
pdata	SEGMENT
$pdata$??$forward@V?$allocator@D@std@@@std@@YA$$QEAV?$allocator@D@0@AEAV10@@Z DD imagerel $LN3
	DD	imagerel $LN3+72
	DD	imagerel $unwind$??$forward@V?$allocator@D@std@@@std@@YA$$QEAV?$allocator@D@0@AEAV10@@Z
pdata	ENDS
;	COMDAT pdata
pdata	SEGMENT
$pdata$??$move@AEAV?$allocator@UScore@Persistence@technical_services_layer@@@std@@@std@@YA$$QEAV?$allocator@UScore@Persistence@technical_services_layer@@@0@AEAV10@@Z DD imagerel $LN3
	DD	imagerel $LN3+72
	DD	imagerel $unwind$??$move@AEAV?$allocator@UScore@Persistence@technical_services_layer@@@std@@@std@@YA$$QEAV?$allocator@UScore@Persistence@technical_services_layer@@@0@AEAV10@@Z
pdata	ENDS
;	COMDAT pdata
pdata	SEGMENT
$pdata$??$move@AEAV?$allocator@I@std@@@std@@YA$$QEAV?$allocator@I@0@AEAV10@@Z DD imagerel $LN3
	DD	imagerel $LN3+72
	DD	imagerel $unwind$??$move@AEAV?$allocator@I@std@@@std@@YA$$QEAV?$allocator@I@0@AEAV10@@Z
pdata	ENDS
;	COMDAT pdata
pdata	SEGMENT
$pdata$??$addressof@PEAD@std@@YAPEAPEADAEAPEAD@Z DD imagerel $LN3
	DD	imagerel $LN3+72
	DD	imagerel $unwind$??$addressof@PEAD@std@@YAPEAPEADAEAPEAD@Z
pdata	ENDS
;	COMDAT pdata
pdata	SEGMENT
$pdata$??$forward@AEBQEAD@std@@YAAEBQEADAEBQEAD@Z DD imagerel $LN3
	DD	imagerel $LN3+72
	DD	imagerel $unwind$??$forward@AEBQEAD@std@@YAAEBQEADAEBQEAD@Z
pdata	ENDS
;	COMDAT pdata
pdata	SEGMENT
$pdata$??$_Allocate_manually_vector_aligned@U_Default_allocate_traits@std@@@std@@YAPEAX_K@Z DD imagerel $LN13
	DD	imagerel $LN13+300
	DD	imagerel $unwind$??$_Allocate_manually_vector_aligned@U_Default_allocate_traits@std@@@std@@YAPEAX_K@Z
pdata	ENDS
;	COMDAT pdata
pdata	SEGMENT
$pdata$??$_Unfancy@UScore@Persistence@technical_services_layer@@@std@@YAPEAUScore@Persistence@technical_services_layer@@PEAU123@@Z DD imagerel $LN3
	DD	imagerel $LN3+71
	DD	imagerel $unwind$??$_Unfancy@UScore@Persistence@technical_services_layer@@@std@@YAPEAUScore@Persistence@technical_services_layer@@PEAU123@@Z
pdata	ENDS
;	COMDAT pdata
pdata	SEGMENT
$pdata$??$destroy@UScore@Persistence@technical_services_layer@@@?$_Default_allocator_traits@V?$allocator@UScore@Persistence@technical_services_layer@@@std@@@std@@SAXAEAV?$allocator@UScore@Persistence@technical_services_layer@@@1@QEAUScore@Persistence@technical_services_layer@@@Z DD imagerel $LN3
	DD	imagerel $LN3+83
	DD	imagerel $unwind$??$destroy@UScore@Persistence@technical_services_layer@@@?$_Default_allocator_traits@V?$allocator@UScore@Persistence@technical_services_layer@@@std@@@std@@SAXAEAV?$allocator@UScore@Persistence@technical_services_layer@@@1@QEAUScore@Persistence@technical_services_layer@@@Z
pdata	ENDS
;	COMDAT pdata
pdata	SEGMENT
$pdata$??$exchange@PEAV_Facet_base@std@@PEAV12@@std@@YAPEAV_Facet_base@0@AEAPEAV10@$$QEAPEAV10@@Z DD imagerel $LN3
	DD	imagerel $LN3+107
	DD	imagerel $unwind$??$exchange@PEAV_Facet_base@std@@PEAV12@@std@@YAPEAV_Facet_base@0@AEAPEAV10@$$QEAPEAV10@@Z
pdata	ENDS
;	COMDAT pdata
pdata	SEGMENT
$pdata$??$?0AEAPEAV_Facet_base@std@@@?$_Compressed_pair@U?$default_delete@V_Facet_base@std@@@std@@PEAV_Facet_base@2@$00@std@@QEAA@U_Zero_then_variadic_args_t@1@AEAPEAV_Facet_base@1@@Z DD imagerel $LN3
	DD	imagerel $LN3+105
	DD	imagerel $unwind$??$?0AEAPEAV_Facet_base@std@@@?$_Compressed_pair@U?$default_delete@V_Facet_base@std@@@std@@PEAV_Facet_base@2@$00@std@@QEAA@U_Zero_then_variadic_args_t@1@AEAPEAV_Facet_base@1@@Z
pdata	ENDS
;	COMDAT pdata
pdata	SEGMENT
$pdata$??$_Partition_by_median_guess_unchecked@PEAUScore@Persistence@technical_services_layer@@P6A_NAEAU123@0@Z@std@@YA?AU?$pair@PEAUScore@Persistence@technical_services_layer@@PEAU123@@0@PEAUScore@Persistence@technical_services_layer@@0P6A_NAEAU234@1@Z@Z DD imagerel $LN34
	DD	imagerel $LN34+1093
	DD	imagerel $unwind$??$_Partition_by_median_guess_unchecked@PEAUScore@Persistence@technical_services_layer@@P6A_NAEAU123@0@Z@std@@YA?AU?$pair@PEAUScore@Persistence@technical_services_layer@@PEAU123@@0@PEAUScore@Persistence@technical_services_layer@@0P6A_NAEAU234@1@Z@Z
pdata	ENDS
;	COMDAT pdata
pdata	SEGMENT
$pdata$??$_Make_heap_unchecked@PEAUScore@Persistence@technical_services_layer@@P6A_NAEAU123@0@Z@std@@YAXPEAUScore@Persistence@technical_services_layer@@0P6A_NAEAU123@1@Z@Z DD imagerel $LN7
	DD	imagerel $LN7+280
	DD	imagerel $unwind$??$_Make_heap_unchecked@PEAUScore@Persistence@technical_services_layer@@P6A_NAEAU123@0@Z@std@@YAXPEAUScore@Persistence@technical_services_layer@@0P6A_NAEAU123@1@Z@Z
pdata	ENDS
;	COMDAT pdata
pdata	SEGMENT
$pdata$?dtor$0@?0???$_Make_heap_unchecked@PEAUScore@Persistence@technical_services_layer@@P6A_NAEAU123@0@Z@std@@YAXPEAUScore@Persistence@technical_services_layer@@0P6A_NAEAU123@1@Z@Z@4HA DD imagerel ?dtor$0@?0???$_Make_heap_unchecked@PEAUScore@Persistence@technical_services_layer@@P6A_NAEAU123@0@Z@std@@YAXPEAUScore@Persistence@technical_services_layer@@0P6A_NAEAU123@1@Z@Z@4HA
	DD	imagerel ?dtor$0@?0???$_Make_heap_unchecked@PEAUScore@Persistence@technical_services_layer@@P6A_NAEAU123@0@Z@std@@YAXPEAUScore@Persistence@technical_services_layer@@0P6A_NAEAU123@1@Z@Z@4HA+36
	DD	imagerel $unwind$?dtor$0@?0???$_Make_heap_unchecked@PEAUScore@Persistence@technical_services_layer@@P6A_NAEAU123@0@Z@std@@YAXPEAUScore@Persistence@technical_services_layer@@0P6A_NAEAU123@1@Z@Z@4HA
pdata	ENDS
;	COMDAT pdata
pdata	SEGMENT
$pdata$??$_Sort_heap_unchecked@PEAUScore@Persistence@technical_services_layer@@P6A_NAEAU123@0@Z@std@@YAXPEAUScore@Persistence@technical_services_layer@@0P6A_NAEAU123@1@Z@Z DD imagerel $LN6
	DD	imagerel $LN6+158
	DD	imagerel $unwind$??$_Sort_heap_unchecked@PEAUScore@Persistence@technical_services_layer@@P6A_NAEAU123@0@Z@std@@YAXPEAUScore@Persistence@technical_services_layer@@0P6A_NAEAU123@1@Z@Z
pdata	ENDS
;	COMDAT pdata
pdata	SEGMENT
$pdata$??$_Insertion_sort_unchecked@PEAUScore@Persistence@technical_services_layer@@P6A_NAEAU123@0@Z@std@@YAPEAUScore@Persistence@technical_services_layer@@PEAU123@QEAU123@P6A_NAEAU123@2@Z@Z DD imagerel $LN13
	DD	imagerel $LN13+447
	DD	imagerel $unwind$??$_Insertion_sort_unchecked@PEAUScore@Persistence@technical_services_layer@@P6A_NAEAU123@0@Z@std@@YAPEAUScore@Persistence@technical_services_layer@@PEAU123@QEAU123@P6A_NAEAU123@2@Z@Z
pdata	ENDS
;	COMDAT pdata
pdata	SEGMENT
$pdata$?dtor$0@?0???$_Insertion_sort_unchecked@PEAUScore@Persistence@technical_services_layer@@P6A_NAEAU123@0@Z@std@@YAPEAUScore@Persistence@technical_services_layer@@PEAU123@QEAU123@P6A_NAEAU123@2@Z@Z@4HA DD imagerel ?dtor$0@?0???$_Insertion_sort_unchecked@PEAUScore@Persistence@technical_services_layer@@P6A_NAEAU123@0@Z@std@@YAPEAUScore@Persistence@technical_services_layer@@PEAU123@QEAU123@P6A_NAEAU123@2@Z@Z@4HA
	DD	imagerel ?dtor$0@?0???$_Insertion_sort_unchecked@PEAUScore@Persistence@technical_services_layer@@P6A_NAEAU123@0@Z@std@@YAPEAUScore@Persistence@technical_services_layer@@PEAU123@QEAU123@P6A_NAEAU123@2@Z@Z@4HA+36
	DD	imagerel $unwind$?dtor$0@?0???$_Insertion_sort_unchecked@PEAUScore@Persistence@technical_services_layer@@P6A_NAEAU123@0@Z@std@@YAPEAUScore@Persistence@technical_services_layer@@PEAU123@QEAU123@P6A_NAEAU123@2@Z@Z@4HA
pdata	ENDS
;	COMDAT pdata
pdata	SEGMENT
$pdata$?deallocate@?$_Default_allocator_traits@V?$allocator@U_Container_proxy@std@@@std@@@std@@SAXAEAV?$allocator@U_Container_proxy@std@@@2@QEAU_Container_proxy@2@_K@Z DD imagerel $LN3
	DD	imagerel $LN3+97
	DD	imagerel $unwind$?deallocate@?$_Default_allocator_traits@V?$allocator@U_Container_proxy@std@@@std@@@std@@SAXAEAV?$allocator@U_Container_proxy@std@@@2@QEAU_Container_proxy@2@_K@Z
pdata	ENDS
;	COMDAT pdata
pdata	SEGMENT
$pdata$??$_Traits_equal@U?$char_traits@D@std@@@std@@YA_NQEBD_K01@Z DD imagerel $LN5
	DD	imagerel $LN5+156
	DD	imagerel $unwind$??$_Traits_equal@U?$char_traits@D@std@@@std@@YA_NQEBD_K01@Z
pdata	ENDS
;	COMDAT pdata
pdata	SEGMENT
$pdata$??$forward@AEAPEAV_Facet_base@std@@@std@@YAAEAPEAV_Facet_base@0@AEAPEAV10@@Z DD imagerel $LN3
	DD	imagerel $LN3+72
	DD	imagerel $unwind$??$forward@AEAPEAV_Facet_base@std@@@std@@YAAEAPEAV_Facet_base@0@AEAPEAV10@@Z
pdata	ENDS
;	COMDAT pdata
pdata	SEGMENT
$pdata$??$_Guess_median_unchecked@PEAUScore@Persistence@technical_services_layer@@P6A_NAEAU123@0@Z@std@@YAXPEAUScore@Persistence@technical_services_layer@@00P6A_NAEAU123@1@Z@Z DD imagerel $LN5
	DD	imagerel $LN5+420
	DD	imagerel $unwind$??$_Guess_median_unchecked@PEAUScore@Persistence@technical_services_layer@@P6A_NAEAU123@0@Z@std@@YAXPEAUScore@Persistence@technical_services_layer@@00P6A_NAEAU123@1@Z@Z
pdata	ENDS
;	COMDAT pdata
pdata	SEGMENT
$pdata$??$_Debug_lt_pred@AEAP6A_NAEAUScore@Persistence@technical_services_layer@@0@ZAEAU123@AEAU123@$0A@@std@@YA_NAEAP6A_NAEAUScore@Persistence@technical_services_layer@@0@Z00@Z DD imagerel $LN13
	DD	imagerel $LN13+293
	DD	imagerel $unwind$??$_Debug_lt_pred@AEAP6A_NAEAUScore@Persistence@technical_services_layer@@0@ZAEAU123@AEAU123@$0A@@std@@YA_NAEAP6A_NAEAUScore@Persistence@technical_services_layer@@0@Z00@Z
pdata	ENDS
;	COMDAT pdata
pdata	SEGMENT
$pdata$??$iter_swap@PEAUScore@Persistence@technical_services_layer@@PEAU123@@std@@YAXPEAUScore@Persistence@technical_services_layer@@0@Z DD imagerel $LN3
	DD	imagerel $LN3+88
	DD	imagerel $unwind$??$iter_swap@PEAUScore@Persistence@technical_services_layer@@PEAU123@@std@@YAXPEAUScore@Persistence@technical_services_layer@@0@Z
pdata	ENDS
;	COMDAT pdata
pdata	SEGMENT
$pdata$??$?0AEAPEAUScore@Persistence@technical_services_layer@@AEAPEAU012@$0A@@?$pair@PEAUScore@Persistence@technical_services_layer@@PEAU123@@std@@QEAA@AEAPEAUScore@Persistence@technical_services_layer@@0@Z DD imagerel $LN3
	DD	imagerel $LN3+135
	DD	imagerel $unwind$??$?0AEAPEAUScore@Persistence@technical_services_layer@@AEAPEAU012@$0A@@?$pair@PEAUScore@Persistence@technical_services_layer@@PEAU123@@std@@QEAA@AEAPEAUScore@Persistence@technical_services_layer@@0@Z
pdata	ENDS
;	COMDAT pdata
pdata	SEGMENT
$pdata$??$move@AEAUScore@Persistence@technical_services_layer@@@std@@YA$$QEAUScore@Persistence@technical_services_layer@@AEAU123@@Z DD imagerel $LN3
	DD	imagerel $LN3+72
	DD	imagerel $unwind$??$move@AEAUScore@Persistence@technical_services_layer@@@std@@YA$$QEAUScore@Persistence@technical_services_layer@@AEAU123@@Z
pdata	ENDS
;	COMDAT pdata
pdata	SEGMENT
$pdata$??$_Pop_heap_hole_by_index@PEAUScore@Persistence@technical_services_layer@@U123@P6A_NAEAU123@0@Z@std@@YAXPEAUScore@Persistence@technical_services_layer@@_J1$$QEAU123@P6A_NAEAU123@3@Z@Z DD imagerel $LN7
	DD	imagerel $LN7+484
	DD	imagerel $unwind$??$_Pop_heap_hole_by_index@PEAUScore@Persistence@technical_services_layer@@U123@P6A_NAEAU123@0@Z@std@@YAXPEAUScore@Persistence@technical_services_layer@@_J1$$QEAU123@P6A_NAEAU123@3@Z@Z
pdata	ENDS
;	COMDAT pdata
pdata	SEGMENT
$pdata$??$_Pop_heap_unchecked@PEAUScore@Persistence@technical_services_layer@@P6A_NAEAU123@0@Z@std@@YAXPEAUScore@Persistence@technical_services_layer@@0P6A_NAEAU123@1@Z@Z DD imagerel $LN5
	DD	imagerel $LN5+261
	DD	imagerel $unwind$??$_Pop_heap_unchecked@PEAUScore@Persistence@technical_services_layer@@P6A_NAEAU123@0@Z@std@@YAXPEAUScore@Persistence@technical_services_layer@@0P6A_NAEAU123@1@Z@Z
pdata	ENDS
;	COMDAT pdata
pdata	SEGMENT
$pdata$?dtor$0@?0???$_Pop_heap_unchecked@PEAUScore@Persistence@technical_services_layer@@P6A_NAEAU123@0@Z@std@@YAXPEAUScore@Persistence@technical_services_layer@@0P6A_NAEAU123@1@Z@Z@4HA DD imagerel ?dtor$0@?0???$_Pop_heap_unchecked@PEAUScore@Persistence@technical_services_layer@@P6A_NAEAU123@0@Z@std@@YAXPEAUScore@Persistence@technical_services_layer@@0P6A_NAEAU123@1@Z@Z@4HA
	DD	imagerel ?dtor$0@?0???$_Pop_heap_unchecked@PEAUScore@Persistence@technical_services_layer@@P6A_NAEAU123@0@Z@std@@YAXPEAUScore@Persistence@technical_services_layer@@0P6A_NAEAU123@1@Z@Z@4HA+36
	DD	imagerel $unwind$?dtor$0@?0???$_Pop_heap_unchecked@PEAUScore@Persistence@technical_services_layer@@P6A_NAEAU123@0@Z@std@@YAXPEAUScore@Persistence@technical_services_layer@@0P6A_NAEAU123@1@Z@Z@4HA
pdata	ENDS
;	COMDAT pdata
pdata	SEGMENT
$pdata$??$_Move_backward_unchecked@PEAUScore@Persistence@technical_services_layer@@PEAU123@@std@@YAPEAUScore@Persistence@technical_services_layer@@PEAU123@00@Z DD imagerel $LN5
	DD	imagerel $LN5+162
	DD	imagerel $unwind$??$_Move_backward_unchecked@PEAUScore@Persistence@technical_services_layer@@PEAU123@@std@@YAPEAUScore@Persistence@technical_services_layer@@PEAU123@00@Z
pdata	ENDS
;	COMDAT pdata
pdata	SEGMENT
$pdata$??$_Med3_unchecked@PEAUScore@Persistence@technical_services_layer@@P6A_NAEAU123@0@Z@std@@YAXPEAUScore@Persistence@technical_services_layer@@00P6A_NAEAU123@1@Z@Z DD imagerel $LN6
	DD	imagerel $LN6+235
	DD	imagerel $unwind$??$_Med3_unchecked@PEAUScore@Persistence@technical_services_layer@@P6A_NAEAU123@0@Z@std@@YAXPEAUScore@Persistence@technical_services_layer@@00P6A_NAEAU123@1@Z@Z
pdata	ENDS
;	COMDAT pdata
pdata	SEGMENT
$pdata$??$swap@UScore@Persistence@technical_services_layer@@X@std@@YAXAEAUScore@Persistence@technical_services_layer@@0@Z DD imagerel $LN3
	DD	imagerel $LN3+211
	DD	imagerel $unwind$??$swap@UScore@Persistence@technical_services_layer@@X@std@@YAXAEAUScore@Persistence@technical_services_layer@@0@Z
pdata	ENDS
;	COMDAT pdata
pdata	SEGMENT
$pdata$??$forward@AEAPEAUScore@Persistence@technical_services_layer@@@std@@YAAEAPEAUScore@Persistence@technical_services_layer@@AEAPEAU123@@Z DD imagerel $LN3
	DD	imagerel $LN3+72
	DD	imagerel $unwind$??$forward@AEAPEAUScore@Persistence@technical_services_layer@@@std@@YAAEAPEAUScore@Persistence@technical_services_layer@@AEAPEAU123@@Z
pdata	ENDS
;	COMDAT pdata
pdata	SEGMENT
$pdata$??$_Push_heap_by_index@PEAUScore@Persistence@technical_services_layer@@U123@P6A_NAEAU123@0@Z@std@@YAXPEAUScore@Persistence@technical_services_layer@@_J1$$QEAU123@P6A_NAEAU123@3@Z@Z DD imagerel $LN6
	DD	imagerel $LN6+290
	DD	imagerel $unwind$??$_Push_heap_by_index@PEAUScore@Persistence@technical_services_layer@@U123@P6A_NAEAU123@0@Z@std@@YAXPEAUScore@Persistence@technical_services_layer@@_J1$$QEAU123@P6A_NAEAU123@3@Z@Z
pdata	ENDS
;	COMDAT pdata
pdata	SEGMENT
$pdata$??$_Pop_heap_hole_unchecked@PEAUScore@Persistence@technical_services_layer@@U123@P6A_NAEAU123@0@Z@std@@YAXPEAUScore@Persistence@technical_services_layer@@00$$QEAU123@P6A_NAEAU123@2@Z@Z DD imagerel $LN3
	DD	imagerel $LN3+197
	DD	imagerel $unwind$??$_Pop_heap_hole_unchecked@PEAUScore@Persistence@technical_services_layer@@U123@P6A_NAEAU123@0@Z@std@@YAXPEAUScore@Persistence@technical_services_layer@@00$$QEAU123@P6A_NAEAU123@2@Z@Z
pdata	ENDS
CRT$XCU	SEGMENT
?colorize_index$initializer$@_internal@termcolor@@3P6AXXZEA DQ FLAT:??__Ecolorize_index@_internal@termcolor@@YAXXZ ; termcolor::_internal::colorize_index$initializer$
CRT$XCU	ENDS
;	COMDAT rtc$TMZ
rtc$TMZ	SEGMENT
_RTC_Shutdown.rtc$TMZ DQ FLAT:_RTC_Shutdown
rtc$TMZ	ENDS
;	COMDAT rtc$IMZ
rtc$IMZ	SEGMENT
_RTC_InitBase.rtc$IMZ DQ FLAT:_RTC_InitBase
rtc$IMZ	ENDS
;	COMDAT ??_R1A@?0A@EA@View@view@ui_layer@@8
rdata$r	SEGMENT
??_R1A@?0A@EA@View@view@ui_layer@@8 DD imagerel ??_R0?AVView@view@ui_layer@@@8 ; ui_layer::view::View::`RTTI Base Class Descriptor at (0,-1,0,64)'
	DD	01H
	DD	00H
	DD	0ffffffffH
	DD	00H
	DD	040H
	DD	imagerel ??_R3View@view@ui_layer@@8
rdata$r	ENDS
;	COMDAT ??_R2View@view@ui_layer@@8
rdata$r	SEGMENT
??_R2View@view@ui_layer@@8 DD imagerel ??_R1A@?0A@EA@View@view@ui_layer@@8 ; ui_layer::view::View::`RTTI Base Class Array'
	DD	imagerel ??_R1A@?0A@EA@ViewHandler@view@ui_layer@@8
	ORG $+3
rdata$r	ENDS
;	COMDAT ??_R3View@view@ui_layer@@8
rdata$r	SEGMENT
??_R3View@view@ui_layer@@8 DD 00H			; ui_layer::view::View::`RTTI Class Hierarchy Descriptor'
	DD	00H
	DD	02H
	DD	imagerel ??_R2View@view@ui_layer@@8
rdata$r	ENDS
;	COMDAT ??_R0?AVView@view@ui_layer@@@8
data$r	SEGMENT
??_R0?AVView@view@ui_layer@@@8 DQ FLAT:??_7type_info@@6B@ ; ui_layer::view::View `RTTI Type Descriptor'
	DQ	0000000000000000H
	DB	'.?AVView@view@ui_layer@@', 00H
data$r	ENDS
;	COMDAT ??_R4View@view@ui_layer@@6B@
rdata$r	SEGMENT
??_R4View@view@ui_layer@@6B@ DD 01H			; ui_layer::view::View::`RTTI Complete Object Locator'
	DD	00H
	DD	00H
	DD	imagerel ??_R0?AVView@view@ui_layer@@@8
	DD	imagerel ??_R3View@view@ui_layer@@8
	DD	imagerel ??_R4View@view@ui_layer@@6B@
rdata$r	ENDS
;	COMDAT ??_R1A@?0A@EA@SimpleLogger@Logging@technical_services_layer@@8
rdata$r	SEGMENT
??_R1A@?0A@EA@SimpleLogger@Logging@technical_services_layer@@8 DD imagerel ??_R0?AVSimpleLogger@Logging@technical_services_layer@@@8 ; technical_services_layer::Logging::SimpleLogger::`RTTI Base Class Descriptor at (0,-1,0,64)'
	DD	01H
	DD	00H
	DD	0ffffffffH
	DD	00H
	DD	040H
	DD	imagerel ??_R3SimpleLogger@Logging@technical_services_layer@@8
rdata$r	ENDS
;	COMDAT ??_R2SimpleLogger@Logging@technical_services_layer@@8
rdata$r	SEGMENT
??_R2SimpleLogger@Logging@technical_services_layer@@8 DD imagerel ??_R1A@?0A@EA@SimpleLogger@Logging@technical_services_layer@@8 ; technical_services_layer::Logging::SimpleLogger::`RTTI Base Class Array'
	DD	imagerel ??_R1A@?0A@EA@LoggerHandler@Logging@technical_services_layer@@8
	ORG $+3
rdata$r	ENDS
;	COMDAT ??_R3SimpleLogger@Logging@technical_services_layer@@8
rdata$r	SEGMENT
??_R3SimpleLogger@Logging@technical_services_layer@@8 DD 00H ; technical_services_layer::Logging::SimpleLogger::`RTTI Class Hierarchy Descriptor'
	DD	00H
	DD	02H
	DD	imagerel ??_R2SimpleLogger@Logging@technical_services_layer@@8
rdata$r	ENDS
;	COMDAT ??_R0?AVSimpleLogger@Logging@technical_services_layer@@@8
data$r	SEGMENT
??_R0?AVSimpleLogger@Logging@technical_services_layer@@@8 DQ FLAT:??_7type_info@@6B@ ; technical_services_layer::Logging::SimpleLogger `RTTI Type Descriptor'
	DQ	0000000000000000H
	DB	'.?AVSimpleLogger@Logging@technical_services_layer@@', 00H
data$r	ENDS
;	COMDAT ??_R4SimpleLogger@Logging@technical_services_layer@@6B@
rdata$r	SEGMENT
??_R4SimpleLogger@Logging@technical_services_layer@@6B@ DD 01H ; technical_services_layer::Logging::SimpleLogger::`RTTI Complete Object Locator'
	DD	00H
	DD	00H
	DD	imagerel ??_R0?AVSimpleLogger@Logging@technical_services_layer@@@8
	DD	imagerel ??_R3SimpleLogger@Logging@technical_services_layer@@8
	DD	imagerel ??_R4SimpleLogger@Logging@technical_services_layer@@6B@
rdata$r	ENDS
;	COMDAT ??_R1A@?0A@EA@LoggerHandler@Logging@technical_services_layer@@8
rdata$r	SEGMENT
??_R1A@?0A@EA@LoggerHandler@Logging@technical_services_layer@@8 DD imagerel ??_R0?AVLoggerHandler@Logging@technical_services_layer@@@8 ; technical_services_layer::Logging::LoggerHandler::`RTTI Base Class Descriptor at (0,-1,0,64)'
	DD	00H
	DD	00H
	DD	0ffffffffH
	DD	00H
	DD	040H
	DD	imagerel ??_R3LoggerHandler@Logging@technical_services_layer@@8
rdata$r	ENDS
;	COMDAT ??_R2LoggerHandler@Logging@technical_services_layer@@8
rdata$r	SEGMENT
??_R2LoggerHandler@Logging@technical_services_layer@@8 DD imagerel ??_R1A@?0A@EA@LoggerHandler@Logging@technical_services_layer@@8 ; technical_services_layer::Logging::LoggerHandler::`RTTI Base Class Array'
	ORG $+3
rdata$r	ENDS
;	COMDAT ??_R3LoggerHandler@Logging@technical_services_layer@@8
rdata$r	SEGMENT
??_R3LoggerHandler@Logging@technical_services_layer@@8 DD 00H ; technical_services_layer::Logging::LoggerHandler::`RTTI Class Hierarchy Descriptor'
	DD	00H
	DD	01H
	DD	imagerel ??_R2LoggerHandler@Logging@technical_services_layer@@8
rdata$r	ENDS
;	COMDAT ??_R0?AVLoggerHandler@Logging@technical_services_layer@@@8
data$r	SEGMENT
??_R0?AVLoggerHandler@Logging@technical_services_layer@@@8 DQ FLAT:??_7type_info@@6B@ ; technical_services_layer::Logging::LoggerHandler `RTTI Type Descriptor'
	DQ	0000000000000000H
	DB	'.?AVLoggerHandler@Logging@technical_services_layer@@', 00H
data$r	ENDS
;	COMDAT ??_R4LoggerHandler@Logging@technical_services_layer@@6B@
rdata$r	SEGMENT
??_R4LoggerHandler@Logging@technical_services_layer@@6B@ DD 01H ; technical_services_layer::Logging::LoggerHandler::`RTTI Complete Object Locator'
	DD	00H
	DD	00H
	DD	imagerel ??_R0?AVLoggerHandler@Logging@technical_services_layer@@@8
	DD	imagerel ??_R3LoggerHandler@Logging@technical_services_layer@@8
	DD	imagerel ??_R4LoggerHandler@Logging@technical_services_layer@@6B@
rdata$r	ENDS
;	COMDAT ??_R1A@?0A@EA@ViewHandler@view@ui_layer@@8
rdata$r	SEGMENT
??_R1A@?0A@EA@ViewHandler@view@ui_layer@@8 DD imagerel ??_R0?AVViewHandler@view@ui_layer@@@8 ; ui_layer::view::ViewHandler::`RTTI Base Class Descriptor at (0,-1,0,64)'
	DD	00H
	DD	00H
	DD	0ffffffffH
	DD	00H
	DD	040H
	DD	imagerel ??_R3ViewHandler@view@ui_layer@@8
rdata$r	ENDS
;	COMDAT ??_R2ViewHandler@view@ui_layer@@8
rdata$r	SEGMENT
??_R2ViewHandler@view@ui_layer@@8 DD imagerel ??_R1A@?0A@EA@ViewHandler@view@ui_layer@@8 ; ui_layer::view::ViewHandler::`RTTI Base Class Array'
	ORG $+3
rdata$r	ENDS
;	COMDAT ??_R3ViewHandler@view@ui_layer@@8
rdata$r	SEGMENT
??_R3ViewHandler@view@ui_layer@@8 DD 00H		; ui_layer::view::ViewHandler::`RTTI Class Hierarchy Descriptor'
	DD	00H
	DD	01H
	DD	imagerel ??_R2ViewHandler@view@ui_layer@@8
rdata$r	ENDS
;	COMDAT ??_R0?AVViewHandler@view@ui_layer@@@8
data$r	SEGMENT
??_R0?AVViewHandler@view@ui_layer@@@8 DQ FLAT:??_7type_info@@6B@ ; ui_layer::view::ViewHandler `RTTI Type Descriptor'
	DQ	0000000000000000H
	DB	'.?AVViewHandler@view@ui_layer@@', 00H
data$r	ENDS
;	COMDAT ??_R4ViewHandler@view@ui_layer@@6B@
rdata$r	SEGMENT
??_R4ViewHandler@view@ui_layer@@6B@ DD 01H		; ui_layer::view::ViewHandler::`RTTI Complete Object Locator'
	DD	00H
	DD	00H
	DD	imagerel ??_R0?AVViewHandler@view@ui_layer@@@8
	DD	imagerel ??_R3ViewHandler@view@ui_layer@@8
	DD	imagerel ??_R4ViewHandler@view@ui_layer@@6B@
rdata$r	ENDS
;	COMDAT ??_R1A@?0A@EA@bad_cast@std@@8
rdata$r	SEGMENT
??_R1A@?0A@EA@bad_cast@std@@8 DD imagerel ??_R0?AVbad_cast@std@@@8 ; std::bad_cast::`RTTI Base Class Descriptor at (0,-1,0,64)'
	DD	01H
	DD	00H
	DD	0ffffffffH
	DD	00H
	DD	040H
	DD	imagerel ??_R3bad_cast@std@@8
rdata$r	ENDS
;	COMDAT ??_R2bad_cast@std@@8
rdata$r	SEGMENT
??_R2bad_cast@std@@8 DD imagerel ??_R1A@?0A@EA@bad_cast@std@@8 ; std::bad_cast::`RTTI Base Class Array'
	DD	imagerel ??_R1A@?0A@EA@exception@std@@8
	ORG $+3
rdata$r	ENDS
;	COMDAT ??_R3bad_cast@std@@8
rdata$r	SEGMENT
??_R3bad_cast@std@@8 DD 00H				; std::bad_cast::`RTTI Class Hierarchy Descriptor'
	DD	00H
	DD	02H
	DD	imagerel ??_R2bad_cast@std@@8
rdata$r	ENDS
;	COMDAT ??_R4bad_cast@std@@6B@
rdata$r	SEGMENT
??_R4bad_cast@std@@6B@ DD 01H				; std::bad_cast::`RTTI Complete Object Locator'
	DD	00H
	DD	00H
	DD	imagerel ??_R0?AVbad_cast@std@@@8
	DD	imagerel ??_R3bad_cast@std@@8
	DD	imagerel ??_R4bad_cast@std@@6B@
rdata$r	ENDS
;	COMDAT ??_R1A@?0A@EA@bad_array_new_length@std@@8
rdata$r	SEGMENT
??_R1A@?0A@EA@bad_array_new_length@std@@8 DD imagerel ??_R0?AVbad_array_new_length@std@@@8 ; std::bad_array_new_length::`RTTI Base Class Descriptor at (0,-1,0,64)'
	DD	02H
	DD	00H
	DD	0ffffffffH
	DD	00H
	DD	040H
	DD	imagerel ??_R3bad_array_new_length@std@@8
rdata$r	ENDS
;	COMDAT ??_R2bad_array_new_length@std@@8
rdata$r	SEGMENT
??_R2bad_array_new_length@std@@8 DD imagerel ??_R1A@?0A@EA@bad_array_new_length@std@@8 ; std::bad_array_new_length::`RTTI Base Class Array'
	DD	imagerel ??_R1A@?0A@EA@bad_alloc@std@@8
	DD	imagerel ??_R1A@?0A@EA@exception@std@@8
	ORG $+3
rdata$r	ENDS
;	COMDAT ??_R3bad_array_new_length@std@@8
rdata$r	SEGMENT
??_R3bad_array_new_length@std@@8 DD 00H			; std::bad_array_new_length::`RTTI Class Hierarchy Descriptor'
	DD	00H
	DD	03H
	DD	imagerel ??_R2bad_array_new_length@std@@8
rdata$r	ENDS
;	COMDAT ??_R4bad_array_new_length@std@@6B@
rdata$r	SEGMENT
??_R4bad_array_new_length@std@@6B@ DD 01H		; std::bad_array_new_length::`RTTI Complete Object Locator'
	DD	00H
	DD	00H
	DD	imagerel ??_R0?AVbad_array_new_length@std@@@8
	DD	imagerel ??_R3bad_array_new_length@std@@8
	DD	imagerel ??_R4bad_array_new_length@std@@6B@
rdata$r	ENDS
;	COMDAT ??_R1A@?0A@EA@bad_alloc@std@@8
rdata$r	SEGMENT
??_R1A@?0A@EA@bad_alloc@std@@8 DD imagerel ??_R0?AVbad_alloc@std@@@8 ; std::bad_alloc::`RTTI Base Class Descriptor at (0,-1,0,64)'
	DD	01H
	DD	00H
	DD	0ffffffffH
	DD	00H
	DD	040H
	DD	imagerel ??_R3bad_alloc@std@@8
rdata$r	ENDS
;	COMDAT ??_R2bad_alloc@std@@8
rdata$r	SEGMENT
??_R2bad_alloc@std@@8 DD imagerel ??_R1A@?0A@EA@bad_alloc@std@@8 ; std::bad_alloc::`RTTI Base Class Array'
	DD	imagerel ??_R1A@?0A@EA@exception@std@@8
	ORG $+3
rdata$r	ENDS
;	COMDAT ??_R3bad_alloc@std@@8
rdata$r	SEGMENT
??_R3bad_alloc@std@@8 DD 00H				; std::bad_alloc::`RTTI Class Hierarchy Descriptor'
	DD	00H
	DD	02H
	DD	imagerel ??_R2bad_alloc@std@@8
rdata$r	ENDS
;	COMDAT ??_R4bad_alloc@std@@6B@
rdata$r	SEGMENT
??_R4bad_alloc@std@@6B@ DD 01H				; std::bad_alloc::`RTTI Complete Object Locator'
	DD	00H
	DD	00H
	DD	imagerel ??_R0?AVbad_alloc@std@@@8
	DD	imagerel ??_R3bad_alloc@std@@8
	DD	imagerel ??_R4bad_alloc@std@@6B@
rdata$r	ENDS
;	COMDAT ??_R1A@?0A@EA@exception@std@@8
rdata$r	SEGMENT
??_R1A@?0A@EA@exception@std@@8 DD imagerel ??_R0?AVexception@std@@@8 ; std::exception::`RTTI Base Class Descriptor at (0,-1,0,64)'
	DD	00H
	DD	00H
	DD	0ffffffffH
	DD	00H
	DD	040H
	DD	imagerel ??_R3exception@std@@8
rdata$r	ENDS
;	COMDAT ??_R2exception@std@@8
rdata$r	SEGMENT
??_R2exception@std@@8 DD imagerel ??_R1A@?0A@EA@exception@std@@8 ; std::exception::`RTTI Base Class Array'
	ORG $+3
rdata$r	ENDS
;	COMDAT ??_R3exception@std@@8
rdata$r	SEGMENT
??_R3exception@std@@8 DD 00H				; std::exception::`RTTI Class Hierarchy Descriptor'
	DD	00H
	DD	01H
	DD	imagerel ??_R2exception@std@@8
rdata$r	ENDS
;	COMDAT ??_R4exception@std@@6B@
rdata$r	SEGMENT
??_R4exception@std@@6B@ DD 01H				; std::exception::`RTTI Complete Object Locator'
	DD	00H
	DD	00H
	DD	imagerel ??_R0?AVexception@std@@@8
	DD	imagerel ??_R3exception@std@@8
	DD	imagerel ??_R4exception@std@@6B@
rdata$r	ENDS
;	COMDAT ??_C@_1CK@NDNHPKPI@?$AA?$CC?$AAi?$AAn?$AAv?$AAa?$AAl?$AAi?$AAd?$AA?5?$AAc?$AAo?$AAm?$AAp?$AAa?$AAr@
CONST	SEGMENT
??_C@_1CK@NDNHPKPI@?$AA?$CC?$AAi?$AAn?$AAv?$AAa?$AAl?$AAi?$AAd?$AA?5?$AAc?$AAo?$AAm?$AAp?$AAa?$AAr@ DB '"'
	DB	00H, 'i', 00H, 'n', 00H, 'v', 00H, 'a', 00H, 'l', 00H, 'i', 00H
	DB	'd', 00H, ' ', 00H, 'c', 00H, 'o', 00H, 'm', 00H, 'p', 00H, 'a'
	DB	00H, 'r', 00H, 'a', 00H, 't', 00H, 'o', 00H, 'r', 00H, '"', 00H
	DB	00H, 00H					; `string'
CONST	ENDS
;	COMDAT ??_C@_1CI@JONCLBEJ@?$AAs?$AAt?$AAd?$AA?3?$AA?3?$AA_?$AAD?$AAe?$AAb?$AAu?$AAg?$AA_?$AAl?$AAt?$AA_@
CONST	SEGMENT
??_C@_1CI@JONCLBEJ@?$AAs?$AAt?$AAd?$AA?3?$AA?3?$AA_?$AAD?$AAe?$AAb?$AAu?$AAg?$AA_?$AAl?$AAt?$AA_@ DB 's'
	DB	00H, 't', 00H, 'd', 00H, ':', 00H, ':', 00H, '_', 00H, 'D', 00H
	DB	'e', 00H, 'b', 00H, 'u', 00H, 'g', 00H, '_', 00H, 'l', 00H, 't'
	DB	00H, '_', 00H, 'p', 00H, 'r', 00H, 'e', 00H, 'd', 00H, 00H, 00H ; `string'
CONST	ENDS
;	COMDAT ??_C@_0BD@FEEMDEPI@invalid?5comparator@
CONST	SEGMENT
??_C@_0BD@FEEMDEPI@invalid?5comparator@ DB 'invalid comparator', 00H ; `string'
CONST	ENDS
;	COMDAT ??_C@_1EG@ODKBEHFN@?$AA?$CC?$AAv?$AAe?$AAc?$AAt?$AAo?$AAr?$AA?5?$AAi?$AAt?$AAe?$AAr?$AAa?$AAt?$AAo@
CONST	SEGMENT
??_C@_1EG@ODKBEHFN@?$AA?$CC?$AAv?$AAe?$AAc?$AAt?$AAo?$AAr?$AA?5?$AAi?$AAt?$AAe?$AAr?$AAa?$AAt?$AAo@ DB '"'
	DB	00H, 'v', 00H, 'e', 00H, 'c', 00H, 't', 00H, 'o', 00H, 'r', 00H
	DB	' ', 00H, 'i', 00H, 't', 00H, 'e', 00H, 'r', 00H, 'a', 00H, 't'
	DB	00H, 'o', 00H, 'r', 00H, ' ', 00H, 'r', 00H, 'a', 00H, 'n', 00H
	DB	'g', 00H, 'e', 00H, ' ', 00H, 't', 00H, 'r', 00H, 'a', 00H, 'n'
	DB	00H, 's', 00H, 'p', 00H, 'o', 00H, 's', 00H, 'e', 00H, 'd', 00H
	DB	'"', 00H, 00H, 00H				; `string'
CONST	ENDS
;	COMDAT ??_C@_0CB@LIAHLBAO@vector?5iterator?5range?5transpose@
CONST	SEGMENT
??_C@_0CB@LIAHLBAO@vector?5iterator?5range?5transpose@ DB 'vector iterato'
	DB	'r range transposed', 00H			; `string'
CONST	ENDS
;	COMDAT ??_C@_1HE@KBMFDAFB@?$AA?$CC?$AAv?$AAe?$AAc?$AAt?$AAo?$AAr?$AA?5?$AAi?$AAt?$AAe?$AAr?$AAa?$AAt?$AAo@
CONST	SEGMENT
??_C@_1HE@KBMFDAFB@?$AA?$CC?$AAv?$AAe?$AAc?$AAt?$AAo?$AAr?$AA?5?$AAi?$AAt?$AAe?$AAr?$AAa?$AAt?$AAo@ DB '"'
	DB	00H, 'v', 00H, 'e', 00H, 'c', 00H, 't', 00H, 'o', 00H, 'r', 00H
	DB	' ', 00H, 'i', 00H, 't', 00H, 'e', 00H, 'r', 00H, 'a', 00H, 't'
	DB	00H, 'o', 00H, 'r', 00H, 's', 00H, ' ', 00H, 'i', 00H, 'n', 00H
	DB	' ', 00H, 'r', 00H, 'a', 00H, 'n', 00H, 'g', 00H, 'e', 00H, ' '
	DB	00H, 'a', 00H, 'r', 00H, 'e', 00H, ' ', 00H, 'f', 00H, 'r', 00H
	DB	'o', 00H, 'm', 00H, ' ', 00H, 'd', 00H, 'i', 00H, 'f', 00H, 'f'
	DB	00H, 'e', 00H, 'r', 00H, 'e', 00H, 'n', 00H, 't', 00H, ' ', 00H
	DB	'c', 00H, 'o', 00H, 'n', 00H, 't', 00H, 'a', 00H, 'i', 00H, 'n'
	DB	00H, 'e', 00H, 'r', 00H, 's', 00H, '"', 00H, 00H, 00H ; `string'
CONST	ENDS
;	COMDAT ??_C@_0DI@PBEELKIF@vector?5iterators?5in?5range?5are?5f@
CONST	SEGMENT
??_C@_0DI@PBEELKIF@vector?5iterators?5in?5range?5are?5f@ DB 'vector itera'
	DB	'tors in range are from different containers', 00H ; `string'
CONST	ENDS
;	COMDAT ??_C@_1EO@GFNCMDLA@?$AAs?$AAt?$AAd?$AA?3?$AA?3?$AA_?$AAA?$AAl?$AAl?$AAo?$AAc?$AAa?$AAt?$AAe?$AA_@
CONST	SEGMENT
??_C@_1EO@GFNCMDLA@?$AAs?$AAt?$AAd?$AA?3?$AA?3?$AA_?$AAA?$AAl?$AAl?$AAo?$AAc?$AAa?$AAt?$AAe?$AA_@ DB 's'
	DB	00H, 't', 00H, 'd', 00H, ':', 00H, ':', 00H, '_', 00H, 'A', 00H
	DB	'l', 00H, 'l', 00H, 'o', 00H, 'c', 00H, 'a', 00H, 't', 00H, 'e'
	DB	00H, '_', 00H, 'm', 00H, 'a', 00H, 'n', 00H, 'u', 00H, 'a', 00H
	DB	'l', 00H, 'l', 00H, 'y', 00H, '_', 00H, 'v', 00H, 'e', 00H, 'c'
	DB	00H, 't', 00H, 'o', 00H, 'r', 00H, '_', 00H, 'a', 00H, 'l', 00H
	DB	'i', 00H, 'g', 00H, 'n', 00H, 'e', 00H, 'd', 00H, 00H, 00H ; `string'
CONST	ENDS
;	COMDAT ??_C@_1CG@LJCPDKEJ@?$AAs?$AAt?$AAd?$AA?3?$AA?3?$AA_?$AAV?$AAe?$AAr?$AAi?$AAf?$AAy?$AA_?$AAr?$AAa@
CONST	SEGMENT
??_C@_1CG@LJCPDKEJ@?$AAs?$AAt?$AAd?$AA?3?$AA?3?$AA_?$AAV?$AAe?$AAr?$AAi?$AAf?$AAy?$AA_?$AAr?$AAa@ DB 's'
	DB	00H, 't', 00H, 'd', 00H, ':', 00H, ':', 00H, '_', 00H, 'V', 00H
	DB	'e', 00H, 'r', 00H, 'i', 00H, 'f', 00H, 'y', 00H, '_', 00H, 'r'
	DB	00H, 'a', 00H, 'n', 00H, 'g', 00H, 'e', 00H, 00H, 00H ; `string'
CONST	ENDS
;	COMDAT ??_C@_1NC@OIIHGCJJ@?$AAC?$AA?3?$AA?2?$AAP?$AAr?$AAo?$AAg?$AAr?$AAa?$AAm?$AA?5?$AAF?$AAi?$AAl?$AAe@
CONST	SEGMENT
??_C@_1NC@OIIHGCJJ@?$AAC?$AA?3?$AA?2?$AAP?$AAr?$AAo?$AAg?$AAr?$AAa?$AAm?$AA?5?$AAF?$AAi?$AAl?$AAe@ DB 'C'
	DB	00H, ':', 00H, '\', 00H, 'P', 00H, 'r', 00H, 'o', 00H, 'g', 00H
	DB	'r', 00H, 'a', 00H, 'm', 00H, ' ', 00H, 'F', 00H, 'i', 00H, 'l'
	DB	00H, 'e', 00H, 's', 00H, ' ', 00H, '(', 00H, 'x', 00H, '8', 00H
	DB	'6', 00H, ')', 00H, '\', 00H, 'M', 00H, 'i', 00H, 'c', 00H, 'r'
	DB	00H, 'o', 00H, 's', 00H, 'o', 00H, 'f', 00H, 't', 00H, ' ', 00H
	DB	'V', 00H, 'i', 00H, 's', 00H, 'u', 00H, 'a', 00H, 'l', 00H, ' '
	DB	00H, 'S', 00H, 't', 00H, 'u', 00H, 'd', 00H, 'i', 00H, 'o', 00H
	DB	'\', 00H, '2', 00H, '0', 00H, '1', 00H, '9', 00H, '\', 00H, 'C'
	DB	00H, 'o', 00H, 'm', 00H, 'm', 00H, 'u', 00H, 'n', 00H, 'i', 00H
	DB	't', 00H, 'y', 00H, '\', 00H, 'V', 00H, 'C', 00H, '\', 00H, 'T'
	DB	00H, 'o', 00H, 'o', 00H, 'l', 00H, 's', 00H, '\', 00H, 'M', 00H
	DB	'S', 00H, 'V', 00H, 'C', 00H, '\', 00H, '1', 00H, '4', 00H, '.'
	DB	00H, '2', 00H, '3', 00H, '.', 00H, '2', 00H, '8', 00H, '1', 00H
	DB	'0', 00H, '5', 00H, '\', 00H, 'i', 00H, 'n', 00H, 'c', 00H, 'l'
	DB	00H, 'u', 00H, 'd', 00H, 'e', 00H, '\', 00H, 'x', 00H, 'u', 00H
	DB	't', 00H, 'i', 00H, 'l', 00H, 'i', 00H, 't', 00H, 'y', 00H, 00H
	DB	00H						; `string'
CONST	ENDS
;	COMDAT ??_C@_0BA@JFNIOLAK@string?5too?5long@
CONST	SEGMENT
??_C@_0BA@JFNIOLAK@string?5too?5long@ DB 'string too long', 00H ; `string'
CONST	ENDS
;	COMDAT ??_C@_1BK@MHIKGOKE@?$AA?3?$AAA?$AAM?$AA?3?$AAa?$AAm?$AA?3?$AAP?$AAM?$AA?3?$AAp?$AAm@
CONST	SEGMENT
??_C@_1BK@MHIKGOKE@?$AA?3?$AAA?$AAM?$AA?3?$AAa?$AAm?$AA?3?$AAP?$AAM?$AA?3?$AAp?$AAm@ DB ':'
	DB	00H, 'A', 00H, 'M', 00H, ':', 00H, 'a', 00H, 'm', 00H, ':', 00H
	DB	'P', 00H, 'M', 00H, ':', 00H, 'p', 00H, 'm', 00H, 00H, 00H ; `string'
CONST	ENDS
;	COMDAT ??_C@_0BI@CFPLBAOH@invalid?5string?5position@
CONST	SEGMENT
??_C@_0BI@CFPLBAOH@invalid?5string?5position@ DB 'invalid string position'
	DB	00H						; `string'
CONST	ENDS
;	COMDAT ??_C@_1NA@KDANOKNP@?$AAs?$AAt?$AAd?$AA?3?$AA?3?$AA_?$AAV?$AAe?$AAc?$AAt?$AAo?$AAr?$AA_?$AAc?$AAo@
CONST	SEGMENT
??_C@_1NA@KDANOKNP@?$AAs?$AAt?$AAd?$AA?3?$AA?3?$AA_?$AAV?$AAe?$AAc?$AAt?$AAo?$AAr?$AA_?$AAc?$AAo@ DB 's'
	DB	00H, 't', 00H, 'd', 00H, ':', 00H, ':', 00H, '_', 00H, 'V', 00H
	DB	'e', 00H, 'c', 00H, 't', 00H, 'o', 00H, 'r', 00H, '_', 00H, 'c'
	DB	00H, 'o', 00H, 'n', 00H, 's', 00H, 't', 00H, '_', 00H, 'i', 00H
	DB	't', 00H, 'e', 00H, 'r', 00H, 'a', 00H, 't', 00H, 'o', 00H, 'r'
	DB	00H, '<', 00H, 'c', 00H, 'l', 00H, 'a', 00H, 's', 00H, 's', 00H
	DB	' ', 00H, 's', 00H, 't', 00H, 'd', 00H, ':', 00H, ':', 00H, '_'
	DB	00H, 'V', 00H, 'e', 00H, 'c', 00H, 't', 00H, 'o', 00H, 'r', 00H
	DB	'_', 00H, 'v', 00H, 'a', 00H, 'l', 00H, '<', 00H, 's', 00H, 't'
	DB	00H, 'r', 00H, 'u', 00H, 'c', 00H, 't', 00H, ' ', 00H, 's', 00H
	DB	't', 00H, 'd', 00H, ':', 00H, ':', 00H, '_', 00H, 'S', 00H, 'i'
	DB	00H, 'm', 00H, 'p', 00H, 'l', 00H, 'e', 00H, '_', 00H, 't', 00H
	DB	'y', 00H, 'p', 00H, 'e', 00H, 's', 00H, '<', 00H, 'u', 00H, 'n'
	DB	00H, 's', 00H, 'i', 00H, 'g', 00H, 'n', 00H, 'e', 00H, 'd', 00H
	DB	' ', 00H, 'i', 00H, 'n', 00H, 't', 00H, '>', 00H, ' ', 00H, '>'
	DB	00H, ' ', 00H, '>', 00H, ':', 00H, ':', 00H, '_', 00H, 'C', 00H
	DB	'o', 00H, 'm', 00H, 'p', 00H, 'a', 00H, 't', 00H, 00H, 00H ; `string'
CONST	ENDS
;	COMDAT ??_C@_1EA@DJDGNIII@?$AA?$CC?$AAv?$AAe?$AAc?$AAt?$AAo?$AAr?$AA?5?$AAi?$AAt?$AAe?$AAr?$AAa?$AAt?$AAo@
CONST	SEGMENT
??_C@_1EA@DJDGNIII@?$AA?$CC?$AAv?$AAe?$AAc?$AAt?$AAo?$AAr?$AA?5?$AAi?$AAt?$AAe?$AAr?$AAa?$AAt?$AAo@ DB '"'
	DB	00H, 'v', 00H, 'e', 00H, 'c', 00H, 't', 00H, 'o', 00H, 'r', 00H
	DB	' ', 00H, 'i', 00H, 't', 00H, 'e', 00H, 'r', 00H, 'a', 00H, 't'
	DB	00H, 'o', 00H, 'r', 00H, 's', 00H, ' ', 00H, 'i', 00H, 'n', 00H
	DB	'c', 00H, 'o', 00H, 'm', 00H, 'p', 00H, 'a', 00H, 't', 00H, 'i'
	DB	00H, 'b', 00H, 'l', 00H, 'e', 00H, '"', 00H, 00H, 00H ; `string'
CONST	ENDS
;	COMDAT ??_C@_1BBO@PJKBGHCB@?$AAs?$AAt?$AAd?$AA?3?$AA?3?$AA_?$AAV?$AAe?$AAc?$AAt?$AAo?$AAr?$AA_?$AAc?$AAo@
CONST	SEGMENT
??_C@_1BBO@PJKBGHCB@?$AAs?$AAt?$AAd?$AA?3?$AA?3?$AA_?$AAV?$AAe?$AAc?$AAt?$AAo?$AAr?$AA_?$AAc?$AAo@ DB 's'
	DB	00H, 't', 00H, 'd', 00H, ':', 00H, ':', 00H, '_', 00H, 'V', 00H
	DB	'e', 00H, 'c', 00H, 't', 00H, 'o', 00H, 'r', 00H, '_', 00H, 'c'
	DB	00H, 'o', 00H, 'n', 00H, 's', 00H, 't', 00H, '_', 00H, 'i', 00H
	DB	't', 00H, 'e', 00H, 'r', 00H, 'a', 00H, 't', 00H, 'o', 00H, 'r'
	DB	00H, '<', 00H, 'c', 00H, 'l', 00H, 'a', 00H, 's', 00H, 's', 00H
	DB	' ', 00H, 's', 00H, 't', 00H, 'd', 00H, ':', 00H, ':', 00H, '_'
	DB	00H, 'V', 00H, 'e', 00H, 'c', 00H, 't', 00H, 'o', 00H, 'r', 00H
	DB	'_', 00H, 'v', 00H, 'a', 00H, 'l', 00H, '<', 00H, 's', 00H, 't'
	DB	00H, 'r', 00H, 'u', 00H, 'c', 00H, 't', 00H, ' ', 00H, 's', 00H
	DB	't', 00H, 'd', 00H, ':', 00H, ':', 00H, '_', 00H, 'S', 00H, 'i'
	DB	00H, 'm', 00H, 'p', 00H, 'l', 00H, 'e', 00H, '_', 00H, 't', 00H
	DB	'y', 00H, 'p', 00H, 'e', 00H, 's', 00H, '<', 00H, 's', 00H, 't'
	DB	00H, 'r', 00H, 'u', 00H, 'c', 00H, 't', 00H, ' ', 00H, 't', 00H
	DB	'e', 00H, 'c', 00H, 'h', 00H, 'n', 00H, 'i', 00H, 'c', 00H, 'a'
	DB	00H, 'l', 00H, '_', 00H, 's', 00H, 'e', 00H, 'r', 00H, 'v', 00H
	DB	'i', 00H, 'c', 00H, 'e', 00H, 's', 00H, '_', 00H, 'l', 00H, 'a'
	DB	00H, 'y', 00H, 'e', 00H, 'r', 00H, ':', 00H, ':', 00H, 'P', 00H
	DB	'e', 00H, 'r', 00H, 's', 00H, 'i', 00H, 's', 00H, 't', 00H, 'e'
	DB	00H, 'n', 00H, 'c', 00H, 'e', 00H, ':', 00H, ':', 00H, 'S', 00H
	DB	'c', 00H, 'o', 00H, 'r', 00H, 'e', 00H, '>', 00H, ' ', 00H, '>'
	DB	00H, ' ', 00H, '>', 00H, ':', 00H, ':', 00H, '_', 00H, 'C', 00H
	DB	'o', 00H, 'm', 00H, 'p', 00H, 'a', 00H, 't', 00H, 00H, 00H ; `string'
CONST	ENDS
;	COMDAT ??_C@_0BO@CAOBBIOC@vector?5iterators?5incompatible@
CONST	SEGMENT
??_C@_0BO@CAOBBIOC@vector?5iterators?5incompatible@ DB 'vector iterators '
	DB	'incompatible', 00H				; `string'
CONST	ENDS
;	COMDAT ??_C@_1NG@DAPFFJEF@?$AAs?$AAt?$AAd?$AA?3?$AA?3?$AA_?$AAV?$AAe?$AAc?$AAt?$AAo?$AAr?$AA_?$AAc?$AAo@
CONST	SEGMENT
??_C@_1NG@DAPFFJEF@?$AAs?$AAt?$AAd?$AA?3?$AA?3?$AA_?$AAV?$AAe?$AAc?$AAt?$AAo?$AAr?$AA_?$AAc?$AAo@ DB 's'
	DB	00H, 't', 00H, 'd', 00H, ':', 00H, ':', 00H, '_', 00H, 'V', 00H
	DB	'e', 00H, 'c', 00H, 't', 00H, 'o', 00H, 'r', 00H, '_', 00H, 'c'
	DB	00H, 'o', 00H, 'n', 00H, 's', 00H, 't', 00H, '_', 00H, 'i', 00H
	DB	't', 00H, 'e', 00H, 'r', 00H, 'a', 00H, 't', 00H, 'o', 00H, 'r'
	DB	00H, '<', 00H, 'c', 00H, 'l', 00H, 'a', 00H, 's', 00H, 's', 00H
	DB	' ', 00H, 's', 00H, 't', 00H, 'd', 00H, ':', 00H, ':', 00H, '_'
	DB	00H, 'V', 00H, 'e', 00H, 'c', 00H, 't', 00H, 'o', 00H, 'r', 00H
	DB	'_', 00H, 'v', 00H, 'a', 00H, 'l', 00H, '<', 00H, 's', 00H, 't'
	DB	00H, 'r', 00H, 'u', 00H, 'c', 00H, 't', 00H, ' ', 00H, 's', 00H
	DB	't', 00H, 'd', 00H, ':', 00H, ':', 00H, '_', 00H, 'S', 00H, 'i'
	DB	00H, 'm', 00H, 'p', 00H, 'l', 00H, 'e', 00H, '_', 00H, 't', 00H
	DB	'y', 00H, 'p', 00H, 'e', 00H, 's', 00H, '<', 00H, 'u', 00H, 'n'
	DB	00H, 's', 00H, 'i', 00H, 'g', 00H, 'n', 00H, 'e', 00H, 'd', 00H
	DB	' ', 00H, 'i', 00H, 'n', 00H, 't', 00H, '>', 00H, ' ', 00H, '>'
	DB	00H, ' ', 00H, '>', 00H, ':', 00H, ':', 00H, 'o', 00H, 'p', 00H
	DB	'e', 00H, 'r', 00H, 'a', 00H, 't', 00H, 'o', 00H, 'r', 00H, ' '
	DB	00H, '*', 00H, 00H, 00H			; `string'
CONST	ENDS
;	COMDAT ??_C@_1NI@CDNGJJHP@?$AAs?$AAt?$AAd?$AA?3?$AA?3?$AA_?$AAV?$AAe?$AAc?$AAt?$AAo?$AAr?$AA_?$AAc?$AAo@
CONST	SEGMENT
??_C@_1NI@CDNGJJHP@?$AAs?$AAt?$AAd?$AA?3?$AA?3?$AA_?$AAV?$AAe?$AAc?$AAt?$AAo?$AAr?$AA_?$AAc?$AAo@ DB 's'
	DB	00H, 't', 00H, 'd', 00H, ':', 00H, ':', 00H, '_', 00H, 'V', 00H
	DB	'e', 00H, 'c', 00H, 't', 00H, 'o', 00H, 'r', 00H, '_', 00H, 'c'
	DB	00H, 'o', 00H, 'n', 00H, 's', 00H, 't', 00H, '_', 00H, 'i', 00H
	DB	't', 00H, 'e', 00H, 'r', 00H, 'a', 00H, 't', 00H, 'o', 00H, 'r'
	DB	00H, '<', 00H, 'c', 00H, 'l', 00H, 'a', 00H, 's', 00H, 's', 00H
	DB	' ', 00H, 's', 00H, 't', 00H, 'd', 00H, ':', 00H, ':', 00H, '_'
	DB	00H, 'V', 00H, 'e', 00H, 'c', 00H, 't', 00H, 'o', 00H, 'r', 00H
	DB	'_', 00H, 'v', 00H, 'a', 00H, 'l', 00H, '<', 00H, 's', 00H, 't'
	DB	00H, 'r', 00H, 'u', 00H, 'c', 00H, 't', 00H, ' ', 00H, 's', 00H
	DB	't', 00H, 'd', 00H, ':', 00H, ':', 00H, '_', 00H, 'S', 00H, 'i'
	DB	00H, 'm', 00H, 'p', 00H, 'l', 00H, 'e', 00H, '_', 00H, 't', 00H
	DB	'y', 00H, 'p', 00H, 'e', 00H, 's', 00H, '<', 00H, 'u', 00H, 'n'
	DB	00H, 's', 00H, 'i', 00H, 'g', 00H, 'n', 00H, 'e', 00H, 'd', 00H
	DB	' ', 00H, 'i', 00H, 'n', 00H, 't', 00H, '>', 00H, ' ', 00H, '>'
	DB	00H, ' ', 00H, '>', 00H, ':', 00H, ':', 00H, 'o', 00H, 'p', 00H
	DB	'e', 00H, 'r', 00H, 'a', 00H, 't', 00H, 'o', 00H, 'r', 00H, ' '
	DB	00H, '+', 00H, '+', 00H, 00H, 00H		; `string'
CONST	ENDS
;	COMDAT ??_C@_1GC@JDCKOLAC@?$AA?$CC?$AAc?$AAa?$AAn?$AA?8?$AAt?$AA?5?$AAd?$AAe?$AAr?$AAe?$AAf?$AAe?$AAr?$AAe@
CONST	SEGMENT
??_C@_1GC@JDCKOLAC@?$AA?$CC?$AAc?$AAa?$AAn?$AA?8?$AAt?$AA?5?$AAd?$AAe?$AAr?$AAe?$AAf?$AAe?$AAr?$AAe@ DB '"'
	DB	00H, 'c', 00H, 'a', 00H, 'n', 00H, '''', 00H, 't', 00H, ' ', 00H
	DB	'd', 00H, 'e', 00H, 'r', 00H, 'e', 00H, 'f', 00H, 'e', 00H, 'r'
	DB	00H, 'e', 00H, 'n', 00H, 'c', 00H, 'e', 00H, ' ', 00H, 'o', 00H
	DB	'u', 00H, 't', 00H, ' ', 00H, 'o', 00H, 'f', 00H, ' ', 00H, 'r'
	DB	00H, 'a', 00H, 'n', 00H, 'g', 00H, 'e', 00H, ' ', 00H, 'v', 00H
	DB	'e', 00H, 'c', 00H, 't', 00H, 'o', 00H, 'r', 00H, ' ', 00H, 'i'
	DB	00H, 't', 00H, 'e', 00H, 'r', 00H, 'a', 00H, 't', 00H, 'o', 00H
	DB	'r', 00H, '"', 00H, 00H, 00H			; `string'
CONST	ENDS
;	COMDAT ??_C@_0CP@MDHADBHN@can?8t?5dereference?5out?5of?5range?5@
CONST	SEGMENT
??_C@_0CP@MDHADBHN@can?8t?5dereference?5out?5of?5range?5@ DB 'can''t dere'
	DB	'ference out of range vector iterator', 00H	; `string'
CONST	ENDS
;	COMDAT ??_C@_1GM@FNBFNBEL@?$AA?$CC?$AAc?$AAa?$AAn?$AA?8?$AAt?$AA?5?$AAd?$AAe?$AAr?$AAe?$AAf?$AAe?$AAr?$AAe@
CONST	SEGMENT
??_C@_1GM@FNBFNBEL@?$AA?$CC?$AAc?$AAa?$AAn?$AA?8?$AAt?$AA?5?$AAd?$AAe?$AAr?$AAe?$AAf?$AAe?$AAr?$AAe@ DB '"'
	DB	00H, 'c', 00H, 'a', 00H, 'n', 00H, '''', 00H, 't', 00H, ' ', 00H
	DB	'd', 00H, 'e', 00H, 'r', 00H, 'e', 00H, 'f', 00H, 'e', 00H, 'r'
	DB	00H, 'e', 00H, 'n', 00H, 'c', 00H, 'e', 00H, ' ', 00H, 'v', 00H
	DB	'a', 00H, 'l', 00H, 'u', 00H, 'e', 00H, '-', 00H, 'i', 00H, 'n'
	DB	00H, 'i', 00H, 't', 00H, 'i', 00H, 'a', 00H, 'l', 00H, 'i', 00H
	DB	'z', 00H, 'e', 00H, 'd', 00H, ' ', 00H, 'v', 00H, 'e', 00H, 'c'
	DB	00H, 't', 00H, 'o', 00H, 'r', 00H, ' ', 00H, 'i', 00H, 't', 00H
	DB	'e', 00H, 'r', 00H, 'a', 00H, 't', 00H, 'o', 00H, 'r', 00H, '"'
	DB	00H, 00H, 00H				; `string'
CONST	ENDS
;	COMDAT ??_C@_1BCE@DAINFINE@?$AAs?$AAt?$AAd?$AA?3?$AA?3?$AA_?$AAV?$AAe?$AAc?$AAt?$AAo?$AAr?$AA_?$AAc?$AAo@
CONST	SEGMENT
??_C@_1BCE@DAINFINE@?$AAs?$AAt?$AAd?$AA?3?$AA?3?$AA_?$AAV?$AAe?$AAc?$AAt?$AAo?$AAr?$AA_?$AAc?$AAo@ DB 's'
	DB	00H, 't', 00H, 'd', 00H, ':', 00H, ':', 00H, '_', 00H, 'V', 00H
	DB	'e', 00H, 'c', 00H, 't', 00H, 'o', 00H, 'r', 00H, '_', 00H, 'c'
	DB	00H, 'o', 00H, 'n', 00H, 's', 00H, 't', 00H, '_', 00H, 'i', 00H
	DB	't', 00H, 'e', 00H, 'r', 00H, 'a', 00H, 't', 00H, 'o', 00H, 'r'
	DB	00H, '<', 00H, 'c', 00H, 'l', 00H, 'a', 00H, 's', 00H, 's', 00H
	DB	' ', 00H, 's', 00H, 't', 00H, 'd', 00H, ':', 00H, ':', 00H, '_'
	DB	00H, 'V', 00H, 'e', 00H, 'c', 00H, 't', 00H, 'o', 00H, 'r', 00H
	DB	'_', 00H, 'v', 00H, 'a', 00H, 'l', 00H, '<', 00H, 's', 00H, 't'
	DB	00H, 'r', 00H, 'u', 00H, 'c', 00H, 't', 00H, ' ', 00H, 's', 00H
	DB	't', 00H, 'd', 00H, ':', 00H, ':', 00H, '_', 00H, 'S', 00H, 'i'
	DB	00H, 'm', 00H, 'p', 00H, 'l', 00H, 'e', 00H, '_', 00H, 't', 00H
	DB	'y', 00H, 'p', 00H, 'e', 00H, 's', 00H, '<', 00H, 's', 00H, 't'
	DB	00H, 'r', 00H, 'u', 00H, 'c', 00H, 't', 00H, ' ', 00H, 't', 00H
	DB	'e', 00H, 'c', 00H, 'h', 00H, 'n', 00H, 'i', 00H, 'c', 00H, 'a'
	DB	00H, 'l', 00H, '_', 00H, 's', 00H, 'e', 00H, 'r', 00H, 'v', 00H
	DB	'i', 00H, 'c', 00H, 'e', 00H, 's', 00H, '_', 00H, 'l', 00H, 'a'
	DB	00H, 'y', 00H, 'e', 00H, 'r', 00H, ':', 00H, ':', 00H, 'P', 00H
	DB	'e', 00H, 'r', 00H, 's', 00H, 'i', 00H, 's', 00H, 't', 00H, 'e'
	DB	00H, 'n', 00H, 'c', 00H, 'e', 00H, ':', 00H, ':', 00H, 'S', 00H
	DB	'c', 00H, 'o', 00H, 'r', 00H, 'e', 00H, '>', 00H, ' ', 00H, '>'
	DB	00H, ' ', 00H, '>', 00H, ':', 00H, ':', 00H, 'o', 00H, 'p', 00H
	DB	'e', 00H, 'r', 00H, 'a', 00H, 't', 00H, 'o', 00H, 'r', 00H, ' '
	DB	00H, '*', 00H, 00H, 00H			; `string'
CONST	ENDS
;	COMDAT ??_C@_0DE@CHADHGFF@can?8t?5dereference?5value?9initial@
CONST	SEGMENT
??_C@_0DE@CHADHGFF@can?8t?5dereference?5value?9initial@ DB 'can''t derefe'
	DB	'rence value-initialized vector iterator', 00H ; `string'
CONST	ENDS
;	COMDAT ??_C@_1FG@LDPPKMGP@?$AA?$CC?$AAc?$AAa?$AAn?$AA?8?$AAt?$AA?5?$AAi?$AAn?$AAc?$AAr?$AAe?$AAm?$AAe?$AAn@
CONST	SEGMENT
??_C@_1FG@LDPPKMGP@?$AA?$CC?$AAc?$AAa?$AAn?$AA?8?$AAt?$AA?5?$AAi?$AAn?$AAc?$AAr?$AAe?$AAm?$AAe?$AAn@ DB '"'
	DB	00H, 'c', 00H, 'a', 00H, 'n', 00H, '''', 00H, 't', 00H, ' ', 00H
	DB	'i', 00H, 'n', 00H, 'c', 00H, 'r', 00H, 'e', 00H, 'm', 00H, 'e'
	DB	00H, 'n', 00H, 't', 00H, ' ', 00H, 'v', 00H, 'e', 00H, 'c', 00H
	DB	't', 00H, 'o', 00H, 'r', 00H, ' ', 00H, 'i', 00H, 't', 00H, 'e'
	DB	00H, 'r', 00H, 'a', 00H, 't', 00H, 'o', 00H, 'r', 00H, ' ', 00H
	DB	'p', 00H, 'a', 00H, 's', 00H, 't', 00H, ' ', 00H, 'e', 00H, 'n'
	DB	00H, 'd', 00H, '"', 00H, 00H, 00H		; `string'
CONST	ENDS
;	COMDAT ??_C@_0CJ@OAAAAGPM@can?8t?5increment?5vector?5iterator@
CONST	SEGMENT
??_C@_0CJ@OAAAAGPM@can?8t?5increment?5vector?5iterator@ DB 'can''t increm'
	DB	'ent vector iterator past end', 00H		; `string'
CONST	ENDS
;	COMDAT ??_C@_1GI@EDCILPL@?$AA?$CC?$AAc?$AAa?$AAn?$AA?8?$AAt?$AA?5?$AAi?$AAn?$AAc?$AAr?$AAe?$AAm?$AAe?$AAn@
CONST	SEGMENT
??_C@_1GI@EDCILPL@?$AA?$CC?$AAc?$AAa?$AAn?$AA?8?$AAt?$AA?5?$AAi?$AAn?$AAc?$AAr?$AAe?$AAm?$AAe?$AAn@ DB '"'
	DB	00H, 'c', 00H, 'a', 00H, 'n', 00H, '''', 00H, 't', 00H, ' ', 00H
	DB	'i', 00H, 'n', 00H, 'c', 00H, 'r', 00H, 'e', 00H, 'm', 00H, 'e'
	DB	00H, 'n', 00H, 't', 00H, ' ', 00H, 'v', 00H, 'a', 00H, 'l', 00H
	DB	'u', 00H, 'e', 00H, '-', 00H, 'i', 00H, 'n', 00H, 'i', 00H, 't'
	DB	00H, 'i', 00H, 'a', 00H, 'l', 00H, 'i', 00H, 'z', 00H, 'e', 00H
	DB	'd', 00H, ' ', 00H, 'v', 00H, 'e', 00H, 'c', 00H, 't', 00H, 'o'
	DB	00H, 'r', 00H, ' ', 00H, 'i', 00H, 't', 00H, 'e', 00H, 'r', 00H
	DB	'a', 00H, 't', 00H, 'o', 00H, 'r', 00H, '"', 00H, 00H, 00H ; `string'
CONST	ENDS
;	COMDAT ??_C@_1BCG@DMILBCMK@?$AAs?$AAt?$AAd?$AA?3?$AA?3?$AA_?$AAV?$AAe?$AAc?$AAt?$AAo?$AAr?$AA_?$AAc?$AAo@
CONST	SEGMENT
??_C@_1BCG@DMILBCMK@?$AAs?$AAt?$AAd?$AA?3?$AA?3?$AA_?$AAV?$AAe?$AAc?$AAt?$AAo?$AAr?$AA_?$AAc?$AAo@ DB 's'
	DB	00H, 't', 00H, 'd', 00H, ':', 00H, ':', 00H, '_', 00H, 'V', 00H
	DB	'e', 00H, 'c', 00H, 't', 00H, 'o', 00H, 'r', 00H, '_', 00H, 'c'
	DB	00H, 'o', 00H, 'n', 00H, 's', 00H, 't', 00H, '_', 00H, 'i', 00H
	DB	't', 00H, 'e', 00H, 'r', 00H, 'a', 00H, 't', 00H, 'o', 00H, 'r'
	DB	00H, '<', 00H, 'c', 00H, 'l', 00H, 'a', 00H, 's', 00H, 's', 00H
	DB	' ', 00H, 's', 00H, 't', 00H, 'd', 00H, ':', 00H, ':', 00H, '_'
	DB	00H, 'V', 00H, 'e', 00H, 'c', 00H, 't', 00H, 'o', 00H, 'r', 00H
	DB	'_', 00H, 'v', 00H, 'a', 00H, 'l', 00H, '<', 00H, 's', 00H, 't'
	DB	00H, 'r', 00H, 'u', 00H, 'c', 00H, 't', 00H, ' ', 00H, 's', 00H
	DB	't', 00H, 'd', 00H, ':', 00H, ':', 00H, '_', 00H, 'S', 00H, 'i'
	DB	00H, 'm', 00H, 'p', 00H, 'l', 00H, 'e', 00H, '_', 00H, 't', 00H
	DB	'y', 00H, 'p', 00H, 'e', 00H, 's', 00H, '<', 00H, 's', 00H, 't'
	DB	00H, 'r', 00H, 'u', 00H, 'c', 00H, 't', 00H, ' ', 00H, 't', 00H
	DB	'e', 00H, 'c', 00H, 'h', 00H, 'n', 00H, 'i', 00H, 'c', 00H, 'a'
	DB	00H, 'l', 00H, '_', 00H, 's', 00H, 'e', 00H, 'r', 00H, 'v', 00H
	DB	'i', 00H, 'c', 00H, 'e', 00H, 's', 00H, '_', 00H, 'l', 00H, 'a'
	DB	00H, 'y', 00H, 'e', 00H, 'r', 00H, ':', 00H, ':', 00H, 'P', 00H
	DB	'e', 00H, 'r', 00H, 's', 00H, 'i', 00H, 's', 00H, 't', 00H, 'e'
	DB	00H, 'n', 00H, 'c', 00H, 'e', 00H, ':', 00H, ':', 00H, 'S', 00H
	DB	'c', 00H, 'o', 00H, 'r', 00H, 'e', 00H, '>', 00H, ' ', 00H, '>'
	DB	00H, ' ', 00H, '>', 00H, ':', 00H, ':', 00H, 'o', 00H, 'p', 00H
	DB	'e', 00H, 'r', 00H, 'a', 00H, 't', 00H, 'o', 00H, 'r', 00H, ' '
	DB	00H, '+', 00H, '+', 00H, 00H, 00H		; `string'
CONST	ENDS
